(dp1
S'tmp'
p2
(lp3
(lp4
V08-11-2016
p5
aV12
p6
aVnr
p7
aV16
p8
aV13
p9
aVnr
p10
aV19
p11
aVnr
p12
aVnr
p13
aVnr
p14
aV19
p15
aVnr
p16
aVnr
p17
aV15
p18
aV18
p19
aV22
p20
aVnr
p21
aV19
p22
aVnr
p23
aVnr
p24
aVnr
p25
aVnr
p26
aVnr
p27
aV19
p28
aV18
p29
aVnr
p30
aV17
p31
aV18
p32
aVnr
p33
aV20
p34
aV16
p35
aVnr
p36
aVnr
p37
aVnr
p38
aVnr
p39
aV19
p40
aVnr
p41
aV18
p42
aVnr
p43
aVnr
p44
aV19
p45
aV19
p46
aV18
p47
aV19
p48
aa(lp49
V09-11-2016
p50
aV11
p51
aVnr
p52
aV13
p53
aV9
aVnr
p54
aV14
p55
aVnr
p56
aVnr
p57
aVnr
p58
aV15
p59
aVnr
p60
aVnr
p61
aV10
p62
aV12
p63
aV15
p64
aV14
p65
aV14
p66
aVnr
p67
aVnr
p68
aVnr
p69
aVnr
p70
aVnr
p71
aV14
p72
aV14
p73
aV10
p74
aV14
p75
aV14
p76
aVnr
p77
aV16
p78
aV12
p79
aVnr
p80
aVnr
p81
aVnr
p82
aVnr
p83
aV15
p84
aVnr
p85
aV13
p86
aVnr
p87
aVnr
p88
aV15
p89
aV14
p90
aV15
p91
aV14
p92
aa(lp93
V09-11-2016
p94
aV12
p95
aV15
p96
aV12
p97
aV10
p98
aVnr
p99
aV15
p100
aVnr
p101
aVnr
p102
aVnr
p103
aV17
p104
aVnr
p105
aVnr
p106
aV11
p107
aV13
p108
aV16
p109
aV16
p110
aV15
p111
aVnr
p112
aVnr
p113
aVnr
p114
aVnr
p115
aVnr
p116
aV15
p117
aV15
p118
aV11
p119
aV15
p120
aV14
p121
aVnr
p122
aV17
p123
aV12
p124
aVnr
p125
aVnr
p126
aVnr
p127
aVnr
p128
aV15
p129
aVnr
p130
aV15
p131
aVnr
p132
aVnr
p133
aV15
p134
aV15
p135
aV15
p136
aV16
p137
aasS'co'
p138
(lp139
(lp140
V08-11-2016
p141
aV12
p142
aV0.2
p143
aV0.9
p144
aVnr
p145
aVnr
p146
aV0.3
p147
aVnr
p148
aV1.1
p149
aV0.8
p150
aV1.4
p151
aVnr
p152
aV0.4
p153
aV0.8
p154
aVnr
p155
aV1.1
p156
aVnr
p157
aV0.8
p158
aVnr
p159
aV0.4
p160
aVnr
p161
aV0.3
p162
aV1.3
p163
aVnr
p164
aVnr
p165
aV1.0
p166
aV1.1
p167
aV1.2
p168
aV0.5
p169
aV0.4
p170
aV1.2
p171
aVnr
p172
aV1.1
p173
aVnr
p174
aV1.0
p175
aVnr
p176
aVnr
p177
aV0.6
p178
aVnr
p179
aVnr
p180
aV0.8
p181
aV0.3
p182
aVnr
p183
aV0.9
p184
aV0.7
p185
aVnr
p186
aV0.4
p187
aV1.4
p188
aa(lp189
V09-11-2016
p190
aV11
p191
aV0.2
p192
aV0.6
p193
aVnr
p194
aVnr
p195
aV0.4
p196
aVnr
p197
aV1.0
p198
aV0.9
p199
aV1.0
p200
aVnr
p201
aV0.4
p202
aVnr
p203
aVnr
p204
aV0.6
p205
aVnr
p206
aV0.7
p207
aVnr
p208
aV0.2
p209
aVnr
p210
aV0.2
p211
aV1.1
p212
aVnr
p213
aVnr
p214
aV0.5
p215
aV1.3
p216
aV1.1
p217
aV0.4
p218
aV0.6
p219
aV0.9
p220
aVnr
p221
aV0.7
p222
aVnr
p223
aV1.1
p224
aVnr
p225
aVnr
p226
aV0.8
p227
aVnr
p228
aVnr
p229
aV0.8
p230
aV0.2
p231
aVnr
p232
aV0.8
p233
aV1.1
p234
aVnr
p235
aV0.3
p236
aV0.8
p237
aa(lp238
V09-11-2016
p239
aV12
p240
aV0.2
p241
aV0.8
p242
aVnr
p243
aVnr
p244
aV0.3
p245
aVnr
p246
aV0.8
p247
aV0.7
p248
aV0.9
p249
aVnr
p250
aV0.4
p251
aVnr
p252
aVnr
p253
aV0.7
p254
aVnr
p255
aV0.6
p256
aVnr
p257
aV0.1
p258
aVnr
p259
aV0.3
p260
aV1.2
p261
aVnr
p262
aVnr
p263
aVnr
p264
aV1.0
p265
aV0.9
p266
aV0.5
p267
aV0.5
p268
aV0.8
p269
aVnr
p270
aV0.6
p271
aVnr
p272
aV0.9
p273
aVnr
p274
aVnr
p275
aV0.6
p276
aVnr
p277
aVnr
p278
aV0.8
p279
aV0.1
p280
aVnr
p281
aV0.7
p282
aV0.9
p283
aVnr
p284
aV0.2
p285
aV0.7
p286
aasS'pm2'
p287
(lp288
(lp289
V08-11-2016
p290
aV12
p291
aVnr
p292
aV52
p293
aV36
p294
aVnr
p295
aV61
p296
aV51
p297
aV48
p298
aVnr
p299
aVnr
p300
aV67
p301
aVnr
p302
aVnr
p303
aVnr
p304
aVnr
p305
aV51
p306
aV10
p307
aVnr
p308
aVnr
p309
aVnr
p310
aV53
p311
aV44
p312
aV34
p313
aV35
p314
aVnr
p315
aV44
p316
aVnr
p317
aVnr
p318
aVnr
p319
aVnr
p320
aVnr
p321
aV41
p322
aVnr
p323
aVnr
p324
aV43
p325
aVnr
p326
aVnr
p327
aV61
p328
aa(lp329
V09-11-2016
p330
aV11
p331
aVnr
p332
aV12
p333
aVnr
p334
aVnr
p335
aV24
p336
aVnr
p337
aV8
aVnr
p338
aVnr
p339
aV21
p340
aVnr
p341
aVnr
p342
aVnr
p343
aVnr
p344
aV26
p345
aV5
aVnr
p346
aVnr
p347
aVnr
p348
aV39
p349
aV21
p350
aV15
p351
aV18
p352
aVnr
p353
aV18
p354
aVnr
p355
aVnr
p356
aVnr
p357
aVnr
p358
aVnr
p359
aV12
p360
aVnr
p361
aVnr
p362
aV15
p363
aVnr
p364
aVnr
p365
aV21
p366
aa(lp367
V09-11-2016
p368
aV12
p369
aVnr
p370
aV16
p371
aV12
p372
aVnr
p373
aV24
p374
aVnr
p375
aV23
p376
aVnr
p377
aVnr
p378
aV25
p379
aVnr
p380
aVnr
p381
aVnr
p382
aVnr
p383
aV24
p384
aV11
p385
aVnr
p386
aVnr
p387
aVnr
p388
aV31
p389
aV23
p390
aV13
p391
aV8
aVnr
p392
aV18
p393
aVnr
p394
aVnr
p395
aVnr
p396
aVnr
p397
aVnr
p398
aV6
aVnr
p399
aVnr
p400
aV23
p401
aVnr
p402
aVnr
p403
aV12
p404
aasS'pm10'
p405
(lp406
(lp407
V08-11-2016
p408
aV12
p409
aV40
p410
aV70
p411
aVnr
p412
aV34
p413
aV89
p414
aV80
p415
aVnr
p416
aVnr
p417
aVnr
p418
aV74
p419
aVnr
p420
aV59
p421
aV55
p422
aV46
p423
aVnr
p424
aV77
p425
aV13
p426
aV70
p427
aVnr
p428
aVnr
p429
aVnr
p430
aV88
p431
aV64
p432
aV46
p433
aVnr
p434
aVnr
p435
aVnr
p436
aV80
p437
aVnr
p438
aVnr
p439
aVnr
p440
aV54
p441
aVnr
p442
aVnr
p443
aV76
p444
aV73
p445
aVnr
p446
aVnr
p447
aVnr
p448
aV75
p449
aV119
p450
aa(lp451
V09-11-2016
p452
aV11
p453
aV6
aV15
p454
aVnr
p455
aV17
p456
aV31
p457
aVnr
p458
aVnr
p459
aVnr
p460
aVnr
p461
aVnr
p462
aVnr
p463
aV22
p464
aV18
p465
aV25
p466
aVnr
p467
aV37
p468
aV6
aV20
p469
aVnr
p470
aVnr
p471
aVnr
p472
aV57
p473
aV28
p474
aV16
p475
aVnr
p476
aVnr
p477
aVnr
p478
aV26
p479
aVnr
p480
aVnr
p481
aVnr
p482
aV12
p483
aVnr
p484
aVnr
p485
aV32
p486
aV20
p487
aVnr
p488
aVnr
p489
aVnr
p490
aV6
aV27
p491
aa(lp492
V09-11-2016
p493
aV12
p494
aV9
aV21
p495
aVnr
p496
aV12
p497
aV35
p498
aVnr
p499
aVnr
p500
aVnr
p501
aVnr
p502
aVnr
p503
aVnr
p504
aV22
p505
aV10
p506
aV17
p507
aVnr
p508
aV35
p509
aV13
p510
aV26
p511
aVnr
p512
aVnr
p513
aVnr
p514
aV50
p515
aV35
p516
aV15
p517
aVnr
p518
aVnr
p519
aVnr
p520
aV28
p521
aVnr
p522
aVnr
p523
aVnr
p524
aV29
p525
aVnr
p526
aVnr
p527
aV25
p528
aV15
p529
aVnr
p530
aVnr
p531
aVnr
p532
aV12
p533
aV25
p534
aasS'no'
p535
(lp536
(lp537
V08-11-2016
p538
aV12
p539
aV8
aV19
p540
aVnr
p541
aV11
p542
aVnr
p543
aVnr
p544
aV18
p545
aV24
p546
aVnr
p547
aV7
aVnr
p548
aV31
p549
aV30
p550
aV11
p551
aV18
p552
aVnr
p553
aV24
p554
aVnr
p555
aV31
p556
aVnr
p557
aVnr
p558
aVnr
p559
aV36
p560
aV27
p561
aVnr
p562
aV12
p563
aV31
p564
aVnr
p565
aV16
p566
aVnr
p567
aV28
p568
aVnr
p569
aVnr
p570
aV9
aVnr
p571
aVnr
p572
aV29
p573
aV14
p574
aVnr
p575
aV22
p576
aV17
p577
aV9
aV32
p578
aa(lp579
V09-11-2016
p580
aV11
p581
aV4
aV19
p582
aVnr
p583
aV14
p584
aVnr
p585
aVnr
p586
aV26
p587
aV30
p588
aVnr
p589
aV5
aVnr
p590
aV45
p591
aVnr
p592
aV11
p593
aV22
p594
aVnr
p595
aV42
p596
aVnr
p597
aV35
p598
aVnr
p599
aVnr
p600
aVnr
p601
aV51
p602
aV37
p603
aVnr
p604
aV12
p605
aV33
p606
aVnr
p607
aV18
p608
aVnr
p609
aV24
p610
aVnr
p611
aVnr
p612
aV23
p613
aVnr
p614
aVnr
p615
aVnr
p616
aV11
p617
aVnr
p618
aV35
p619
aV48
p620
aV6
aV24
p621
aa(lp622
V09-11-2016
p623
aV12
p624
aV5
aV36
p625
aVnr
p626
aV12
p627
aVnr
p628
aVnr
p629
aV16
p630
aV20
p631
aVnr
p632
aV4
aVnr
p633
aV25
p634
aV15
p635
aV6
aV19
p636
aVnr
p637
aV26
p638
aVnr
p639
aV30
p640
aVnr
p641
aVnr
p642
aVnr
p643
aV30
p644
aV24
p645
aVnr
p646
aVnr
p647
aV22
p648
aVnr
p649
aV12
p650
aVnr
p651
aV14
p652
aVnr
p653
aVnr
p654
aV12
p655
aVnr
p656
aVnr
p657
aVnr
p658
aV9
aVnr
p659
aV27
p660
aV29
p661
aV4
aV17
p662
aasS'o3'
p663
(lp664
(lp665
V08-11-2016
p666
aV12
p667
aV38
p668
aV45
p669
aV35
p670
aV32
p671
aVnr
p672
aV37
p673
aV35
p674
aV30
p675
aVnr
p676
aV38
p677
aV36
p678
aV38
p679
aV33
p680
aV33
p681
aV35
p682
aV38
p683
aV39
p684
aV38
p685
aV36
p686
aVnr
p687
aV33
p688
aV33
p689
aV32
p690
aV31
p691
aV40
p692
aV37
p693
aV37
p694
aVnr
p695
aV41
p696
aVnr
p697
aV35
p698
aVnr
p699
aVnr
p700
aV42
p701
aVnr
p702
aVnr
p703
aV33
p704
aV35
p705
aVnr
p706
aV42
p707
aV42
p708
aV38
p709
aV39
p710
aa(lp711
V09-11-2016
p712
aV11
p713
aV28
p714
aV16
p715
aV24
p716
aV14
p717
aVnr
p718
aV6
aV13
p719
aV6
aVnr
p720
aV23
p721
aVnr
p722
aVnr
p723
aV18
p724
aV12
p725
aV14
p726
aV16
p727
aV10
p728
aV19
p729
aV8
aVnr
p730
aV15
p731
aV19
p732
aV7
aV9
aV28
p733
aV18
p734
aV8
aVnr
p735
aV17
p736
aVnr
p737
aV10
p738
aVnr
p739
aVnr
p740
aV19
p741
aVnr
p742
aVnr
p743
aV14
p744
aV17
p745
aVnr
p746
aV7
aV5
aV23
p747
aV21
p748
aa(lp749
V09-11-2016
p750
aV12
p751
aV30
p752
aV10
p753
aV32
p754
aV19
p755
aVnr
p756
aV15
p757
aV21
p758
aV10
p759
aVnr
p760
aV32
p761
aVnr
p762
aVnr
p763
aV16
p764
aV20
p765
aV19
p766
aV26
p767
aV19
p768
aV19
p769
aV15
p770
aVnr
p771
aV24
p772
aVnr
p773
aV15
p774
aV16
p775
aV32
p776
aV25
p777
aV10
p778
aVnr
p779
aV21
p780
aVnr
p781
aV26
p782
aVnr
p783
aVnr
p784
aV23
p785
aVnr
p786
aVnr
p787
aV19
p788
aV22
p789
aVnr
p790
aV7
aV15
p791
aV24
p792
aV29
p793
aasS'wsp'
p794
(lp795
(lp796
V08-11-2016
p797
aV12
p798
aVnr
p799
aV5
aV4
aVnr
p800
aVnr
p801
aVnr
p802
aVnr
p803
aV4
aVnr
p804
aVnr
p805
aV6
aV4
aV2
aVnr
p806
aV2
aVnr
p807
aVnr
p808
aVnr
p809
aVnr
p810
aVnr
p811
aV4
aV4
aVnr
p812
aV4
aV4
aVnr
p813
aV2
aV5
aVnr
p814
aVnr
p815
aVnr
p816
aVnr
p817
aV4
aVnr
p818
aV2
aVnr
p819
aVnr
p820
aV4
aV4
aV3
aV2
aa(lp821
V09-11-2016
p822
aV11
p823
aV4
aV4
aV5
aVnr
p824
aV4
aVnr
p825
aVnr
p826
aV4
aVnr
p827
aVnr
p828
aV5
aV3
aV4
aV3
aV4
aVnr
p829
aVnr
p830
aVnr
p831
aVnr
p832
aVnr
p833
aV4
aV5
aV4
aV5
aV6
aVnr
p834
aV4
aV6
aVnr
p835
aVnr
p836
aVnr
p837
aVnr
p838
aV4
aVnr
p839
aV4
aVnr
p840
aVnr
p841
aV6
aV4
aV6
aV3
aa(lp842
V09-11-2016
p843
aV12
p844
aV5
aV4
aV4
aVnr
p845
aV4
aVnr
p846
aVnr
p847
aV5
aVnr
p848
aVnr
p849
aV5
aV4
aV4
aV3
aV2
aVnr
p850
aVnr
p851
aVnr
p852
aVnr
p853
aVnr
p854
aV3
aV4
aV5
aV3
aV4
aVnr
p855
aV5
aV5
aVnr
p856
aVnr
p857
aVnr
p858
aVnr
p859
aV4
aVnr
p860
aVnr
p861
aVnr
p862
aVnr
p863
aV4
aV3
aV6
aV2
aasS'wdr'
p864
(lp865
(lp866
V08-11-2016
p867
aV12
p868
aVnr
p869
aV29
p870
aV45
p871
aVnr
p872
aV178
p873
aVnr
p874
aVnr
p875
aVnr
p876
aV274
p877
aVnr
p878
aVnr
p879
aV99
p880
aV67
p881
aV33
p882
aVnr
p883
aV72
p884
aVnr
p885
aVnr
p886
aVnr
p887
aVnr
p888
aVnr
p889
aV93
p890
aV82
p891
aVnr
p892
aV106
p893
aV35
p894
aVnr
p895
aV339
p896
aV70
p897
aVnr
p898
aVnr
p899
aVnr
p900
aVnr
p901
aV68
p902
aVnr
p903
aV140
p904
aVnr
p905
aVnr
p906
aV346
p907
aV168
p908
aV335
p909
aV234
p910
aa(lp911
V09-11-2016
p912
aV11
p913
aV17
p914
aV37
p915
aV23
p916
aVnr
p917
aV2
aVnr
p918
aVnr
p919
aVnr
p920
aV358
p921
aVnr
p922
aVnr
p923
aV21
p924
aV5
aV345
p925
aV350
p926
aV285
p927
aVnr
p928
aVnr
p929
aVnr
p930
aVnr
p931
aVnr
p932
aV328
p933
aV8
aV342
p934
aV339
p935
aV10
p936
aVnr
p937
aV358
p938
aV352
p939
aVnr
p940
aVnr
p941
aVnr
p942
aVnr
p943
aV318
p944
aVnr
p945
aV345
p946
aVnr
p947
aVnr
p948
aV353
p949
aV352
p950
aV7
aV25
p951
aa(lp952
V09-11-2016
p953
aV12
p954
aV323
p955
aV19
p956
aV9
aVnr
p957
aV48
p958
aVnr
p959
aVnr
p960
aVnr
p961
aV316
p962
aVnr
p963
aVnr
p964
aV31
p965
aV353
p966
aV339
p967
aV205
p968
aV281
p969
aVnr
p970
aVnr
p971
aVnr
p972
aVnr
p973
aVnr
p974
aV289
p975
aV4
aV359
p976
aV307
p977
aV34
p978
aVnr
p979
aV16
p980
aV39
p981
aVnr
p982
aVnr
p983
aVnr
p984
aVnr
p985
aV314
p986
aVnr
p987
aV318
p988
aVnr
p989
aVnr
p990
aV342
p991
aV357
p992
aV347
p993
aV29
p994
aasS'so2'
p995
(lp996
(lp997
V08-11-2016
p998
aV12
p999
aV32
p1000
aV8
aVnr
p1001
aVnr
p1002
aV9
aVnr
p1003
aV17
p1004
aV16
p1005
aV14
p1006
aVnr
p1007
aV16
p1008
aV13
p1009
aVnr
p1010
aV12
p1011
aV33
p1012
aV14
p1013
aVnr
p1014
aV15
p1015
aV5
aV20
p1016
aVnr
p1017
aV26
p1018
aV16
p1019
aVnr
p1020
aV20
p1021
aV16
p1022
aV6
aV28
p1023
aV15
p1024
aVnr
p1025
aV23
p1026
aVnr
p1027
aV19
p1028
aVnr
p1029
aVnr
p1030
aV11
p1031
aVnr
p1032
aVnr
p1033
aV16
p1034
aV16
p1035
aVnr
p1036
aV14
p1037
aV22
p1038
aVnr
p1039
aV50
p1040
aV22
p1041
aa(lp1042
V09-11-2016
p1043
aV11
p1044
aV1
aV2
aVnr
p1045
aVnr
p1046
aV0
aVnr
p1047
aV4
aV3
aV3
aVnr
p1048
aV1
aVnr
p1049
aVnr
p1050
aV2
aV2
aV3
aVnr
p1051
aV5
aV1
aV3
aVnr
p1052
aV2
aV2
aVnr
p1053
aV5
aV3
aV3
aV1
aV3
aVnr
p1054
aV3
aVnr
p1055
aV3
aVnr
p1056
aVnr
p1057
aV3
aVnr
p1058
aVnr
p1059
aV5
aV3
aVnr
p1060
aV2
aV3
aVnr
p1061
aV1
aV3
aa(lp1062
V09-11-2016
p1063
aV12
p1064
aV1
aV2
aVnr
p1065
aVnr
p1066
aV0
aVnr
p1067
aV4
aV3
aV3
aVnr
p1068
aV1
aVnr
p1069
aVnr
p1070
aV2
aV2
aV2
aVnr
p1071
aV5
aV1
aV2
aVnr
p1072
aV2
aVnr
p1073
aVnr
p1074
aV4
aV4
aV2
aV1
aV3
aVnr
p1075
aV2
aVnr
p1076
aV3
aVnr
p1077
aVnr
p1078
aV3
aVnr
p1079
aVnr
p1080
aV4
aV2
aVnr
p1081
aV3
aV3
aVnr
p1082
aV0
aV3
aasS'nox'
p1083
(lp1084
(lp1085
V08-11-2016
p1086
aV12
p1087
aV21
p1088
aV58
p1089
aVnr
p1090
aV30
p1091
aVnr
p1092
aVnr
p1093
aV54
p1094
aV86
p1095
aVnr
p1096
aV20
p1097
aVnr
p1098
aV85
p1099
aV75
p1100
aV24
p1101
aV47
p1102
aVnr
p1103
aV63
p1104
aVnr
p1105
aV81
p1106
aVnr
p1107
aVnr
p1108
aVnr
p1109
aV90
p1110
aV77
p1111
aVnr
p1112
aV37
p1113
aV84
p1114
aVnr
p1115
aV51
p1116
aVnr
p1117
aV71
p1118
aVnr
p1119
aVnr
p1120
aV32
p1121
aVnr
p1122
aVnr
p1123
aV64
p1124
aV37
p1125
aVnr
p1126
aV69
p1127
aV47
p1128
aV28
p1129
aV88
p1130
aa(lp1131
V09-11-2016
p1132
aV11
p1133
aV10
p1134
aV45
p1135
aVnr
p1136
aV34
p1137
aVnr
p1138
aVnr
p1139
aV51
p1140
aV64
p1141
aVnr
p1142
aV14
p1143
aVnr
p1144
aV80
p1145
aVnr
p1146
aV26
p1147
aV41
p1148
aVnr
p1149
aV71
p1150
aVnr
p1151
aV66
p1152
aVnr
p1153
aVnr
p1154
aVnr
p1155
aV86
p1156
aV66
p1157
aVnr
p1158
aV33
p1159
aV65
p1160
aVnr
p1161
aV33
p1162
aVnr
p1163
aV52
p1164
aVnr
p1165
aVnr
p1166
aV52
p1167
aVnr
p1168
aVnr
p1169
aVnr
p1170
aV24
p1171
aVnr
p1172
aV71
p1173
aV86
p1174
aV13
p1175
aV42
p1176
aa(lp1177
V09-11-2016
p1178
aV12
p1179
aV11
p1180
aV71
p1181
aVnr
p1182
aV30
p1183
aVnr
p1184
aVnr
p1185
aV36
p1186
aV51
p1187
aVnr
p1188
aV10
p1189
aVnr
p1190
aV57
p1191
aV39
p1192
aV15
p1193
aV38
p1194
aVnr
p1195
aV53
p1196
aVnr
p1197
aV62
p1198
aVnr
p1199
aVnr
p1200
aVnr
p1201
aV64
p1202
aV50
p1203
aVnr
p1204
aVnr
p1205
aV52
p1206
aVnr
p1207
aV27
p1208
aVnr
p1209
aV36
p1210
aVnr
p1211
aVnr
p1212
aV34
p1213
aVnr
p1214
aVnr
p1215
aVnr
p1216
aV21
p1217
aVnr
p1218
aV64
p1219
aV62
p1220
aV11
p1221
aV35
p1222
aasS'rh'
p1223
(lp1224
(lp1225
V08-11-2016
p1226
aV12
p1227
aVnr
p1228
aV60
p1229
aV74
p1230
aVnr
p1231
aV53
p1232
aVnr
p1233
aVnr
p1234
aVnr
p1235
aV53
p1236
aVnr
p1237
aVnr
p1238
aV65
p1239
aV59
p1240
aV44
p1241
aVnr
p1242
aV45
p1243
aVnr
p1244
aVnr
p1245
aVnr
p1246
aVnr
p1247
aVnr
p1248
aV54
p1249
aV53
p1250
aVnr
p1251
aV55
p1252
aV57
p1253
aVnr
p1254
aV42
p1255
aV66
p1256
aVnr
p1257
aVnr
p1258
aVnr
p1259
aVnr
p1260
aV57
p1261
aVnr
p1262
aV47
p1263
aVnr
p1264
aVnr
p1265
aV55
p1266
aV56
p1267
aV53
p1268
aV48
p1269
aa(lp1270
V09-11-2016
p1271
aV11
p1272
aVnr
p1273
aV81
p1274
aV95
p1275
aVnr
p1276
aV80
p1277
aVnr
p1278
aVnr
p1279
aVnr
p1280
aV75
p1281
aVnr
p1282
aVnr
p1283
aV86
p1284
aV90
p1285
aV74
p1286
aV80
p1287
aV72
p1288
aVnr
p1289
aVnr
p1290
aVnr
p1291
aVnr
p1292
aVnr
p1293
aV79
p1294
aV77
p1295
aV86
p1296
aV72
p1297
aV80
p1298
aVnr
p1299
aV67
p1300
aV83
p1301
aVnr
p1302
aVnr
p1303
aVnr
p1304
aVnr
p1305
aV76
p1306
aVnr
p1307
aV72
p1308
aVnr
p1309
aVnr
p1310
aV75
p1311
aV81
p1312
aV76
p1313
aV66
p1314
aa(lp1315
V09-11-2016
p1316
aV12
p1317
aV72
p1318
aV85
p1319
aV86
p1320
aVnr
p1321
aV73
p1322
aVnr
p1323
aVnr
p1324
aVnr
p1325
aV67
p1326
aVnr
p1327
aVnr
p1328
aV84
p1329
aV85
p1330
aV65
p1331
aV73
p1332
aV62
p1333
aVnr
p1334
aVnr
p1335
aVnr
p1336
aVnr
p1337
aVnr
p1338
aV71
p1339
aV68
p1340
aV81
p1341
aV68
p1342
aV78
p1343
aVnr
p1344
aV58
p1345
aV83
p1346
aVnr
p1347
aVnr
p1348
aVnr
p1349
aVnr
p1350
aV73
p1351
aVnr
p1352
aV65
p1353
aVnr
p1354
aVnr
p1355
aV73
p1356
aV74
p1357
aV74
p1358
aV58
p1359
aasS'no2'
p1360
(lp1361
(lp1362
V08-11-2016
p1363
aV12
p1364
aV12
p1365
aV39
p1366
aVnr
p1367
aV19
p1368
aVnr
p1369
aVnr
p1370
aV36
p1371
aV62
p1372
aVnr
p1373
aV13
p1374
aVnr
p1375
aV54
p1376
aV45
p1377
aV13
p1378
aV29
p1379
aVnr
p1380
aV39
p1381
aV50
p1382
aVnr
p1383
aVnr
p1384
aVnr
p1385
aV53
p1386
aV50
p1387
aVnr
p1388
aV25
p1389
aV53
p1390
aVnr
p1391
aV35
p1392
aVnr
p1393
aV43
p1394
aVnr
p1395
aVnr
p1396
aV23
p1397
aVnr
p1398
aVnr
p1399
aV36
p1400
aV23
p1401
aVnr
p1402
aV46
p1403
aV31
p1404
aV19
p1405
aV56
p1406
aa(lp1407
V09-11-2016
p1408
aV11
p1409
aV6
aV26
p1410
aVnr
p1411
aV20
p1412
aVnr
p1413
aVnr
p1414
aV25
p1415
aV33
p1416
aVnr
p1417
aV9
aVnr
p1418
aV35
p1419
aVnr
p1420
aV15
p1421
aV19
p1422
aVnr
p1423
aV28
p1424
aV31
p1425
aVnr
p1426
aVnr
p1427
aVnr
p1428
aV35
p1429
aV29
p1430
aVnr
p1431
aV21
p1432
aV32
p1433
aVnr
p1434
aV16
p1435
aVnr
p1436
aV28
p1437
aVnr
p1438
aVnr
p1439
aV29
p1440
aVnr
p1441
aVnr
p1442
aVnr
p1443
aV13
p1444
aVnr
p1445
aV36
p1446
aV38
p1447
aV7
aV17
p1448
aa(lp1449
V09-11-2016
p1450
aV12
p1451
aV6
aV35
p1452
aVnr
p1453
aV18
p1454
aVnr
p1455
aVnr
p1456
aV20
p1457
aV31
p1458
aVnr
p1459
aV6
aVnr
p1460
aV31
p1461
aV24
p1462
aV9
aV19
p1463
aVnr
p1464
aV26
p1465
aV32
p1466
aVnr
p1467
aVnr
p1468
aVnr
p1469
aV33
p1470
aV26
p1471
aVnr
p1472
aVnr
p1473
aV31
p1474
aVnr
p1475
aV14
p1476
aVnr
p1477
aV22
p1478
aVnr
p1479
aVnr
p1480
aV23
p1481
aVnr
p1482
aVnr
p1483
aVnr
p1484
aV12
p1485
aVnr
p1486
aV36
p1487
aV33
p1488
aV7
aV18
p1489
aas.