(dp1
S'tmp'
p2
(lp3
(lp4
V26-06-2018
p5
aV20
p6
aV17
p7
aV16
p8
aVnr
p9
aVnr
p10
aV16
p11
aVnr
p12
aVnr
p13
aVnr
p14
aV16
p15
aVnr
p16
aVnr
p17
aV12
p18
aVnr
p19
aV14
p20
aV15
p21
aV16
p22
aVnr
p23
aV9
aVnr
p24
aVnr
p25
aVnr
p26
aV16
p27
aV16
p28
aV15
p29
aV15
p30
aV16
p31
aVnr
p32
aV18
p33
aV14
p34
aVnr
p35
aV15
p36
aVnr
p37
aVnr
p38
aV17
p39
aVnr
p40
aV14
p41
aVnr
p42
aVnr
p43
aV18
p44
aVnr
p45
aV16
p46
aV16
p47
aa(lp48
V26-06-2018
p49
aV21
p50
aV17
p51
aV15
p52
aVnr
p53
aVnr
p54
aV17
p55
aVnr
p56
aVnr
p57
aVnr
p58
aV16
p59
aVnr
p60
aVnr
p61
aV13
p62
aVnr
p63
aV14
p64
aV16
p65
aV16
p66
aVnr
p67
aV9
aVnr
p68
aVnr
p69
aVnr
p70
aV16
p71
aV16
p72
aV14
p73
aVnr
p74
aV16
p75
aVnr
p76
aV19
p77
aV14
p78
aVnr
p79
aV15
p80
aVnr
p81
aVnr
p82
aV17
p83
aVnr
p84
aV15
p85
aVnr
p86
aVnr
p87
aV18
p88
aVnr
p89
aV16
p90
aV16
p91
aa(lp92
V26-06-2018
p93
aV22
p94
aV17
p95
aV16
p96
aVnr
p97
aVnr
p98
aV17
p99
aVnr
p100
aVnr
p101
aVnr
p102
aV16
p103
aVnr
p104
aVnr
p105
aV13
p106
aVnr
p107
aV14
p108
aV17
p109
aV16
p110
aVnr
p111
aV9
aVnr
p112
aVnr
p113
aVnr
p114
aV17
p115
aV16
p116
aV14
p117
aV16
p118
aV16
p119
aVnr
p120
aV18
p121
aV14
p122
aVnr
p123
aV16
p124
aVnr
p125
aVnr
p126
aV16
p127
aVnr
p128
aV15
p129
aVnr
p130
aVnr
p131
aV18
p132
aVnr
p133
aV17
p134
aV16
p135
aa(lp136
V26-06-2018
p137
aV23
p138
aV17
p139
aV15
p140
aVnr
p141
aVnr
p142
aV16
p143
aVnr
p144
aVnr
p145
aVnr
p146
aV16
p147
aVnr
p148
aVnr
p149
aV13
p150
aVnr
p151
aV14
p152
aV17
p153
aV16
p154
aVnr
p155
aV9
aVnr
p156
aVnr
p157
aVnr
p158
aV17
p159
aV16
p160
aV14
p161
aV16
p162
aV16
p163
aVnr
p164
aV18
p165
aV14
p166
aVnr
p167
aV15
p168
aVnr
p169
aVnr
p170
aV15
p171
aVnr
p172
aV15
p173
aVnr
p174
aVnr
p175
aV17
p176
aVnr
p177
aV17
p178
aV16
p179
aa(lp180
V26-06-2018
p181
aV24
p182
aV16
p183
aV15
p184
aVnr
p185
aVnr
p186
aV16
p187
aVnr
p188
aVnr
p189
aVnr
p190
aV16
p191
aVnr
p192
aVnr
p193
aV13
p194
aVnr
p195
aV14
p196
aV17
p197
aV16
p198
aVnr
p199
aV9
aVnr
p200
aVnr
p201
aVnr
p202
aV16
p203
aV16
p204
aV13
p205
aV16
p206
aV16
p207
aVnr
p208
aV18
p209
aV13
p210
aVnr
p211
aV15
p212
aVnr
p213
aVnr
p214
aV15
p215
aVnr
p216
aV16
p217
aVnr
p218
aVnr
p219
aV17
p220
aVnr
p221
aV17
p222
aV16
p223
aa(lp224
V27-06-2018
p225
aV1
aV15
p226
aV15
p227
aVnr
p228
aVnr
p229
aV16
p230
aVnr
p231
aVnr
p232
aVnr
p233
aV15
p234
aVnr
p235
aVnr
p236
aV13
p237
aVnr
p238
aV15
p239
aV17
p240
aV16
p241
aVnr
p242
aV8
aVnr
p243
aVnr
p244
aVnr
p245
aV16
p246
aV16
p247
aV13
p248
aV15
p249
aV16
p250
aVnr
p251
aV17
p252
aV13
p253
aVnr
p254
aV15
p255
aVnr
p256
aVnr
p257
aV15
p258
aVnr
p259
aV16
p260
aVnr
p261
aVnr
p262
aV16
p263
aVnr
p264
aV17
p265
aV16
p266
aa(lp267
V27-06-2018
p268
aV2
aV15
p269
aV15
p270
aVnr
p271
aVnr
p272
aV16
p273
aVnr
p274
aVnr
p275
aVnr
p276
aV15
p277
aVnr
p278
aVnr
p279
aV12
p280
aVnr
p281
aV15
p282
aV17
p283
aV16
p284
aVnr
p285
aV9
aVnr
p286
aVnr
p287
aVnr
p288
aV16
p289
aV16
p290
aV13
p291
aV15
p292
aV16
p293
aVnr
p294
aV17
p295
aV13
p296
aVnr
p297
aV15
p298
aVnr
p299
aVnr
p300
aV15
p301
aVnr
p302
aV15
p303
aVnr
p304
aVnr
p305
aV16
p306
aVnr
p307
aV16
p308
aV16
p309
aa(lp310
V27-06-2018
p311
aV3
aV15
p312
aV15
p313
aVnr
p314
aVnr
p315
aV16
p316
aVnr
p317
aVnr
p318
aVnr
p319
aV15
p320
aVnr
p321
aVnr
p322
aV12
p323
aVnr
p324
aV15
p325
aV17
p326
aV16
p327
aVnr
p328
aV8
aVnr
p329
aVnr
p330
aVnr
p331
aV16
p332
aV15
p333
aV13
p334
aV15
p335
aV15
p336
aVnr
p337
aV16
p338
aV13
p339
aVnr
p340
aV15
p341
aVnr
p342
aVnr
p343
aV14
p344
aVnr
p345
aV15
p346
aVnr
p347
aVnr
p348
aV15
p349
aVnr
p350
aV16
p351
aV15
p352
aa(lp353
V27-06-2018
p354
aV4
aV14
p355
aV14
p356
aVnr
p357
aVnr
p358
aV15
p359
aVnr
p360
aVnr
p361
aVnr
p362
aV15
p363
aVnr
p364
aVnr
p365
aV11
p366
aVnr
p367
aV13
p368
aV16
p369
aV15
p370
aVnr
p371
aV8
aVnr
p372
aVnr
p373
aVnr
p374
aV16
p375
aV15
p376
aV12
p377
aV14
p378
aV14
p379
aVnr
p380
aV17
p381
aV12
p382
aVnr
p383
aV15
p384
aVnr
p385
aVnr
p386
aV14
p387
aVnr
p388
aV15
p389
aVnr
p390
aVnr
p391
aV15
p392
aVnr
p393
aV15
p394
aV15
p395
aa(lp396
V27-06-2018
p397
aV5
aV14
p398
aV14
p399
aVnr
p400
aVnr
p401
aV14
p402
aVnr
p403
aVnr
p404
aVnr
p405
aV14
p406
aVnr
p407
aVnr
p408
aV11
p409
aVnr
p410
aV12
p411
aV16
p412
aV15
p413
aVnr
p414
aV7
aVnr
p415
aVnr
p416
aVnr
p417
aV15
p418
aV15
p419
aV12
p420
aVnr
p421
aV13
p422
aVnr
p423
aV16
p424
aV11
p425
aVnr
p426
aV14
p427
aVnr
p428
aVnr
p429
aV13
p430
aVnr
p431
aV14
p432
aVnr
p433
aVnr
p434
aV14
p435
aVnr
p436
aV15
p437
aV15
p438
aa(lp439
V27-06-2018
p440
aV6
aV14
p441
aV13
p442
aVnr
p443
aVnr
p444
aV14
p445
aVnr
p446
aVnr
p447
aVnr
p448
aV13
p449
aVnr
p450
aVnr
p451
aV11
p452
aVnr
p453
aV12
p454
aV16
p455
aV15
p456
aVnr
p457
aV6
aVnr
p458
aVnr
p459
aVnr
p460
aV15
p461
aV14
p462
aV12
p463
aV14
p464
aV13
p465
aVnr
p466
aV17
p467
aV11
p468
aVnr
p469
aV14
p470
aVnr
p471
aVnr
p472
aV13
p473
aVnr
p474
aV14
p475
aVnr
p476
aVnr
p477
aV14
p478
aVnr
p479
aV15
p480
aV15
p481
aa(lp482
V27-06-2018
p483
aV7
aV14
p484
aV13
p485
aVnr
p486
aVnr
p487
aV14
p488
aVnr
p489
aVnr
p490
aVnr
p491
aV13
p492
aVnr
p493
aVnr
p494
aV10
p495
aVnr
p496
aV12
p497
aV15
p498
aV14
p499
aVnr
p500
aV5
aVnr
p501
aVnr
p502
aVnr
p503
aV15
p504
aV14
p505
aV11
p506
aV14
p507
aV13
p508
aVnr
p509
aV15
p510
aV11
p511
aVnr
p512
aV13
p513
aVnr
p514
aVnr
p515
aV13
p516
aVnr
p517
aV14
p518
aVnr
p519
aVnr
p520
aV14
p521
aVnr
p522
aV15
p523
aV15
p524
aa(lp525
V27-06-2018
p526
aV8
aV14
p527
aV14
p528
aVnr
p529
aVnr
p530
aV15
p531
aVnr
p532
aVnr
p533
aVnr
p534
aV15
p535
aVnr
p536
aVnr
p537
aV12
p538
aVnr
p539
aV13
p540
aV16
p541
aV16
p542
aVnr
p543
aV6
aVnr
p544
aVnr
p545
aVnr
p546
aV16
p547
aV15
p548
aV13
p549
aV14
p550
aV14
p551
aVnr
p552
aV16
p553
aV13
p554
aVnr
p555
aV14
p556
aVnr
p557
aVnr
p558
aV14
p559
aVnr
p560
aV14
p561
aVnr
p562
aVnr
p563
aV15
p564
aVnr
p565
aV15
p566
aV15
p567
aa(lp568
V27-06-2018
p569
aV9
aV16
p570
aV15
p571
aVnr
p572
aVnr
p573
aV17
p574
aVnr
p575
aVnr
p576
aVnr
p577
aV17
p578
aVnr
p579
aVnr
p580
aV12
p581
aVnr
p582
aV15
p583
aV18
p584
aV17
p585
aVnr
p586
aV10
p587
aVnr
p588
aVnr
p589
aVnr
p590
aV17
p591
aV16
p592
aV14
p593
aV16
p594
aV17
p595
aVnr
p596
aV17
p597
aV14
p598
aVnr
p599
aV16
p600
aVnr
p601
aVnr
p602
aV16
p603
aVnr
p604
aV16
p605
aVnr
p606
aVnr
p607
aV17
p608
aVnr
p609
aV16
p610
aV17
p611
aa(lp612
V27-06-2018
p613
aV10
p614
aV17
p615
aV17
p616
aVnr
p617
aVnr
p618
aV18
p619
aVnr
p620
aVnr
p621
aVnr
p622
aV19
p623
aVnr
p624
aVnr
p625
aV14
p626
aVnr
p627
aV17
p628
aV18
p629
aV19
p630
aVnr
p631
aV13
p632
aVnr
p633
aVnr
p634
aVnr
p635
aV18
p636
aV17
p637
aV15
p638
aV17
p639
aV18
p640
aVnr
p641
aV19
p642
aV16
p643
aVnr
p644
aV17
p645
aVnr
p646
aVnr
p647
aV18
p648
aVnr
p649
aV18
p650
aVnr
p651
aVnr
p652
aV19
p653
aVnr
p654
aV18
p655
aV18
p656
aa(lp657
V27-06-2018
p658
aV11
p659
aV18
p660
aV18
p661
aVnr
p662
aVnr
p663
aV20
p664
aVnr
p665
aVnr
p666
aVnr
p667
aV20
p668
aVnr
p669
aVnr
p670
aV16
p671
aVnr
p672
aV19
p673
aV21
p674
aV20
p675
aVnr
p676
aV14
p677
aVnr
p678
aVnr
p679
aVnr
p680
aV20
p681
aV19
p682
aV17
p683
aV18
p684
aV19
p685
aVnr
p686
aV21
p687
aV17
p688
aVnr
p689
aV19
p690
aVnr
p691
aVnr
p692
aV20
p693
aVnr
p694
aV19
p695
aVnr
p696
aVnr
p697
aV21
p698
aVnr
p699
aV19
p700
aV19
p701
aa(lp702
V27-06-2018
p703
aV12
p704
aV20
p705
aV19
p706
aVnr
p707
aVnr
p708
aV21
p709
aVnr
p710
aVnr
p711
aVnr
p712
aV22
p713
aVnr
p714
aVnr
p715
aV17
p716
aVnr
p717
aV20
p718
aV22
p719
aV21
p720
aVnr
p721
aV13
p722
aVnr
p723
aVnr
p724
aVnr
p725
aV21
p726
aV21
p727
aV18
p728
aVnr
p729
aV21
p730
aVnr
p731
aV22
p732
aV25
p733
aVnr
p734
aV21
p735
aVnr
p736
aVnr
p737
aV21
p738
aVnr
p739
aV20
p740
aVnr
p741
aVnr
p742
aV23
p743
aVnr
p744
aV21
p745
aV20
p746
aa(lp747
V27-06-2018
p748
aV13
p749
aV21
p750
aV20
p751
aVnr
p752
aVnr
p753
aV23
p754
aVnr
p755
aVnr
p756
aVnr
p757
aV23
p758
aVnr
p759
aVnr
p760
aV19
p761
aVnr
p762
aV22
p763
aV22
p764
aV23
p765
aVnr
p766
aV13
p767
aVnr
p768
aVnr
p769
aVnr
p770
aV22
p771
aV22
p772
aV19
p773
aV21
p774
aV22
p775
aVnr
p776
aV23
p777
aV19
p778
aVnr
p779
aV22
p780
aVnr
p781
aVnr
p782
aV22
p783
aVnr
p784
aV21
p785
aVnr
p786
aVnr
p787
aV24
p788
aVnr
p789
aV23
p790
aV21
p791
aa(lp792
V27-06-2018
p793
aV14
p794
aV22
p795
aV21
p796
aVnr
p797
aVnr
p798
aV24
p799
aVnr
p800
aVnr
p801
aVnr
p802
aV23
p803
aVnr
p804
aVnr
p805
aV20
p806
aVnr
p807
aV23
p808
aV24
p809
aV23
p810
aVnr
p811
aV15
p812
aVnr
p813
aVnr
p814
aVnr
p815
aV23
p816
aV23
p817
aV19
p818
aV22
p819
aV23
p820
aVnr
p821
aV24
p822
aV20
p823
aVnr
p824
aV23
p825
aVnr
p826
aVnr
p827
aV24
p828
aVnr
p829
aV22
p830
aVnr
p831
aVnr
p832
aV25
p833
aVnr
p834
aV23
p835
aV22
p836
aa(lp837
V27-06-2018
p838
aV15
p839
aV23
p840
aV22
p841
aVnr
p842
aVnr
p843
aV24
p844
aVnr
p845
aVnr
p846
aVnr
p847
aV24
p848
aVnr
p849
aVnr
p850
aV20
p851
aVnr
p852
aV23
p853
aV25
p854
aV24
p855
aVnr
p856
aV15
p857
aVnr
p858
aVnr
p859
aVnr
p860
aV23
p861
aV24
p862
aV19
p863
aV22
p864
aV23
p865
aVnr
p866
aV25
p867
aV21
p868
aVnr
p869
aV24
p870
aVnr
p871
aVnr
p872
aV25
p873
aVnr
p874
aV23
p875
aVnr
p876
aVnr
p877
aV25
p878
aVnr
p879
aV24
p880
aV23
p881
aa(lp882
V27-06-2018
p883
aV16
p884
aV22
p885
aV22
p886
aVnr
p887
aVnr
p888
aV24
p889
aVnr
p890
aVnr
p891
aVnr
p892
aV23
p893
aVnr
p894
aVnr
p895
aV20
p896
aVnr
p897
aV23
p898
aV25
p899
aV24
p900
aVnr
p901
aV15
p902
aVnr
p903
aVnr
p904
aVnr
p905
aV24
p906
aV24
p907
aV20
p908
aV23
p909
aV23
p910
aVnr
p911
aV25
p912
aV21
p913
aVnr
p914
aV24
p915
aVnr
p916
aVnr
p917
aV24
p918
aVnr
p919
aV24
p920
aVnr
p921
aVnr
p922
aV24
p923
aVnr
p924
aV24
p925
aV23
p926
aa(lp927
V27-06-2018
p928
aV17
p929
aV18
p930
aV21
p931
aVnr
p932
aVnr
p933
aV23
p934
aVnr
p935
aVnr
p936
aVnr
p937
aV22
p938
aVnr
p939
aVnr
p940
aV19
p941
aVnr
p942
aV23
p943
aV23
p944
aV23
p945
aVnr
p946
aV16
p947
aVnr
p948
aVnr
p949
aVnr
p950
aV23
p951
aV24
p952
aV20
p953
aV22
p954
aV22
p955
aVnr
p956
aV23
p957
aV20
p958
aVnr
p959
aV23
p960
aVnr
p961
aVnr
p962
aV23
p963
aVnr
p964
aV22
p965
aVnr
p966
aVnr
p967
aV23
p968
aVnr
p969
aV21
p970
aV21
p971
aa(lp972
V27-06-2018
p973
aV18
p974
aV19
p975
aV21
p976
aVnr
p977
aVnr
p978
aV22
p979
aVnr
p980
aVnr
p981
aVnr
p982
aV19
p983
aVnr
p984
aVnr
p985
aV19
p986
aVnr
p987
aV21
p988
aV22
p989
aV21
p990
aVnr
p991
aV15
p992
aVnr
p993
aVnr
p994
aVnr
p995
aV21
p996
aV22
p997
aV20
p998
aV20
p999
aV22
p1000
aVnr
p1001
aV22
p1002
aV19
p1003
aVnr
p1004
aV21
p1005
aVnr
p1006
aVnr
p1007
aV23
p1008
aVnr
p1009
aV21
p1010
aVnr
p1011
aVnr
p1012
aV23
p1013
aVnr
p1014
aV21
p1015
aV20
p1016
aa(lp1017
V27-06-2018
p1018
aV19
p1019
aV19
p1020
aV20
p1021
aVnr
p1022
aVnr
p1023
aV21
p1024
aVnr
p1025
aVnr
p1026
aVnr
p1027
aV18
p1028
aVnr
p1029
aVnr
p1030
aV17
p1031
aVnr
p1032
aV21
p1033
aV21
p1034
aV20
p1035
aVnr
p1036
aV14
p1037
aVnr
p1038
aVnr
p1039
aVnr
p1040
aV21
p1041
aV20
p1042
aV18
p1043
aV20
p1044
aV21
p1045
aVnr
p1046
aV22
p1047
aV18
p1048
aVnr
p1049
aV20
p1050
aVnr
p1051
aVnr
p1052
aV20
p1053
aVnr
p1054
aV20
p1055
aVnr
p1056
aVnr
p1057
aV22
p1058
aVnr
p1059
aV20
p1060
aV20
p1061
aasS'co'
p1062
(lp1063
(lp1064
V26-06-2018
p1065
aV20
p1066
aV0.5
p1067
aV0.4
p1068
aVnr
p1069
aVnr
p1070
aV0.4
p1071
aVnr
p1072
aV0.9
p1073
aV1.0
p1074
aV0.4
p1075
aVnr
p1076
aV0.7
p1077
aVnr
p1078
aVnr
p1079
aV0.7
p1080
aVnr
p1081
aV0.6
p1082
aVnr
p1083
aV0.8
p1084
aVnr
p1085
aV0.4
p1086
aV1.0
p1087
aVnr
p1088
aV0.9
p1089
aV1.4
p1090
aV1.0
p1091
aV0.8
p1092
aV0.5
p1093
aV1.3
p1094
aV0.7
p1095
aVnr
p1096
aV0.3
p1097
aV0.5
p1098
aVnr
p1099
aVnr
p1100
aVnr
p1101
aV0.5
p1102
aVnr
p1103
aVnr
p1104
aV1.1
p1105
aV0.9
p1106
aVnr
p1107
aV0.8
p1108
aV0.9
p1109
aVnr
p1110
aV0.6
p1111
aV1.1
p1112
aa(lp1113
V26-06-2018
p1114
aV21
p1115
aV0.5
p1116
aV0.6
p1117
aVnr
p1118
aVnr
p1119
aV0.4
p1120
aVnr
p1121
aV1.0
p1122
aV1.2
p1123
aV0.6
p1124
aVnr
p1125
aV0.9
p1126
aVnr
p1127
aVnr
p1128
aV0.8
p1129
aVnr
p1130
aV0.9
p1131
aVnr
p1132
aV0.8
p1133
aVnr
p1134
aV0.3
p1135
aV1.1
p1136
aVnr
p1137
aV1.0
p1138
aV1.4
p1139
aV0.9
p1140
aV0.8
p1141
aV0.5
p1142
aVnr
p1143
aV0.8
p1144
aVnr
p1145
aV0.8
p1146
aV0.6
p1147
aVnr
p1148
aVnr
p1149
aVnr
p1150
aV0.7
p1151
aVnr
p1152
aVnr
p1153
aV1.0
p1154
aV0.9
p1155
aVnr
p1156
aV0.8
p1157
aV0.9
p1158
aVnr
p1159
aV0.4
p1160
aVnr
p1161
aa(lp1162
V26-06-2018
p1163
aV22
p1164
aV0.4
p1165
aV0.7
p1166
aVnr
p1167
aVnr
p1168
aV0.4
p1169
aVnr
p1170
aV0.9
p1171
aV1.1
p1172
aV0.7
p1173
aVnr
p1174
aV0.9
p1175
aVnr
p1176
aVnr
p1177
aV0.9
p1178
aVnr
p1179
aV0.8
p1180
aVnr
p1181
aV0.8
p1182
aVnr
p1183
aV0.2
p1184
aV1.1
p1185
aVnr
p1186
aV0.6
p1187
aV0.8
p1188
aV1.2
p1189
aV0.9
p1190
aV0.6
p1191
aV1.2
p1192
aV0.8
p1193
aVnr
p1194
aV0.6
p1195
aV0.5
p1196
aVnr
p1197
aVnr
p1198
aVnr
p1199
aV0.6
p1200
aVnr
p1201
aVnr
p1202
aV0.9
p1203
aV0.9
p1204
aVnr
p1205
aV0.9
p1206
aV1.0
p1207
aVnr
p1208
aV0.5
p1209
aV1.6
p1210
aa(lp1211
V26-06-2018
p1212
aV23
p1213
aV0.1
p1214
aV0.8
p1215
aVnr
p1216
aVnr
p1217
aV1.2
p1218
aVnr
p1219
aV1.1
p1220
aV1.2
p1221
aV0.8
p1222
aVnr
p1223
aV1.0
p1224
aVnr
p1225
aVnr
p1226
aV0.9
p1227
aVnr
p1228
aV0.8
p1229
aVnr
p1230
aV0.9
p1231
aVnr
p1232
aV0.2
p1233
aV1.1
p1234
aVnr
p1235
aV0.5
p1236
aV0.9
p1237
aV1.2
p1238
aV1.0
p1239
aV0.5
p1240
aV1.1
p1241
aV0.7
p1242
aVnr
p1243
aV0.4
p1244
aV0.4
p1245
aVnr
p1246
aVnr
p1247
aVnr
p1248
aV0.5
p1249
aVnr
p1250
aVnr
p1251
aV1.0
p1252
aV0.9
p1253
aVnr
p1254
aV0.9
p1255
aV0.8
p1256
aVnr
p1257
aV0.5
p1258
aV1.3
p1259
aa(lp1260
V26-06-2018
p1261
aV24
p1262
aV0.7
p1263
aV0.5
p1264
aVnr
p1265
aVnr
p1266
aV0.8
p1267
aVnr
p1268
aV1.1
p1269
aV1.0
p1270
aV0.9
p1271
aVnr
p1272
aV0.7
p1273
aVnr
p1274
aVnr
p1275
aV0.9
p1276
aVnr
p1277
aV0.6
p1278
aVnr
p1279
aV0.8
p1280
aVnr
p1281
aV0.2
p1282
aV1.0
p1283
aVnr
p1284
aV1.2
p1285
aV0.9
p1286
aV1.2
p1287
aV1.0
p1288
aV0.4
p1289
aV1.0
p1290
aV0.8
p1291
aVnr
p1292
aV0.6
p1293
aV0.4
p1294
aVnr
p1295
aVnr
p1296
aVnr
p1297
aV0.5
p1298
aVnr
p1299
aVnr
p1300
aV0.8
p1301
aV0.8
p1302
aVnr
p1303
aV1.0
p1304
aV0.8
p1305
aVnr
p1306
aV0.5
p1307
aV1.2
p1308
aa(lp1309
V27-06-2018
p1310
aV1
aV0.6
p1311
aV0.6
p1312
aVnr
p1313
aVnr
p1314
aV0.3
p1315
aVnr
p1316
aV1.2
p1317
aV0.7
p1318
aV0.9
p1319
aVnr
p1320
aV0.5
p1321
aVnr
p1322
aVnr
p1323
aV0.7
p1324
aVnr
p1325
aV0.5
p1326
aVnr
p1327
aV0.5
p1328
aVnr
p1329
aV0.2
p1330
aV1.2
p1331
aVnr
p1332
aV0.9
p1333
aV0.9
p1334
aV0.9
p1335
aV0.8
p1336
aV0.4
p1337
aV0.9
p1338
aV0.7
p1339
aVnr
p1340
aV0.5
p1341
aV0.4
p1342
aVnr
p1343
aVnr
p1344
aVnr
p1345
aV0.4
p1346
aVnr
p1347
aVnr
p1348
aV0.5
p1349
aV0.6
p1350
aVnr
p1351
aV1.0
p1352
aV0.7
p1353
aVnr
p1354
aV0.4
p1355
aV1.1
p1356
aa(lp1357
V27-06-2018
p1358
aV2
aV0.6
p1359
aV0.3
p1360
aVnr
p1361
aVnr
p1362
aV0.3
p1363
aVnr
p1364
aV1.2
p1365
aV0.6
p1366
aV0.7
p1367
aVnr
p1368
aV0.4
p1369
aVnr
p1370
aVnr
p1371
aV0.6
p1372
aVnr
p1373
aV0.4
p1374
aVnr
p1375
aV0.4
p1376
aVnr
p1377
aV0.2
p1378
aV1.1
p1379
aVnr
p1380
aV0.9
p1381
aV0.8
p1382
aV0.8
p1383
aV0.5
p1384
aV0.3
p1385
aV0.8
p1386
aV0.8
p1387
aVnr
p1388
aV0.6
p1389
aV0.4
p1390
aVnr
p1391
aVnr
p1392
aVnr
p1393
aV0.4
p1394
aVnr
p1395
aVnr
p1396
aV0.5
p1397
aV0.6
p1398
aVnr
p1399
aV0.9
p1400
aV0.7
p1401
aVnr
p1402
aV0.2
p1403
aV0.9
p1404
aa(lp1405
V27-06-2018
p1406
aV3
aV0.6
p1407
aV0.2
p1408
aVnr
p1409
aVnr
p1410
aV0.3
p1411
aVnr
p1412
aV0.6
p1413
aV0.5
p1414
aV0.5
p1415
aVnr
p1416
aV0.4
p1417
aVnr
p1418
aVnr
p1419
aV0.6
p1420
aVnr
p1421
aV0.3
p1422
aVnr
p1423
aV0.3
p1424
aVnr
p1425
aV0.2
p1426
aV1.1
p1427
aVnr
p1428
aV0.8
p1429
aV0.7
p1430
aV0.6
p1431
aV0.5
p1432
aV0.3
p1433
aV0.8
p1434
aV0.5
p1435
aVnr
p1436
aV0.4
p1437
aV0.3
p1438
aVnr
p1439
aVnr
p1440
aVnr
p1441
aV0.3
p1442
aVnr
p1443
aVnr
p1444
aV0.3
p1445
aV0.5
p1446
aVnr
p1447
aV0.9
p1448
aV0.8
p1449
aVnr
p1450
aV0.2
p1451
aV1.1
p1452
aa(lp1453
V27-06-2018
p1454
aV4
aV0.5
p1455
aV0.2
p1456
aVnr
p1457
aVnr
p1458
aV0.3
p1459
aVnr
p1460
aV0.9
p1461
aV0.5
p1462
aV0.5
p1463
aVnr
p1464
aV0.4
p1465
aVnr
p1466
aVnr
p1467
aV0.6
p1468
aVnr
p1469
aV0.5
p1470
aVnr
p1471
aV0.3
p1472
aVnr
p1473
aV0.2
p1474
aV1.1
p1475
aVnr
p1476
aV0.8
p1477
aV0.8
p1478
aV0.7
p1479
aV0.8
p1480
aV0.2
p1481
aV0.8
p1482
aV0.3
p1483
aVnr
p1484
aV0.3
p1485
aV0.4
p1486
aVnr
p1487
aVnr
p1488
aVnr
p1489
aV0.3
p1490
aVnr
p1491
aVnr
p1492
aV0.6
p1493
aV0.5
p1494
aVnr
p1495
aV0.8
p1496
aV0.7
p1497
aVnr
p1498
aV0.2
p1499
aV1.0
p1500
aa(lp1501
V27-06-2018
p1502
aV5
aV0.3
p1503
aV0.3
p1504
aVnr
p1505
aVnr
p1506
aVnr
p1507
aVnr
p1508
aV0.9
p1509
aV0.7
p1510
aV0.2
p1511
aVnr
p1512
aV0.4
p1513
aVnr
p1514
aVnr
p1515
aV0.6
p1516
aVnr
p1517
aV0.5
p1518
aVnr
p1519
aV0.4
p1520
aVnr
p1521
aV0.2
p1522
aV1.2
p1523
aVnr
p1524
aV0.7
p1525
aV0.8
p1526
aV0.9
p1527
aV1.2
p1528
aV0.1
p1529
aVnr
p1530
aV0.4
p1531
aVnr
p1532
aV0.3
p1533
aV0.5
p1534
aVnr
p1535
aVnr
p1536
aVnr
p1537
aV0.4
p1538
aVnr
p1539
aVnr
p1540
aV0.6
p1541
aV0.7
p1542
aVnr
p1543
aV0.7
p1544
aV0.8
p1545
aVnr
p1546
aV0.3
p1547
aVnr
p1548
aa(lp1549
V27-06-2018
p1550
aV6
aV0.4
p1551
aV0.3
p1552
aVnr
p1553
aVnr
p1554
aV0.5
p1555
aVnr
p1556
aV1.1
p1557
aV1.0
p1558
aV0.2
p1559
aVnr
p1560
aV0.8
p1561
aVnr
p1562
aVnr
p1563
aV0.9
p1564
aVnr
p1565
aV1.2
p1566
aVnr
p1567
aV0.6
p1568
aVnr
p1569
aV0.1
p1570
aV1.5
p1571
aVnr
p1572
aV0.8
p1573
aV0.9
p1574
aV1.2
p1575
aV1.6
p1576
aV0.2
p1577
aV1.3
p1578
aV0.6
p1579
aVnr
p1580
aV0.6
p1581
aV0.7
p1582
aVnr
p1583
aVnr
p1584
aVnr
p1585
aV0.5
p1586
aVnr
p1587
aVnr
p1588
aV1.0
p1589
aV1.1
p1590
aVnr
p1591
aV0.9
p1592
aV1.2
p1593
aVnr
p1594
aV0.4
p1595
aV1.5
p1596
aa(lp1597
V27-06-2018
p1598
aV7
aV0.9
p1599
aV0.4
p1600
aVnr
p1601
aVnr
p1602
aV0.8
p1603
aVnr
p1604
aV1.9
p1605
aV1.5
p1606
aV0.7
p1607
aVnr
p1608
aV0.7
p1609
aVnr
p1610
aVnr
p1611
aV1.8
p1612
aVnr
p1613
aV2.2
p1614
aVnr
p1615
aV0.8
p1616
aVnr
p1617
aV0.1
p1618
aV1.9
p1619
aVnr
p1620
aV0.7
p1621
aV1.7
p1622
aV1.5
p1623
aV1.6
p1624
aV0.3
p1625
aV1.8
p1626
aV0.6
p1627
aVnr
p1628
aV0.5
p1629
aV0.7
p1630
aVnr
p1631
aVnr
p1632
aVnr
p1633
aV0.6
p1634
aVnr
p1635
aVnr
p1636
aV1.7
p1637
aV1.5
p1638
aVnr
p1639
aV1.4
p1640
aV1.5
p1641
aVnr
p1642
aV0.8
p1643
aV1.7
p1644
aa(lp1645
V27-06-2018
p1646
aV8
aV1.0
p1647
aV0.6
p1648
aVnr
p1649
aVnr
p1650
aV1.1
p1651
aVnr
p1652
aV1.3
p1653
aV1.6
p1654
aV0.9
p1655
aVnr
p1656
aV0.7
p1657
aVnr
p1658
aVnr
p1659
aV1.0
p1660
aVnr
p1661
aV1.4
p1662
aVnr
p1663
aV1.6
p1664
aVnr
p1665
aV0.2
p1666
aV1.4
p1667
aVnr
p1668
aV0.8
p1669
aV1.5
p1670
aV1.8
p1671
aV1.5
p1672
aV0.2
p1673
aV1.4
p1674
aV0.8
p1675
aVnr
p1676
aV0.6
p1677
aV0.7
p1678
aVnr
p1679
aVnr
p1680
aVnr
p1681
aV0.6
p1682
aVnr
p1683
aVnr
p1684
aV1.5
p1685
aV1.5
p1686
aVnr
p1687
aV1.0
p1688
aV1.4
p1689
aVnr
p1690
aV1.0
p1691
aV1.3
p1692
aa(lp1693
V27-06-2018
p1694
aV9
aV0.5
p1695
aV0.6
p1696
aVnr
p1697
aVnr
p1698
aV0.5
p1699
aVnr
p1700
aV1.1
p1701
aV1.3
p1702
aV0.5
p1703
aVnr
p1704
aV0.3
p1705
aVnr
p1706
aVnr
p1707
aV0.7
p1708
aVnr
p1709
aV0.6
p1710
aVnr
p1711
aV1.0
p1712
aVnr
p1713
aV0.2
p1714
aV1.0
p1715
aVnr
p1716
aV0.9
p1717
aV1.3
p1718
aV1.6
p1719
aV0.8
p1720
aV0.2
p1721
aV1.1
p1722
aV0.8
p1723
aVnr
p1724
aV0.7
p1725
aV0.7
p1726
aVnr
p1727
aVnr
p1728
aVnr
p1729
aV0.4
p1730
aVnr
p1731
aVnr
p1732
aV0.9
p1733
aV1.2
p1734
aVnr
p1735
aV0.7
p1736
aV1.0
p1737
aVnr
p1738
aV0.8
p1739
aV0.9
p1740
aa(lp1741
V27-06-2018
p1742
aV10
p1743
aV0.3
p1744
aV0.6
p1745
aVnr
p1746
aVnr
p1747
aV0.4
p1748
aVnr
p1749
aV0.9
p1750
aV0.9
p1751
aV0.5
p1752
aVnr
p1753
aV0.2
p1754
aVnr
p1755
aVnr
p1756
aV0.7
p1757
aVnr
p1758
aV0.7
p1759
aVnr
p1760
aV0.7
p1761
aVnr
p1762
aV0.2
p1763
aV1.0
p1764
aVnr
p1765
aV0.8
p1766
aV1.1
p1767
aV1.3
p1768
aV0.7
p1769
aV0.4
p1770
aV1.1
p1771
aV0.8
p1772
aVnr
p1773
aV0.3
p1774
aV0.4
p1775
aVnr
p1776
aVnr
p1777
aVnr
p1778
aV0.4
p1779
aVnr
p1780
aVnr
p1781
aV0.8
p1782
aV1.0
p1783
aVnr
p1784
aV0.5
p1785
aV0.8
p1786
aVnr
p1787
aV0.4
p1788
aV1.0
p1789
aa(lp1790
V27-06-2018
p1791
aV11
p1792
aV0.5
p1793
aV0.6
p1794
aVnr
p1795
aVnr
p1796
aV0.4
p1797
aVnr
p1798
aV0.7
p1799
aV0.7
p1800
aV0.4
p1801
aVnr
p1802
aV0.2
p1803
aVnr
p1804
aVnr
p1805
aV0.7
p1806
aVnr
p1807
aV0.5
p1808
aVnr
p1809
aV0.6
p1810
aVnr
p1811
aV0.3
p1812
aV1.1
p1813
aVnr
p1814
aV0.7
p1815
aV0.9
p1816
aV1.2
p1817
aV0.7
p1818
aV0.3
p1819
aV1.1
p1820
aV0.6
p1821
aVnr
p1822
aV0.2
p1823
aV0.4
p1824
aVnr
p1825
aVnr
p1826
aVnr
p1827
aV0.1
p1828
aVnr
p1829
aVnr
p1830
aV0.7
p1831
aV0.8
p1832
aVnr
p1833
aV0.5
p1834
aV0.6
p1835
aVnr
p1836
aV0.3
p1837
aV1.0
p1838
aa(lp1839
V27-06-2018
p1840
aV12
p1841
aV0.3
p1842
aV0.5
p1843
aVnr
p1844
aVnr
p1845
aV0.5
p1846
aVnr
p1847
aV0.8
p1848
aV0.8
p1849
aV0.3
p1850
aVnr
p1851
aV0.1
p1852
aVnr
p1853
aVnr
p1854
aV0.7
p1855
aVnr
p1856
aVnr
p1857
aVnr
p1858
aV0.7
p1859
aVnr
p1860
aV0.3
p1861
aV0.9
p1862
aVnr
p1863
aV0.6
p1864
aV1.2
p1865
aV1.2
p1866
aV0.6
p1867
aV0.2
p1868
aVnr
p1869
aV0.5
p1870
aVnr
p1871
aV0.1
p1872
aV0.5
p1873
aVnr
p1874
aVnr
p1875
aVnr
p1876
aV0.0
p1877
aVnr
p1878
aVnr
p1879
aV0.7
p1880
aVnr
p1881
aVnr
p1882
aV0.5
p1883
aV0.4
p1884
aVnr
p1885
aV0.3
p1886
aV0.8
p1887
aa(lp1888
V27-06-2018
p1889
aV13
p1890
aV0.3
p1891
aV0.5
p1892
aVnr
p1893
aVnr
p1894
aV0.5
p1895
aVnr
p1896
aV0.7
p1897
aV0.8
p1898
aV0.3
p1899
aVnr
p1900
aV0.2
p1901
aVnr
p1902
aVnr
p1903
aV0.7
p1904
aVnr
p1905
aVnr
p1906
aVnr
p1907
aV0.6
p1908
aVnr
p1909
aV0.3
p1910
aV0.7
p1911
aVnr
p1912
aV0.5
p1913
aV0.9
p1914
aV1.2
p1915
aV0.8
p1916
aV0.2
p1917
aV0.8
p1918
aV0.5
p1919
aVnr
p1920
aV0.0
p1921
aV0.5
p1922
aVnr
p1923
aVnr
p1924
aVnr
p1925
aV0.0
p1926
aVnr
p1927
aVnr
p1928
aV0.8
p1929
aVnr
p1930
aVnr
p1931
aV0.3
p1932
aV0.3
p1933
aVnr
p1934
aV0.3
p1935
aV0.6
p1936
aa(lp1937
V27-06-2018
p1938
aV14
p1939
aV0.2
p1940
aV0.4
p1941
aVnr
p1942
aVnr
p1943
aV0.5
p1944
aVnr
p1945
aV0.7
p1946
aV0.8
p1947
aV0.2
p1948
aVnr
p1949
aV0.2
p1950
aVnr
p1951
aVnr
p1952
aV0.7
p1953
aVnr
p1954
aVnr
p1955
aVnr
p1956
aV0.5
p1957
aVnr
p1958
aV0.3
p1959
aV0.9
p1960
aVnr
p1961
aV0.5
p1962
aV0.7
p1963
aV1.0
p1964
aV0.8
p1965
aV0.2
p1966
aV0.6
p1967
aV0.4
p1968
aVnr
p1969
aV0.1
p1970
aV0.5
p1971
aVnr
p1972
aVnr
p1973
aVnr
p1974
aV0.0
p1975
aVnr
p1976
aVnr
p1977
aV0.7
p1978
aVnr
p1979
aVnr
p1980
aV0.3
p1981
aV0.5
p1982
aVnr
p1983
aV0.2
p1984
aV0.6
p1985
aa(lp1986
V27-06-2018
p1987
aV15
p1988
aV0.2
p1989
aV0.3
p1990
aVnr
p1991
aVnr
p1992
aV0.4
p1993
aVnr
p1994
aV0.8
p1995
aV0.7
p1996
aV0.3
p1997
aVnr
p1998
aV0.2
p1999
aVnr
p2000
aVnr
p2001
aV0.7
p2002
aVnr
p2003
aV0.7
p2004
aVnr
p2005
aV0.4
p2006
aVnr
p2007
aV0.2
p2008
aV0.9
p2009
aVnr
p2010
aV0.5
p2011
aV0.5
p2012
aV0.7
p2013
aV0.8
p2014
aV0.2
p2015
aV0.5
p2016
aV0.4
p2017
aVnr
p2018
aV0.1
p2019
aV0.5
p2020
aVnr
p2021
aVnr
p2022
aVnr
p2023
aV0.0
p2024
aVnr
p2025
aVnr
p2026
aV0.7
p2027
aVnr
p2028
aVnr
p2029
aV0.5
p2030
aV0.5
p2031
aVnr
p2032
aV0.2
p2033
aV0.5
p2034
aa(lp2035
V27-06-2018
p2036
aV16
p2037
aV0.2
p2038
aV0.4
p2039
aVnr
p2040
aVnr
p2041
aV0.4
p2042
aVnr
p2043
aV0.7
p2044
aV0.7
p2045
aV0.4
p2046
aVnr
p2047
aV0.2
p2048
aVnr
p2049
aVnr
p2050
aV0.8
p2051
aVnr
p2052
aV0.6
p2053
aVnr
p2054
aV0.4
p2055
aVnr
p2056
aV0.2
p2057
aV0.7
p2058
aVnr
p2059
aV0.4
p2060
aV0.5
p2061
aV0.6
p2062
aV0.8
p2063
aV0.2
p2064
aV0.6
p2065
aV0.5
p2066
aVnr
p2067
aV0.1
p2068
aV0.6
p2069
aVnr
p2070
aVnr
p2071
aVnr
p2072
aV0.0
p2073
aVnr
p2074
aVnr
p2075
aV0.7
p2076
aV0.2
p2077
aVnr
p2078
aV0.4
p2079
aV0.4
p2080
aVnr
p2081
aV0.2
p2082
aV0.5
p2083
aa(lp2084
V27-06-2018
p2085
aV17
p2086
aV0.2
p2087
aV0.4
p2088
aVnr
p2089
aVnr
p2090
aV0.5
p2091
aVnr
p2092
aV0.6
p2093
aV0.7
p2094
aV0.2
p2095
aVnr
p2096
aV0.2
p2097
aVnr
p2098
aVnr
p2099
aV0.7
p2100
aVnr
p2101
aV0.7
p2102
aVnr
p2103
aV0.4
p2104
aVnr
p2105
aV0.3
p2106
aV0.7
p2107
aVnr
p2108
aV0.4
p2109
aV0.5
p2110
aV0.7
p2111
aV0.7
p2112
aV0.2
p2113
aV0.6
p2114
aV0.4
p2115
aVnr
p2116
aV0.1
p2117
aV0.5
p2118
aVnr
p2119
aVnr
p2120
aVnr
p2121
aV0.0
p2122
aVnr
p2123
aVnr
p2124
aV0.8
p2125
aV0.3
p2126
aVnr
p2127
aV0.4
p2128
aV0.4
p2129
aVnr
p2130
aV0.3
p2131
aV0.6
p2132
aa(lp2133
V27-06-2018
p2134
aV18
p2135
aV0.2
p2136
aV0.4
p2137
aVnr
p2138
aVnr
p2139
aV0.5
p2140
aVnr
p2141
aV0.6
p2142
aV0.7
p2143
aV0.2
p2144
aVnr
p2145
aV0.2
p2146
aVnr
p2147
aVnr
p2148
aV0.7
p2149
aVnr
p2150
aV0.9
p2151
aVnr
p2152
aV0.3
p2153
aVnr
p2154
aV0.3
p2155
aV0.8
p2156
aVnr
p2157
aV0.5
p2158
aV0.4
p2159
aV0.7
p2160
aV0.8
p2161
aV0.2
p2162
aV0.7
p2163
aV0.4
p2164
aVnr
p2165
aV0.1
p2166
aV0.5
p2167
aVnr
p2168
aVnr
p2169
aVnr
p2170
aV0.0
p2171
aVnr
p2172
aVnr
p2173
aV0.7
p2174
aV0.3
p2175
aVnr
p2176
aV0.4
p2177
aV0.4
p2178
aVnr
p2179
aV0.2
p2180
aV0.6
p2181
aa(lp2182
V27-06-2018
p2183
aV19
p2184
aV0.3
p2185
aV0.5
p2186
aVnr
p2187
aVnr
p2188
aV0.5
p2189
aVnr
p2190
aV0.6
p2191
aV0.7
p2192
aV0.3
p2193
aVnr
p2194
aV0.5
p2195
aVnr
p2196
aVnr
p2197
aV0.8
p2198
aVnr
p2199
aV0.7
p2200
aVnr
p2201
aV0.3
p2202
aVnr
p2203
aV0.3
p2204
aV0.8
p2205
aVnr
p2206
aV0.4
p2207
aV0.5
p2208
aV0.6
p2209
aV1.0
p2210
aV0.2
p2211
aV0.8
p2212
aV0.5
p2213
aVnr
p2214
aV0.1
p2215
aV0.5
p2216
aVnr
p2217
aVnr
p2218
aVnr
p2219
aV0.0
p2220
aVnr
p2221
aVnr
p2222
aV0.8
p2223
aV0.3
p2224
aVnr
p2225
aV0.4
p2226
aV0.5
p2227
aVnr
p2228
aV0.2
p2229
aV0.7
p2230
aasS'pm2'
p2231
(lp2232
(lp2233
V26-06-2018
p2234
aV20
p2235
aVnr
p2236
aV15
p2237
aVnr
p2238
aVnr
p2239
aV31
p2240
aV25
p2241
aV36
p2242
aV15
p2243
aVnr
p2244
aVnr
p2245
aVnr
p2246
aVnr
p2247
aVnr
p2248
aV19
p2249
aV25
p2250
aVnr
p2251
aVnr
p2252
aVnr
p2253
aVnr
p2254
aV32
p2255
aV32
p2256
aVnr
p2257
aV19
p2258
aVnr
p2259
aV14
p2260
aV25
p2261
aVnr
p2262
aVnr
p2263
aVnr
p2264
aVnr
p2265
aVnr
p2266
aVnr
p2267
aVnr
p2268
aV25
p2269
aV33
p2270
aVnr
p2271
aV20
p2272
aa(lp2273
V26-06-2018
p2274
aV21
p2275
aVnr
p2276
aV11
p2277
aVnr
p2278
aVnr
p2279
aV25
p2280
aV14
p2281
aV10
p2282
aV19
p2283
aVnr
p2284
aVnr
p2285
aVnr
p2286
aVnr
p2287
aVnr
p2288
aV23
p2289
aV28
p2290
aVnr
p2291
aVnr
p2292
aVnr
p2293
aVnr
p2294
aV22
p2295
aV18
p2296
aVnr
p2297
aVnr
p2298
aVnr
p2299
aV14
p2300
aV14
p2301
aVnr
p2302
aVnr
p2303
aVnr
p2304
aVnr
p2305
aVnr
p2306
aVnr
p2307
aVnr
p2308
aV27
p2309
aV28
p2310
aVnr
p2311
aVnr
p2312
aa(lp2313
V26-06-2018
p2314
aV22
p2315
aVnr
p2316
aV21
p2317
aVnr
p2318
aVnr
p2319
aV22
p2320
aV16
p2321
aV14
p2322
aV23
p2323
aVnr
p2324
aVnr
p2325
aVnr
p2326
aVnr
p2327
aVnr
p2328
aV20
p2329
aV19
p2330
aVnr
p2331
aVnr
p2332
aVnr
p2333
aVnr
p2334
aV9
aV23
p2335
aVnr
p2336
aV11
p2337
aVnr
p2338
aV22
p2339
aV14
p2340
aVnr
p2341
aVnr
p2342
aVnr
p2343
aVnr
p2344
aVnr
p2345
aVnr
p2346
aVnr
p2347
aV22
p2348
aV11
p2349
aVnr
p2350
aV34
p2351
aa(lp2352
V26-06-2018
p2353
aV23
p2354
aVnr
p2355
aV19
p2356
aVnr
p2357
aVnr
p2358
aV19
p2359
aV16
p2360
aV16
p2361
aV24
p2362
aVnr
p2363
aVnr
p2364
aVnr
p2365
aVnr
p2366
aVnr
p2367
aV19
p2368
aV18
p2369
aVnr
p2370
aVnr
p2371
aVnr
p2372
aVnr
p2373
aV15
p2374
aV21
p2375
aVnr
p2376
aV9
aVnr
p2377
aV16
p2378
aV18
p2379
aVnr
p2380
aVnr
p2381
aVnr
p2382
aVnr
p2383
aVnr
p2384
aVnr
p2385
aVnr
p2386
aV23
p2387
aV14
p2388
aVnr
p2389
aV48
p2390
aa(lp2391
V26-06-2018
p2392
aV24
p2393
aVnr
p2394
aV27
p2395
aVnr
p2396
aVnr
p2397
aV23
p2398
aV19
p2399
aV20
p2400
aV29
p2401
aVnr
p2402
aVnr
p2403
aVnr
p2404
aVnr
p2405
aVnr
p2406
aV17
p2407
aV14
p2408
aVnr
p2409
aVnr
p2410
aVnr
p2411
aVnr
p2412
aV17
p2413
aV18
p2414
aVnr
p2415
aV13
p2416
aVnr
p2417
aV14
p2418
aV12
p2419
aVnr
p2420
aVnr
p2421
aVnr
p2422
aVnr
p2423
aVnr
p2424
aVnr
p2425
aVnr
p2426
aV32
p2427
aV19
p2428
aVnr
p2429
aV31
p2430
aa(lp2431
V27-06-2018
p2432
aV1
aVnr
p2433
aV19
p2434
aVnr
p2435
aVnr
p2436
aV25
p2437
aV15
p2438
aVnr
p2439
aV14
p2440
aVnr
p2441
aVnr
p2442
aVnr
p2443
aVnr
p2444
aVnr
p2445
aV19
p2446
aV18
p2447
aVnr
p2448
aVnr
p2449
aVnr
p2450
aVnr
p2451
aV20
p2452
aV24
p2453
aVnr
p2454
aVnr
p2455
aVnr
p2456
aV20
p2457
aV10
p2458
aVnr
p2459
aVnr
p2460
aVnr
p2461
aVnr
p2462
aVnr
p2463
aVnr
p2464
aVnr
p2465
aVnr
p2466
aV18
p2467
aVnr
p2468
aV28
p2469
aa(lp2470
V27-06-2018
p2471
aV2
aVnr
p2472
aV23
p2473
aVnr
p2474
aVnr
p2475
aV24
p2476
aV17
p2477
aV19
p2478
aV18
p2479
aVnr
p2480
aVnr
p2481
aVnr
p2482
aVnr
p2483
aVnr
p2484
aV20
p2485
aV16
p2486
aVnr
p2487
aVnr
p2488
aVnr
p2489
aVnr
p2490
aV18
p2491
aV18
p2492
aVnr
p2493
aV14
p2494
aVnr
p2495
aV21
p2496
aV12
p2497
aVnr
p2498
aVnr
p2499
aVnr
p2500
aVnr
p2501
aVnr
p2502
aVnr
p2503
aVnr
p2504
aV32
p2505
aV20
p2506
aVnr
p2507
aV24
p2508
aa(lp2509
V27-06-2018
p2510
aV3
aVnr
p2511
aV3
aVnr
p2512
aVnr
p2513
aV30
p2514
aV14
p2515
aV34
p2516
aV19
p2517
aVnr
p2518
aVnr
p2519
aVnr
p2520
aVnr
p2521
aVnr
p2522
aV17
p2523
aV11
p2524
aVnr
p2525
aVnr
p2526
aVnr
p2527
aVnr
p2528
aV12
p2529
aV13
p2530
aVnr
p2531
aV21
p2532
aVnr
p2533
aV32
p2534
aV8
aVnr
p2535
aVnr
p2536
aVnr
p2537
aVnr
p2538
aVnr
p2539
aVnr
p2540
aVnr
p2541
aV32
p2542
aV28
p2543
aVnr
p2544
aV27
p2545
aa(lp2546
V27-06-2018
p2547
aV4
aVnr
p2548
aV3
aVnr
p2549
aVnr
p2550
aV17
p2551
aV14
p2552
aV31
p2553
aV14
p2554
aVnr
p2555
aVnr
p2556
aVnr
p2557
aVnr
p2558
aVnr
p2559
aV18
p2560
aV14
p2561
aVnr
p2562
aVnr
p2563
aVnr
p2564
aVnr
p2565
aV18
p2566
aV14
p2567
aVnr
p2568
aV30
p2569
aVnr
p2570
aV35
p2571
aV9
aVnr
p2572
aVnr
p2573
aVnr
p2574
aVnr
p2575
aVnr
p2576
aVnr
p2577
aVnr
p2578
aV36
p2579
aV36
p2580
aVnr
p2581
aV36
p2582
aa(lp2583
V27-06-2018
p2584
aV5
aVnr
p2585
aV4
aVnr
p2586
aVnr
p2587
aV19
p2588
aV11
p2589
aV16
p2590
aV12
p2591
aVnr
p2592
aVnr
p2593
aVnr
p2594
aVnr
p2595
aVnr
p2596
aV16
p2597
aV14
p2598
aVnr
p2599
aVnr
p2600
aVnr
p2601
aVnr
p2602
aV14
p2603
aV17
p2604
aVnr
p2605
aVnr
p2606
aVnr
p2607
aV43
p2608
aV11
p2609
aVnr
p2610
aVnr
p2611
aVnr
p2612
aVnr
p2613
aVnr
p2614
aVnr
p2615
aVnr
p2616
aV34
p2617
aV31
p2618
aVnr
p2619
aVnr
p2620
aa(lp2621
V27-06-2018
p2622
aV6
aVnr
p2623
aV3
aVnr
p2624
aVnr
p2625
aV29
p2626
aV15
p2627
aV15
p2628
aV14
p2629
aVnr
p2630
aVnr
p2631
aVnr
p2632
aVnr
p2633
aVnr
p2634
aV26
p2635
aV16
p2636
aVnr
p2637
aVnr
p2638
aVnr
p2639
aVnr
p2640
aV17
p2641
aV23
p2642
aVnr
p2643
aV15
p2644
aVnr
p2645
aV38
p2646
aV10
p2647
aVnr
p2648
aVnr
p2649
aVnr
p2650
aVnr
p2651
aVnr
p2652
aVnr
p2653
aVnr
p2654
aV28
p2655
aV32
p2656
aVnr
p2657
aV26
p2658
aa(lp2659
V27-06-2018
p2660
aV7
aVnr
p2661
aV3
aVnr
p2662
aVnr
p2663
aV29
p2664
aV16
p2665
aV4
aV20
p2666
aVnr
p2667
aVnr
p2668
aVnr
p2669
aVnr
p2670
aVnr
p2671
aV29
p2672
aV19
p2673
aVnr
p2674
aVnr
p2675
aVnr
p2676
aVnr
p2677
aV17
p2678
aV25
p2679
aVnr
p2680
aV16
p2681
aVnr
p2682
aV29
p2683
aV16
p2684
aVnr
p2685
aVnr
p2686
aVnr
p2687
aVnr
p2688
aVnr
p2689
aVnr
p2690
aVnr
p2691
aV16
p2692
aV52
p2693
aVnr
p2694
aV34
p2695
aa(lp2696
V27-06-2018
p2697
aV8
aVnr
p2698
aV8
aVnr
p2699
aVnr
p2700
aV22
p2701
aV15
p2702
aVnr
p2703
aV20
p2704
aVnr
p2705
aVnr
p2706
aVnr
p2707
aVnr
p2708
aVnr
p2709
aV32
p2710
aV13
p2711
aVnr
p2712
aVnr
p2713
aVnr
p2714
aVnr
p2715
aV17
p2716
aV27
p2717
aVnr
p2718
aV12
p2719
aVnr
p2720
aV19
p2721
aV5
aVnr
p2722
aVnr
p2723
aVnr
p2724
aVnr
p2725
aVnr
p2726
aVnr
p2727
aVnr
p2728
aV16
p2729
aV43
p2730
aVnr
p2731
aV32
p2732
aa(lp2733
V27-06-2018
p2734
aV9
aVnr
p2735
aV9
aVnr
p2736
aVnr
p2737
aV25
p2738
aV24
p2739
aV10
p2740
aV21
p2741
aVnr
p2742
aVnr
p2743
aVnr
p2744
aVnr
p2745
aVnr
p2746
aV30
p2747
aV29
p2748
aVnr
p2749
aVnr
p2750
aVnr
p2751
aVnr
p2752
aV20
p2753
aV22
p2754
aVnr
p2755
aV18
p2756
aVnr
p2757
aV24
p2758
aV19
p2759
aVnr
p2760
aVnr
p2761
aVnr
p2762
aVnr
p2763
aVnr
p2764
aVnr
p2765
aVnr
p2766
aVnr
p2767
aV29
p2768
aVnr
p2769
aV28
p2770
aa(lp2771
V27-06-2018
p2772
aV10
p2773
aVnr
p2774
aV10
p2775
aVnr
p2776
aVnr
p2777
aV21
p2778
aV27
p2779
aV10
p2780
aV9
aVnr
p2781
aVnr
p2782
aVnr
p2783
aVnr
p2784
aVnr
p2785
aV32
p2786
aV26
p2787
aVnr
p2788
aVnr
p2789
aVnr
p2790
aVnr
p2791
aV26
p2792
aV22
p2793
aVnr
p2794
aV12
p2795
aVnr
p2796
aV31
p2797
aV19
p2798
aVnr
p2799
aVnr
p2800
aVnr
p2801
aVnr
p2802
aVnr
p2803
aVnr
p2804
aVnr
p2805
aVnr
p2806
aV22
p2807
aVnr
p2808
aV27
p2809
aa(lp2810
V27-06-2018
p2811
aV11
p2812
aVnr
p2813
aV16
p2814
aVnr
p2815
aVnr
p2816
aV20
p2817
aV32
p2818
aV10
p2819
aV11
p2820
aVnr
p2821
aVnr
p2822
aVnr
p2823
aVnr
p2824
aVnr
p2825
aV36
p2826
aV21
p2827
aVnr
p2828
aVnr
p2829
aVnr
p2830
aVnr
p2831
aV29
p2832
aV33
p2833
aVnr
p2834
aV24
p2835
aVnr
p2836
aV36
p2837
aV1
aVnr
p2838
aVnr
p2839
aVnr
p2840
aVnr
p2841
aVnr
p2842
aVnr
p2843
aVnr
p2844
aVnr
p2845
aV40
p2846
aVnr
p2847
aV33
p2848
aa(lp2849
V27-06-2018
p2850
aV12
p2851
aVnr
p2852
aV15
p2853
aVnr
p2854
aVnr
p2855
aV19
p2856
aV24
p2857
aV11
p2858
aV8
aVnr
p2859
aVnr
p2860
aVnr
p2861
aVnr
p2862
aVnr
p2863
aV42
p2864
aV5
aVnr
p2865
aVnr
p2866
aVnr
p2867
aVnr
p2868
aV36
p2869
aV15
p2870
aVnr
p2871
aVnr
p2872
aVnr
p2873
aV26
p2874
aV24
p2875
aVnr
p2876
aVnr
p2877
aVnr
p2878
aVnr
p2879
aVnr
p2880
aVnr
p2881
aVnr
p2882
aVnr
p2883
aV7
aVnr
p2884
aV44
p2885
aa(lp2886
V27-06-2018
p2887
aV13
p2888
aVnr
p2889
aV13
p2890
aVnr
p2891
aVnr
p2892
aV20
p2893
aV32
p2894
aV10
p2895
aV10
p2896
aVnr
p2897
aVnr
p2898
aVnr
p2899
aVnr
p2900
aVnr
p2901
aV38
p2902
aV28
p2903
aVnr
p2904
aVnr
p2905
aVnr
p2906
aVnr
p2907
aV38
p2908
aV23
p2909
aVnr
p2910
aV28
p2911
aVnr
p2912
aV23
p2913
aV19
p2914
aVnr
p2915
aVnr
p2916
aVnr
p2917
aVnr
p2918
aVnr
p2919
aVnr
p2920
aVnr
p2921
aV2
aV16
p2922
aVnr
p2923
aV41
p2924
aa(lp2925
V27-06-2018
p2926
aV14
p2927
aVnr
p2928
aV15
p2929
aVnr
p2930
aVnr
p2931
aV25
p2932
aV30
p2933
aV10
p2934
aV12
p2935
aVnr
p2936
aVnr
p2937
aVnr
p2938
aVnr
p2939
aVnr
p2940
aV43
p2941
aV40
p2942
aVnr
p2943
aVnr
p2944
aVnr
p2945
aVnr
p2946
aV48
p2947
aV29
p2948
aVnr
p2949
aV25
p2950
aVnr
p2951
aV11
p2952
aV27
p2953
aVnr
p2954
aVnr
p2955
aVnr
p2956
aVnr
p2957
aVnr
p2958
aVnr
p2959
aVnr
p2960
aV3
aV11
p2961
aVnr
p2962
aV30
p2963
aa(lp2964
V27-06-2018
p2965
aV15
p2966
aVnr
p2967
aV8
aVnr
p2968
aVnr
p2969
aV21
p2970
aV42
p2971
aV8
aV13
p2972
aVnr
p2973
aVnr
p2974
aVnr
p2975
aVnr
p2976
aVnr
p2977
aV34
p2978
aV43
p2979
aVnr
p2980
aVnr
p2981
aVnr
p2982
aVnr
p2983
aV33
p2984
aV36
p2985
aVnr
p2986
aV21
p2987
aVnr
p2988
aV26
p2989
aV43
p2990
aVnr
p2991
aVnr
p2992
aVnr
p2993
aVnr
p2994
aVnr
p2995
aVnr
p2996
aVnr
p2997
aVnr
p2998
aV35
p2999
aVnr
p3000
aV28
p3001
aa(lp3002
V27-06-2018
p3003
aV16
p3004
aVnr
p3005
aV11
p3006
aVnr
p3007
aVnr
p3008
aV41
p3009
aV34
p3010
aV2
aV16
p3011
aVnr
p3012
aVnr
p3013
aVnr
p3014
aVnr
p3015
aVnr
p3016
aV27
p3017
aV45
p3018
aVnr
p3019
aVnr
p3020
aVnr
p3021
aVnr
p3022
aV23
p3023
aV40
p3024
aVnr
p3025
aV16
p3026
aVnr
p3027
aV23
p3028
aV14
p3029
aVnr
p3030
aVnr
p3031
aVnr
p3032
aVnr
p3033
aVnr
p3034
aVnr
p3035
aVnr
p3036
aV5
aV33
p3037
aVnr
p3038
aV25
p3039
aa(lp3040
V27-06-2018
p3041
aV17
p3042
aVnr
p3043
aV13
p3044
aVnr
p3045
aVnr
p3046
aV30
p3047
aV24
p3048
aV24
p3049
aV11
p3050
aVnr
p3051
aVnr
p3052
aVnr
p3053
aVnr
p3054
aVnr
p3055
aV17
p3056
aV34
p3057
aVnr
p3058
aVnr
p3059
aVnr
p3060
aVnr
p3061
aV32
p3062
aV36
p3063
aVnr
p3064
aV8
aVnr
p3065
aV13
p3066
aV48
p3067
aVnr
p3068
aVnr
p3069
aVnr
p3070
aVnr
p3071
aVnr
p3072
aVnr
p3073
aVnr
p3074
aV21
p3075
aV17
p3076
aVnr
p3077
aV24
p3078
aa(lp3079
V27-06-2018
p3080
aV18
p3081
aVnr
p3082
aV24
p3083
aVnr
p3084
aVnr
p3085
aV13
p3086
aV21
p3087
aV12
p3088
aV12
p3089
aVnr
p3090
aVnr
p3091
aVnr
p3092
aVnr
p3093
aVnr
p3094
aV18
p3095
aV28
p3096
aVnr
p3097
aVnr
p3098
aVnr
p3099
aVnr
p3100
aV20
p3101
aV31
p3102
aVnr
p3103
aV9
aVnr
p3104
aV6
aV21
p3105
aVnr
p3106
aVnr
p3107
aVnr
p3108
aVnr
p3109
aVnr
p3110
aVnr
p3111
aVnr
p3112
aV9
aV31
p3113
aVnr
p3114
aV22
p3115
aa(lp3116
V27-06-2018
p3117
aV19
p3118
aVnr
p3119
aV16
p3120
aVnr
p3121
aVnr
p3122
aV17
p3123
aV14
p3124
aV15
p3125
aV18
p3126
aVnr
p3127
aVnr
p3128
aVnr
p3129
aVnr
p3130
aVnr
p3131
aV9
aV15
p3132
aVnr
p3133
aVnr
p3134
aVnr
p3135
aVnr
p3136
aV8
aV17
p3137
aVnr
p3138
aV8
aVnr
p3139
aV4
aV28
p3140
aVnr
p3141
aVnr
p3142
aVnr
p3143
aVnr
p3144
aVnr
p3145
aVnr
p3146
aVnr
p3147
aV8
aVnr
p3148
aVnr
p3149
aV12
p3150
aasS'pm10'
p3151
(lp3152
(lp3153
V26-06-2018
p3154
aV20
p3155
aVnr
p3156
aV18
p3157
aVnr
p3158
aV19
p3159
aV36
p3160
aV34
p3161
aVnr
p3162
aVnr
p3163
aVnr
p3164
aVnr
p3165
aVnr
p3166
aV31
p3167
aV32
p3168
aV15
p3169
aVnr
p3170
aV28
p3171
aVnr
p3172
aV28
p3173
aVnr
p3174
aVnr
p3175
aVnr
p3176
aV39
p3177
aV39
p3178
aVnr
p3179
aVnr
p3180
aVnr
p3181
aVnr
p3182
aV21
p3183
aV31
p3184
aVnr
p3185
aVnr
p3186
aV37
p3187
aVnr
p3188
aVnr
p3189
aVnr
p3190
aVnr
p3191
aVnr
p3192
aVnr
p3193
aV39
p3194
aV26
p3195
aV29
p3196
aa(lp3197
V26-06-2018
p3198
aV21
p3199
aVnr
p3200
aV14
p3201
aVnr
p3202
aV7
aV30
p3203
aV20
p3204
aVnr
p3205
aVnr
p3206
aVnr
p3207
aVnr
p3208
aVnr
p3209
aV22
p3210
aV9
aV1
aVnr
p3211
aV32
p3212
aVnr
p3213
aV22
p3214
aVnr
p3215
aVnr
p3216
aVnr
p3217
aV32
p3218
aV24
p3219
aVnr
p3220
aVnr
p3221
aVnr
p3222
aVnr
p3223
aV19
p3224
aV18
p3225
aVnr
p3226
aVnr
p3227
aV36
p3228
aVnr
p3229
aVnr
p3230
aVnr
p3231
aVnr
p3232
aVnr
p3233
aVnr
p3234
aV35
p3235
aV29
p3236
aVnr
p3237
aa(lp3238
V26-06-2018
p3239
aV22
p3240
aVnr
p3241
aV25
p3242
aVnr
p3243
aV7
aV28
p3244
aV24
p3245
aVnr
p3246
aVnr
p3247
aVnr
p3248
aVnr
p3249
aVnr
p3250
aV10
p3251
aV27
p3252
aV23
p3253
aVnr
p3254
aV25
p3255
aVnr
p3256
aV15
p3257
aVnr
p3258
aVnr
p3259
aVnr
p3260
aV15
p3261
aV29
p3262
aVnr
p3263
aVnr
p3264
aVnr
p3265
aVnr
p3266
aV37
p3267
aV18
p3268
aVnr
p3269
aVnr
p3270
aV36
p3271
aVnr
p3272
aVnr
p3273
aVnr
p3274
aVnr
p3275
aVnr
p3276
aVnr
p3277
aV20
p3278
aV18
p3279
aV53
p3280
aa(lp3281
V26-06-2018
p3282
aV23
p3283
aVnr
p3284
aV25
p3285
aVnr
p3286
aV7
aV26
p3287
aV27
p3288
aVnr
p3289
aVnr
p3290
aVnr
p3291
aVnr
p3292
aVnr
p3293
aV17
p3294
aV21
p3295
aV2
aVnr
p3296
aV25
p3297
aVnr
p3298
aV17
p3299
aVnr
p3300
aVnr
p3301
aVnr
p3302
aV29
p3303
aV30
p3304
aVnr
p3305
aVnr
p3306
aVnr
p3307
aVnr
p3308
aV32
p3309
aV22
p3310
aVnr
p3311
aVnr
p3312
aV63
p3313
aVnr
p3314
aVnr
p3315
aVnr
p3316
aVnr
p3317
aVnr
p3318
aVnr
p3319
aV23
p3320
aV30
p3321
aV86
p3322
aa(lp3323
V26-06-2018
p3324
aV24
p3325
aVnr
p3326
aV32
p3327
aVnr
p3328
aV14
p3329
aV32
p3330
aV34
p3331
aVnr
p3332
aVnr
p3333
aVnr
p3334
aVnr
p3335
aVnr
p3336
aV8
aV18
p3337
aV13
p3338
aVnr
p3339
aV21
p3340
aVnr
p3341
aV23
p3342
aVnr
p3343
aVnr
p3344
aVnr
p3345
aV32
p3346
aV27
p3347
aVnr
p3348
aVnr
p3349
aVnr
p3350
aVnr
p3351
aV25
p3352
aV16
p3353
aVnr
p3354
aVnr
p3355
aV22
p3356
aVnr
p3357
aVnr
p3358
aVnr
p3359
aVnr
p3360
aVnr
p3361
aVnr
p3362
aV25
p3363
aV33
p3364
aV56
p3365
aa(lp3366
V27-06-2018
p3367
aV1
aVnr
p3368
aV23
p3369
aVnr
p3370
aV22
p3371
aV33
p3372
aV27
p3373
aVnr
p3374
aVnr
p3375
aVnr
p3376
aVnr
p3377
aVnr
p3378
aVnr
p3379
aV18
p3380
aV15
p3381
aVnr
p3382
aV21
p3383
aVnr
p3384
aVnr
p3385
aVnr
p3386
aVnr
p3387
aVnr
p3388
aV29
p3389
aV31
p3390
aVnr
p3391
aVnr
p3392
aVnr
p3393
aVnr
p3394
aV32
p3395
aV14
p3396
aVnr
p3397
aVnr
p3398
aV20
p3399
aVnr
p3400
aVnr
p3401
aVnr
p3402
aVnr
p3403
aVnr
p3404
aVnr
p3405
aV21
p3406
aV35
p3407
aV53
p3408
aa(lp3409
V27-06-2018
p3410
aV2
aVnr
p3411
aV26
p3412
aVnr
p3413
aV10
p3414
aV28
p3415
aV25
p3416
aVnr
p3417
aVnr
p3418
aVnr
p3419
aVnr
p3420
aVnr
p3421
aV5
aV15
p3422
aV12
p3423
aVnr
p3424
aV20
p3425
aVnr
p3426
aV28
p3427
aVnr
p3428
aVnr
p3429
aVnr
p3430
aV26
p3431
aV25
p3432
aVnr
p3433
aVnr
p3434
aVnr
p3435
aVnr
p3436
aV33
p3437
aV17
p3438
aVnr
p3439
aVnr
p3440
aV22
p3441
aVnr
p3442
aVnr
p3443
aVnr
p3444
aVnr
p3445
aVnr
p3446
aVnr
p3447
aV23
p3448
aV33
p3449
aV45
p3450
aa(lp3451
V27-06-2018
p3452
aV3
aVnr
p3453
aV6
aVnr
p3454
aV12
p3455
aV36
p3456
aV26
p3457
aVnr
p3458
aVnr
p3459
aVnr
p3460
aVnr
p3461
aVnr
p3462
aVnr
p3463
aV12
p3464
aVnr
p3465
aVnr
p3466
aV16
p3467
aVnr
p3468
aV36
p3469
aVnr
p3470
aVnr
p3471
aVnr
p3472
aV20
p3473
aV20
p3474
aVnr
p3475
aVnr
p3476
aVnr
p3477
aVnr
p3478
aV46
p3479
aV18
p3480
aVnr
p3481
aVnr
p3482
aV24
p3483
aVnr
p3484
aVnr
p3485
aVnr
p3486
aVnr
p3487
aVnr
p3488
aVnr
p3489
aV33
p3490
aV14
p3491
aV53
p3492
aa(lp3493
V27-06-2018
p3494
aV4
aVnr
p3495
aV4
aVnr
p3496
aV17
p3497
aV23
p3498
aV23
p3499
aVnr
p3500
aVnr
p3501
aVnr
p3502
aVnr
p3503
aVnr
p3504
aV3
aV17
p3505
aVnr
p3506
aVnr
p3507
aV20
p3508
aVnr
p3509
aV38
p3510
aVnr
p3511
aVnr
p3512
aVnr
p3513
aV29
p3514
aV21
p3515
aVnr
p3516
aVnr
p3517
aVnr
p3518
aVnr
p3519
aV45
p3520
aV15
p3521
aVnr
p3522
aVnr
p3523
aV19
p3524
aVnr
p3525
aVnr
p3526
aVnr
p3527
aVnr
p3528
aVnr
p3529
aVnr
p3530
aV41
p3531
aV12
p3532
aV60
p3533
aa(lp3534
V27-06-2018
p3535
aV5
aVnr
p3536
aV5
aVnr
p3537
aVnr
p3538
aV25
p3539
aV20
p3540
aVnr
p3541
aVnr
p3542
aVnr
p3543
aVnr
p3544
aVnr
p3545
aV19
p3546
aV11
p3547
aVnr
p3548
aVnr
p3549
aV19
p3550
aVnr
p3551
aV43
p3552
aVnr
p3553
aVnr
p3554
aVnr
p3555
aV26
p3556
aV27
p3557
aVnr
p3558
aVnr
p3559
aVnr
p3560
aVnr
p3561
aV56
p3562
aV18
p3563
aVnr
p3564
aVnr
p3565
aV15
p3566
aVnr
p3567
aVnr
p3568
aVnr
p3569
aVnr
p3570
aVnr
p3571
aVnr
p3572
aV36
p3573
aV19
p3574
aVnr
p3575
aa(lp3576
V27-06-2018
p3577
aV6
aVnr
p3578
aV4
aVnr
p3579
aV14
p3580
aV37
p3581
aV29
p3582
aVnr
p3583
aVnr
p3584
aVnr
p3585
aVnr
p3586
aVnr
p3587
aV7
aV25
p3588
aV5
aVnr
p3589
aV22
p3590
aVnr
p3591
aV39
p3592
aVnr
p3593
aVnr
p3594
aVnr
p3595
aV33
p3596
aV38
p3597
aVnr
p3598
aVnr
p3599
aVnr
p3600
aVnr
p3601
aV54
p3602
aV21
p3603
aVnr
p3604
aVnr
p3605
aV8
aVnr
p3606
aVnr
p3607
aVnr
p3608
aVnr
p3609
aVnr
p3610
aVnr
p3611
aV38
p3612
aV21
p3613
aV52
p3614
aa(lp3615
V27-06-2018
p3616
aV7
aVnr
p3617
aV7
aVnr
p3618
aV14
p3619
aV41
p3620
aV39
p3621
aVnr
p3622
aVnr
p3623
aVnr
p3624
aVnr
p3625
aVnr
p3626
aV24
p3627
aV31
p3628
aV19
p3629
aVnr
p3630
aV27
p3631
aVnr
p3632
aV50
p3633
aVnr
p3634
aVnr
p3635
aVnr
p3636
aV38
p3637
aV45
p3638
aVnr
p3639
aVnr
p3640
aVnr
p3641
aVnr
p3642
aV46
p3643
aV35
p3644
aVnr
p3645
aVnr
p3646
aV5
aVnr
p3647
aVnr
p3648
aVnr
p3649
aVnr
p3650
aVnr
p3651
aVnr
p3652
aV62
p3653
aV33
p3654
aV75
p3655
aa(lp3656
V27-06-2018
p3657
aV8
aVnr
p3658
aV12
p3659
aVnr
p3660
aV20
p3661
aV41
p3662
aV39
p3663
aVnr
p3664
aVnr
p3665
aVnr
p3666
aVnr
p3667
aVnr
p3668
aV29
p3669
aV36
p3670
aV59
p3671
aVnr
p3672
aV22
p3673
aVnr
p3674
aV46
p3675
aVnr
p3676
aVnr
p3677
aVnr
p3678
aV38
p3679
aV47
p3680
aVnr
p3681
aVnr
p3682
aVnr
p3683
aVnr
p3684
aV34
p3685
aV27
p3686
aVnr
p3687
aVnr
p3688
aV24
p3689
aVnr
p3690
aVnr
p3691
aVnr
p3692
aVnr
p3693
aVnr
p3694
aVnr
p3695
aV52
p3696
aV62
p3697
aV82
p3698
aa(lp3699
V27-06-2018
p3700
aV9
aVnr
p3701
aV15
p3702
aVnr
p3703
aV48
p3704
aV40
p3705
aV54
p3706
aVnr
p3707
aVnr
p3708
aVnr
p3709
aVnr
p3710
aVnr
p3711
aV16
p3712
aV99
p3713
aV67
p3714
aVnr
p3715
aV45
p3716
aVnr
p3717
aV26
p3718
aVnr
p3719
aVnr
p3720
aVnr
p3721
aV46
p3722
aV41
p3723
aVnr
p3724
aVnr
p3725
aVnr
p3726
aVnr
p3727
aV44
p3728
aV37
p3729
aVnr
p3730
aVnr
p3731
aV31
p3732
aVnr
p3733
aVnr
p3734
aVnr
p3735
aVnr
p3736
aVnr
p3737
aVnr
p3738
aV42
p3739
aV71
p3740
aV71
p3741
aa(lp3742
V27-06-2018
p3743
aV10
p3744
aVnr
p3745
aV18
p3746
aVnr
p3747
aV25
p3748
aV35
p3749
aV61
p3750
aVnr
p3751
aVnr
p3752
aVnr
p3753
aVnr
p3754
aVnr
p3755
aV18
p3756
aV33
p3757
aV0
aVnr
p3758
aV48
p3759
aVnr
p3760
aV11
p3761
aVnr
p3762
aVnr
p3763
aVnr
p3764
aV54
p3765
aV36
p3766
aVnr
p3767
aVnr
p3768
aVnr
p3769
aVnr
p3770
aV50
p3771
aV35
p3772
aVnr
p3773
aVnr
p3774
aV21
p3775
aVnr
p3776
aVnr
p3777
aVnr
p3778
aVnr
p3779
aVnr
p3780
aVnr
p3781
aV37
p3782
aV72
p3783
aV58
p3784
aa(lp3785
V27-06-2018
p3786
aV11
p3787
aVnr
p3788
aV23
p3789
aVnr
p3790
aV8
aV34
p3791
aV54
p3792
aVnr
p3793
aVnr
p3794
aVnr
p3795
aVnr
p3796
aVnr
p3797
aV20
p3798
aV27
p3799
aVnr
p3800
aVnr
p3801
aV38
p3802
aVnr
p3803
aV19
p3804
aVnr
p3805
aVnr
p3806
aVnr
p3807
aV53
p3808
aV46
p3809
aVnr
p3810
aVnr
p3811
aVnr
p3812
aVnr
p3813
aV57
p3814
aV8
aVnr
p3815
aVnr
p3816
aV19
p3817
aVnr
p3818
aVnr
p3819
aVnr
p3820
aVnr
p3821
aVnr
p3822
aVnr
p3823
aV51
p3824
aV30
p3825
aV65
p3826
aa(lp3827
V27-06-2018
p3828
aV12
p3829
aVnr
p3830
aV25
p3831
aVnr
p3832
aV26
p3833
aV29
p3834
aV42
p3835
aVnr
p3836
aVnr
p3837
aVnr
p3838
aVnr
p3839
aVnr
p3840
aV23
p3841
aV25
p3842
aVnr
p3843
aVnr
p3844
aV21
p3845
aVnr
p3846
aV26
p3847
aVnr
p3848
aVnr
p3849
aVnr
p3850
aV64
p3851
aV25
p3852
aVnr
p3853
aVnr
p3854
aVnr
p3855
aVnr
p3856
aV39
p3857
aV33
p3858
aVnr
p3859
aVnr
p3860
aV12
p3861
aVnr
p3862
aVnr
p3863
aVnr
p3864
aVnr
p3865
aVnr
p3866
aVnr
p3867
aV17
p3868
aV5
aV80
p3869
aa(lp3870
V27-06-2018
p3871
aV13
p3872
aVnr
p3873
aV21
p3874
aVnr
p3875
aV43
p3876
aV29
p3877
aV52
p3878
aVnr
p3879
aVnr
p3880
aVnr
p3881
aVnr
p3882
aVnr
p3883
aV30
p3884
aV29
p3885
aVnr
p3886
aVnr
p3887
aV46
p3888
aVnr
p3889
aV36
p3890
aVnr
p3891
aVnr
p3892
aVnr
p3893
aV65
p3894
aV37
p3895
aVnr
p3896
aVnr
p3897
aVnr
p3898
aVnr
p3899
aV33
p3900
aV30
p3901
aVnr
p3902
aVnr
p3903
aV26
p3904
aVnr
p3905
aVnr
p3906
aVnr
p3907
aVnr
p3908
aVnr
p3909
aVnr
p3910
aV22
p3911
aV29
p3912
aV72
p3913
aa(lp3914
V27-06-2018
p3915
aV14
p3916
aVnr
p3917
aV23
p3918
aVnr
p3919
aV49
p3920
aV35
p3921
aV50
p3922
aVnr
p3923
aVnr
p3924
aVnr
p3925
aVnr
p3926
aVnr
p3927
aV19
p3928
aV20
p3929
aVnr
p3930
aVnr
p3931
aV53
p3932
aVnr
p3933
aV17
p3934
aVnr
p3935
aVnr
p3936
aVnr
p3937
aV73
p3938
aV41
p3939
aVnr
p3940
aVnr
p3941
aVnr
p3942
aVnr
p3943
aV20
p3944
aV36
p3945
aVnr
p3946
aVnr
p3947
aVnr
p3948
aVnr
p3949
aVnr
p3950
aVnr
p3951
aVnr
p3952
aVnr
p3953
aVnr
p3954
aV18
p3955
aV18
p3956
aV57
p3957
aa(lp3958
V27-06-2018
p3959
aV15
p3960
aVnr
p3961
aV16
p3962
aVnr
p3963
aV44
p3964
aV30
p3965
aV66
p3966
aVnr
p3967
aVnr
p3968
aVnr
p3969
aVnr
p3970
aVnr
p3971
aV21
p3972
aV20
p3973
aV68
p3974
aVnr
p3975
aV54
p3976
aVnr
p3977
aV26
p3978
aVnr
p3979
aVnr
p3980
aVnr
p3981
aV56
p3982
aV51
p3983
aVnr
p3984
aVnr
p3985
aVnr
p3986
aVnr
p3987
aV40
p3988
aV58
p3989
aVnr
p3990
aVnr
p3991
aV37
p3992
aVnr
p3993
aVnr
p3994
aVnr
p3995
aVnr
p3996
aVnr
p3997
aVnr
p3998
aV46
p3999
aV22
p4000
aV55
p4001
aa(lp4002
V27-06-2018
p4003
aV16
p4004
aVnr
p4005
aV18
p4006
aVnr
p4007
aV36
p4008
aV55
p4009
aV54
p4010
aVnr
p4011
aVnr
p4012
aVnr
p4013
aVnr
p4014
aVnr
p4015
aV32
p4016
aV11
p4017
aV59
p4018
aVnr
p4019
aV57
p4020
aVnr
p4021
aV43
p4022
aVnr
p4023
aVnr
p4024
aVnr
p4025
aV42
p4026
aV52
p4027
aVnr
p4028
aVnr
p4029
aVnr
p4030
aVnr
p4031
aV37
p4032
aV21
p4033
aVnr
p4034
aVnr
p4035
aV42
p4036
aVnr
p4037
aVnr
p4038
aVnr
p4039
aVnr
p4040
aVnr
p4041
aVnr
p4042
aV47
p4043
aV13
p4044
aV53
p4045
aa(lp4046
V27-06-2018
p4047
aV17
p4048
aVnr
p4049
aV22
p4050
aVnr
p4051
aV21
p4052
aV45
p4053
aV42
p4054
aVnr
p4055
aVnr
p4056
aVnr
p4057
aVnr
p4058
aVnr
p4059
aV31
p4060
aV18
p4061
aV49
p4062
aVnr
p4063
aV47
p4064
aVnr
p4065
aV31
p4066
aVnr
p4067
aVnr
p4068
aVnr
p4069
aV47
p4070
aV48
p4071
aVnr
p4072
aVnr
p4073
aVnr
p4074
aVnr
p4075
aV28
p4076
aV65
p4077
aVnr
p4078
aVnr
p4079
aV17
p4080
aVnr
p4081
aVnr
p4082
aVnr
p4083
aVnr
p4084
aVnr
p4085
aVnr
p4086
aV32
p4087
aV50
p4088
aV49
p4089
aa(lp4090
V27-06-2018
p4091
aV18
p4092
aVnr
p4093
aV33
p4094
aVnr
p4095
aV63
p4096
aV27
p4097
aV43
p4098
aVnr
p4099
aVnr
p4100
aVnr
p4101
aVnr
p4102
aVnr
p4103
aV39
p4104
aV45
p4105
aV50
p4106
aVnr
p4107
aV44
p4108
aVnr
p4109
aV34
p4110
aVnr
p4111
aVnr
p4112
aVnr
p4113
aV49
p4114
aV45
p4115
aVnr
p4116
aVnr
p4117
aVnr
p4118
aVnr
p4119
aV31
p4120
aV37
p4121
aVnr
p4122
aVnr
p4123
aV15
p4124
aVnr
p4125
aVnr
p4126
aVnr
p4127
aVnr
p4128
aVnr
p4129
aVnr
p4130
aV40
p4131
aV28
p4132
aV64
p4133
aa(lp4134
V27-06-2018
p4135
aV19
p4136
aVnr
p4137
aV27
p4138
aVnr
p4139
aV23
p4140
aV35
p4141
aV40
p4142
aVnr
p4143
aVnr
p4144
aVnr
p4145
aVnr
p4146
aVnr
p4147
aV17
p4148
aV24
p4149
aV52
p4150
aVnr
p4151
aV33
p4152
aVnr
p4153
aV26
p4154
aVnr
p4155
aVnr
p4156
aVnr
p4157
aV37
p4158
aV36
p4159
aVnr
p4160
aVnr
p4161
aVnr
p4162
aVnr
p4163
aV18
p4164
aV48
p4165
aVnr
p4166
aVnr
p4167
aV37
p4168
aVnr
p4169
aVnr
p4170
aVnr
p4171
aVnr
p4172
aVnr
p4173
aVnr
p4174
aVnr
p4175
aV10
p4176
aV53
p4177
aasS'no'
p4178
(lp4179
(lp4180
V26-06-2018
p4181
aV20
p4182
aVnr
p4183
aV1
aVnr
p4184
aV1
aVnr
p4185
aVnr
p4186
aV7
aV0
aVnr
p4187
aV2
aVnr
p4188
aVnr
p4189
aV1
aVnr
p4190
aV3
aVnr
p4191
aVnr
p4192
aVnr
p4193
aV3
aVnr
p4194
aV12
p4195
aVnr
p4196
aV9
aV5
aVnr
p4197
aV4
aV2
aVnr
p4198
aVnr
p4199
aV1
aVnr
p4200
aVnr
p4201
aVnr
p4202
aVnr
p4203
aVnr
p4204
aVnr
p4205
aV23
p4206
aV8
aVnr
p4207
aV2
aV4
aV12
p4208
aV42
p4209
aa(lp4210
V26-06-2018
p4211
aV21
p4212
aVnr
p4213
aV4
aVnr
p4214
aV1
aVnr
p4215
aVnr
p4216
aV16
p4217
aV2
aVnr
p4218
aV6
aVnr
p4219
aVnr
p4220
aV4
aVnr
p4221
aV25
p4222
aVnr
p4223
aVnr
p4224
aVnr
p4225
aV5
aVnr
p4226
aV15
p4227
aVnr
p4228
aV11
p4229
aV6
aVnr
p4230
aVnr
p4231
aV4
aVnr
p4232
aVnr
p4233
aV8
aVnr
p4234
aVnr
p4235
aVnr
p4236
aVnr
p4237
aVnr
p4238
aVnr
p4239
aV27
p4240
aV2
aVnr
p4241
aV2
aV7
aV2
aVnr
p4242
aa(lp4243
V26-06-2018
p4244
aV22
p4245
aVnr
p4246
aV3
aVnr
p4247
aV1
aVnr
p4248
aVnr
p4249
aV29
p4250
aV5
aVnr
p4251
aV9
aVnr
p4252
aVnr
p4253
aV6
aVnr
p4254
aV21
p4255
aVnr
p4256
aVnr
p4257
aVnr
p4258
aV10
p4259
aVnr
p4260
aV5
aVnr
p4261
aV26
p4262
aV12
p4263
aVnr
p4264
aV16
p4265
aV4
aVnr
p4266
aVnr
p4267
aV9
aVnr
p4268
aVnr
p4269
aVnr
p4270
aVnr
p4271
aVnr
p4272
aVnr
p4273
aV16
p4274
aV2
aVnr
p4275
aV3
aV10
p4276
aV2
aV80
p4277
aa(lp4278
V26-06-2018
p4279
aV23
p4280
aVnr
p4281
aV4
aVnr
p4282
aV1
aVnr
p4283
aVnr
p4284
aV39
p4285
aV5
aVnr
p4286
aV18
p4287
aVnr
p4288
aVnr
p4289
aV11
p4290
aVnr
p4291
aV19
p4292
aVnr
p4293
aVnr
p4294
aVnr
p4295
aV9
aVnr
p4296
aV2
aVnr
p4297
aV29
p4298
aV15
p4299
aVnr
p4300
aV7
aV2
aVnr
p4301
aVnr
p4302
aV2
aVnr
p4303
aVnr
p4304
aVnr
p4305
aVnr
p4306
aVnr
p4307
aVnr
p4308
aV21
p4309
aV6
aVnr
p4310
aV3
aV3
aV2
aV44
p4311
aa(lp4312
V26-06-2018
p4313
aV24
p4314
aVnr
p4315
aV1
aVnr
p4316
aV2
aVnr
p4317
aVnr
p4318
aV15
p4319
aV7
aVnr
p4320
aV7
aVnr
p4321
aVnr
p4322
aV15
p4323
aVnr
p4324
aV7
aVnr
p4325
aVnr
p4326
aVnr
p4327
aV6
aVnr
p4328
aV19
p4329
aVnr
p4330
aV15
p4331
aV30
p4332
aVnr
p4333
aV7
aV4
aVnr
p4334
aVnr
p4335
aV3
aVnr
p4336
aVnr
p4337
aVnr
p4338
aVnr
p4339
aVnr
p4340
aVnr
p4341
aV9
aV13
p4342
aVnr
p4343
aV4
aV1
aV2
aV51
p4344
aa(lp4345
V27-06-2018
p4346
aV1
aVnr
p4347
aV1
aVnr
p4348
aV0
aVnr
p4349
aVnr
p4350
aV5
aV5
aVnr
p4351
aV1
aVnr
p4352
aVnr
p4353
aV5
aV2
aV4
aVnr
p4354
aV3
aVnr
p4355
aV17
p4356
aVnr
p4357
aV10
p4358
aVnr
p4359
aV8
aV26
p4360
aVnr
p4361
aV2
aV2
aVnr
p4362
aV14
p4363
aV4
aVnr
p4364
aVnr
p4365
aVnr
p4366
aVnr
p4367
aVnr
p4368
aVnr
p4369
aV2
aV2
aVnr
p4370
aV4
aV1
aV3
aV51
p4371
aa(lp4372
V27-06-2018
p4373
aV2
aVnr
p4374
aV1
aVnr
p4375
aV0
aVnr
p4376
aVnr
p4377
aV2
aV2
aVnr
p4378
aV1
aVnr
p4379
aVnr
p4380
aV2
aV2
aV1
aVnr
p4381
aV2
aVnr
p4382
aV7
aVnr
p4383
aV4
aVnr
p4384
aV5
aV13
p4385
aVnr
p4386
aV2
aV2
aVnr
p4387
aV18
p4388
aV1
aVnr
p4389
aVnr
p4390
aVnr
p4391
aVnr
p4392
aVnr
p4393
aVnr
p4394
aV1
aV2
aVnr
p4395
aV3
aV0
aV1
aV43
p4396
aa(lp4397
V27-06-2018
p4398
aV3
aVnr
p4399
aV0
aVnr
p4400
aV0
aVnr
p4401
aVnr
p4402
aV2
aV2
aVnr
p4403
aV1
aVnr
p4404
aVnr
p4405
aV1
aV1
aV0
aVnr
p4406
aV1
aVnr
p4407
aV4
aVnr
p4408
aV3
aVnr
p4409
aV3
aV12
p4410
aVnr
p4411
aV1
aV1
aVnr
p4412
aV3
aV6
aVnr
p4413
aVnr
p4414
aVnr
p4415
aVnr
p4416
aVnr
p4417
aVnr
p4418
aV1
aV1
aVnr
p4419
aV3
aV1
aV0
aV24
p4420
aa(lp4421
V27-06-2018
p4422
aV4
aVnr
p4423
aV0
aVnr
p4424
aV1
aVnr
p4425
aVnr
p4426
aV5
aV4
aVnr
p4427
aV1
aVnr
p4428
aVnr
p4429
aV5
aV2
aV4
aVnr
p4430
aV8
aVnr
p4431
aV10
p4432
aVnr
p4433
aV4
aVnr
p4434
aV6
aV57
p4435
aVnr
p4436
aV3
aV0
aVnr
p4437
aV6
aV16
p4438
aVnr
p4439
aVnr
p4440
aVnr
p4441
aVnr
p4442
aVnr
p4443
aVnr
p4444
aV2
aV3
aVnr
p4445
aV3
aV1
aV1
aV20
p4446
aa(lp4447
V27-06-2018
p4448
aV5
aVnr
p4449
aV1
aVnr
p4450
aVnr
p4451
aVnr
p4452
aVnr
p4453
aV31
p4454
aV5
aVnr
p4455
aV10
p4456
aVnr
p4457
aVnr
p4458
aV4
aV2
aV20
p4459
aVnr
p4460
aV23
p4461
aVnr
p4462
aV20
p4463
aVnr
p4464
aV8
aVnr
p4465
aV27
p4466
aV189
p4467
aVnr
p4468
aVnr
p4469
aV4
aVnr
p4470
aV15
p4471
aV36
p4472
aVnr
p4473
aVnr
p4474
aVnr
p4475
aVnr
p4476
aVnr
p4477
aVnr
p4478
aV20
p4479
aV10
p4480
aVnr
p4481
aV6
aV6
aV6
aVnr
p4482
aa(lp4483
V27-06-2018
p4484
aV6
aVnr
p4485
aV2
aVnr
p4486
aV7
aVnr
p4487
aVnr
p4488
aV56
p4489
aV17
p4490
aVnr
p4491
aV77
p4492
aVnr
p4493
aVnr
p4494
aV40
p4495
aV2
aV96
p4496
aVnr
p4497
aV39
p4498
aVnr
p4499
aV53
p4500
aVnr
p4501
aV19
p4502
aVnr
p4503
aV42
p4504
aV203
p4505
aVnr
p4506
aV49
p4507
aV17
p4508
aVnr
p4509
aV25
p4510
aV76
p4511
aVnr
p4512
aVnr
p4513
aVnr
p4514
aVnr
p4515
aVnr
p4516
aVnr
p4517
aV55
p4518
aV22
p4519
aVnr
p4520
aV22
p4521
aV51
p4522
aV15
p4523
aV92
p4524
aa(lp4525
V27-06-2018
p4526
aV7
aVnr
p4527
aV9
aVnr
p4528
aV18
p4529
aVnr
p4530
aVnr
p4531
aV81
p4532
aV67
p4533
aVnr
p4534
aV51
p4535
aVnr
p4536
aVnr
p4537
aV168
p4538
aV6
aV148
p4539
aVnr
p4540
aV54
p4541
aVnr
p4542
aV82
p4543
aVnr
p4544
aV16
p4545
aVnr
p4546
aV59
p4547
aV121
p4548
aVnr
p4549
aV75
p4550
aV21
p4551
aVnr
p4552
aV30
p4553
aV68
p4554
aVnr
p4555
aVnr
p4556
aVnr
p4557
aVnr
p4558
aVnr
p4559
aVnr
p4560
aV118
p4561
aV56
p4562
aVnr
p4563
aV62
p4564
aV63
p4565
aV39
p4566
aV97
p4567
aa(lp4568
V27-06-2018
p4569
aV8
aVnr
p4570
aV16
p4571
aVnr
p4572
aV31
p4573
aVnr
p4574
aVnr
p4575
aV92
p4576
aV64
p4577
aVnr
p4578
aV40
p4579
aVnr
p4580
aVnr
p4581
aV39
p4582
aV51
p4583
aV91
p4584
aVnr
p4585
aV98
p4586
aVnr
p4587
aV47
p4588
aVnr
p4589
aV18
p4590
aVnr
p4591
aV84
p4592
aV100
p4593
aVnr
p4594
aV39
p4595
aV36
p4596
aVnr
p4597
aV37
p4598
aV38
p4599
aVnr
p4600
aVnr
p4601
aVnr
p4602
aVnr
p4603
aVnr
p4604
aVnr
p4605
aV94
p4606
aV60
p4607
aVnr
p4608
aV32
p4609
aV61
p4610
aV46
p4611
aV58
p4612
aa(lp4613
V27-06-2018
p4614
aV9
aVnr
p4615
aV16
p4616
aVnr
p4617
aV10
p4618
aVnr
p4619
aVnr
p4620
aV62
p4621
aV20
p4622
aVnr
p4623
aV9
aVnr
p4624
aVnr
p4625
aV14
p4626
aV16
p4627
aV19
p4628
aVnr
p4629
aV67
p4630
aVnr
p4631
aV29
p4632
aVnr
p4633
aV25
p4634
aVnr
p4635
aV71
p4636
aV30
p4637
aVnr
p4638
aV27
p4639
aV30
p4640
aVnr
p4641
aV28
p4642
aV31
p4643
aVnr
p4644
aVnr
p4645
aVnr
p4646
aVnr
p4647
aVnr
p4648
aVnr
p4649
aV50
p4650
aV40
p4651
aVnr
p4652
aV16
p4653
aV32
p4654
aV34
p4655
aV35
p4656
aa(lp4657
V27-06-2018
p4658
aV10
p4659
aVnr
p4660
aV13
p4661
aVnr
p4662
aV5
aVnr
p4663
aVnr
p4664
aV30
p4665
aV17
p4666
aVnr
p4667
aV4
aVnr
p4668
aVnr
p4669
aV13
p4670
aV8
aV14
p4671
aVnr
p4672
aV37
p4673
aVnr
p4674
aV23
p4675
aVnr
p4676
aV14
p4677
aVnr
p4678
aV39
p4679
aV21
p4680
aVnr
p4681
aV25
p4682
aV27
p4683
aVnr
p4684
aV12
p4685
aV11
p4686
aVnr
p4687
aVnr
p4688
aVnr
p4689
aVnr
p4690
aVnr
p4691
aVnr
p4692
aV37
p4693
aV22
p4694
aVnr
p4695
aV8
aV22
p4696
aV7
aV41
p4697
aa(lp4698
V27-06-2018
p4699
aV11
p4700
aVnr
p4701
aV10
p4702
aVnr
p4703
aV8
aVnr
p4704
aVnr
p4705
aV16
p4706
aV13
p4707
aVnr
p4708
aV2
aVnr
p4709
aVnr
p4710
aV9
aV6
aV11
p4711
aVnr
p4712
aV24
p4713
aVnr
p4714
aV20
p4715
aVnr
p4716
aV11
p4717
aVnr
p4718
aV30
p4719
aV15
p4720
aVnr
p4721
aV19
p4722
aV13
p4723
aVnr
p4724
aV8
aV8
aVnr
p4725
aVnr
p4726
aVnr
p4727
aVnr
p4728
aVnr
p4729
aVnr
p4730
aV32
p4731
aV10
p4732
aVnr
p4733
aV7
aV9
aV4
aV25
p4734
aa(lp4735
V27-06-2018
p4736
aV12
p4737
aVnr
p4738
aV6
aVnr
p4739
aV11
p4740
aVnr
p4741
aVnr
p4742
aV13
p4743
aV6
aVnr
p4744
aV1
aVnr
p4745
aVnr
p4746
aV8
aV3
aVnr
p4747
aVnr
p4748
aV15
p4749
aVnr
p4750
aV12
p4751
aVnr
p4752
aV6
aVnr
p4753
aV20
p4754
aV10
p4755
aVnr
p4756
aVnr
p4757
aV7
aVnr
p4758
aV4
aV8
aVnr
p4759
aVnr
p4760
aVnr
p4761
aVnr
p4762
aVnr
p4763
aVnr
p4764
aV17
p4765
aVnr
p4766
aVnr
p4767
aV4
aV3
aV2
aV15
p4768
aa(lp4769
V27-06-2018
p4770
aV13
p4771
aVnr
p4772
aV3
aVnr
p4773
aV5
aVnr
p4774
aVnr
p4775
aV8
aV3
aVnr
p4776
aV0
aVnr
p4777
aVnr
p4778
aV6
aV2
aVnr
p4779
aVnr
p4780
aV10
p4781
aVnr
p4782
aV5
aVnr
p4783
aV3
aVnr
p4784
aV17
p4785
aV8
aVnr
p4786
aV4
aV3
aVnr
p4787
aV1
aV4
aVnr
p4788
aVnr
p4789
aVnr
p4790
aVnr
p4791
aVnr
p4792
aVnr
p4793
aV14
p4794
aVnr
p4795
aVnr
p4796
aV2
aV2
aV2
aV8
aa(lp4797
V27-06-2018
p4798
aV14
p4799
aVnr
p4800
aV2
aVnr
p4801
aV2
aVnr
p4802
aVnr
p4803
aV4
aV1
aVnr
p4804
aV0
aVnr
p4805
aVnr
p4806
aV4
aV2
aVnr
p4807
aVnr
p4808
aV4
aVnr
p4809
aV5
aVnr
p4810
aV2
aVnr
p4811
aV8
aV6
aVnr
p4812
aV2
aV1
aVnr
p4813
aV1
aV3
aVnr
p4814
aVnr
p4815
aVnr
p4816
aVnr
p4817
aVnr
p4818
aVnr
p4819
aV9
aVnr
p4820
aVnr
p4821
aV2
aV1
aV1
aV8
aa(lp4822
V27-06-2018
p4823
aV15
p4824
aVnr
p4825
aV2
aVnr
p4826
aV2
aVnr
p4827
aVnr
p4828
aV2
aV2
aVnr
p4829
aV0
aVnr
p4830
aVnr
p4831
aV3
aV2
aV5
aVnr
p4832
aV2
aVnr
p4833
aV2
aVnr
p4834
aV2
aVnr
p4835
aV2
aV3
aVnr
p4836
aV1
aV1
aVnr
p4837
aV1
aV2
aVnr
p4838
aVnr
p4839
aVnr
p4840
aVnr
p4841
aVnr
p4842
aVnr
p4843
aV6
aVnr
p4844
aVnr
p4845
aV2
aV1
aV0
aV6
aa(lp4846
V27-06-2018
p4847
aV16
p4848
aVnr
p4849
aV3
aVnr
p4850
aV1
aVnr
p4851
aVnr
p4852
aV3
aV2
aVnr
p4853
aV1
aVnr
p4854
aVnr
p4855
aV2
aV2
aV6
aVnr
p4856
aV1
aVnr
p4857
aV4
aVnr
p4858
aV1
aVnr
p4859
aV2
aV2
aVnr
p4860
aV1
aV1
aVnr
p4861
aV2
aV1
aVnr
p4862
aVnr
p4863
aVnr
p4864
aVnr
p4865
aVnr
p4866
aVnr
p4867
aV14
p4868
aV0
aVnr
p4869
aV2
aV0
aV0
aV4
aa(lp4870
V27-06-2018
p4871
aV17
p4872
aVnr
p4873
aV3
aVnr
p4874
aV2
aVnr
p4875
aVnr
p4876
aV4
aV1
aVnr
p4877
aV1
aVnr
p4878
aVnr
p4879
aV1
aV3
aV7
aVnr
p4880
aV1
aVnr
p4881
aV5
aVnr
p4882
aV1
aVnr
p4883
aV2
aV3
aVnr
p4884
aV1
aV0
aVnr
p4885
aV4
aV1
aVnr
p4886
aVnr
p4887
aVnr
p4888
aVnr
p4889
aVnr
p4890
aVnr
p4891
aV16
p4892
aV1
aVnr
p4893
aV2
aV2
aV2
aV11
p4894
aa(lp4895
V27-06-2018
p4896
aV18
p4897
aVnr
p4898
aV2
aVnr
p4899
aV4
aVnr
p4900
aVnr
p4901
aV7
aV2
aVnr
p4902
aV1
aVnr
p4903
aVnr
p4904
aV1
aV3
aV7
aVnr
p4905
aV1
aVnr
p4906
aV5
aVnr
p4907
aV2
aVnr
p4908
aV4
aV5
aVnr
p4909
aV2
aV0
aVnr
p4910
aV5
aV1
aVnr
p4911
aVnr
p4912
aVnr
p4913
aVnr
p4914
aVnr
p4915
aVnr
p4916
aV21
p4917
aV2
aVnr
p4918
aV2
aV1
aV1
aV16
p4919
aa(lp4920
V27-06-2018
p4921
aV19
p4922
aVnr
p4923
aV3
aVnr
p4924
aV4
aVnr
p4925
aVnr
p4926
aV8
aV2
aVnr
p4927
aV16
p4928
aVnr
p4929
aVnr
p4930
aV4
aV3
aV14
p4931
aVnr
p4932
aV3
aVnr
p4933
aV6
aVnr
p4934
aV1
aVnr
p4935
aV6
aV18
p4936
aVnr
p4937
aV1
aV1
aVnr
p4938
aV4
aV1
aVnr
p4939
aVnr
p4940
aVnr
p4941
aVnr
p4942
aVnr
p4943
aVnr
p4944
aV27
p4945
aV2
aVnr
p4946
aV2
aV1
aV2
aV18
p4947
aasS'rh'
p4948
(lp4949
(lp4950
V26-06-2018
p4951
aV20
p4952
aV70
p4953
aV69
p4954
aV90
p4955
aVnr
p4956
aV75
p4957
aVnr
p4958
aVnr
p4959
aVnr
p4960
aV84
p4961
aVnr
p4962
aVnr
p4963
aV84
p4964
aV76
p4965
aVnr
p4966
aV94
p4967
aV75
p4968
aVnr
p4969
aV89
p4970
aVnr
p4971
aVnr
p4972
aVnr
p4973
aV76
p4974
aV78
p4975
aV75
p4976
aV72
p4977
aV80
p4978
aVnr
p4979
aV64
p4980
aV38
p4981
aVnr
p4982
aV92
p4983
aVnr
p4984
aVnr
p4985
aV66
p4986
aVnr
p4987
aV83
p4988
aVnr
p4989
aVnr
p4990
aV69
p4991
aVnr
p4992
aV82
p4993
aV77
p4994
aa(lp4995
V26-06-2018
p4996
aV21
p4997
aV70
p4998
aV76
p4999
aV89
p5000
aVnr
p5001
aV76
p5002
aVnr
p5003
aVnr
p5004
aVnr
p5005
aV85
p5006
aVnr
p5007
aVnr
p5008
aV78
p5009
aV76
p5010
aVnr
p5011
aV88
p5012
aV70
p5013
aVnr
p5014
aV90
p5015
aVnr
p5016
aVnr
p5017
aVnr
p5018
aV73
p5019
aV78
p5020
aV81
p5021
aVnr
p5022
aV80
p5023
aVnr
p5024
aV64
p5025
aV37
p5026
aVnr
p5027
aV88
p5028
aVnr
p5029
aVnr
p5030
aV63
p5031
aVnr
p5032
aV78
p5033
aVnr
p5034
aVnr
p5035
aV69
p5036
aVnr
p5037
aV79
p5038
aV78
p5039
aa(lp5040
V26-06-2018
p5041
aV22
p5042
aV71
p5043
aV74
p5044
aV88
p5045
aVnr
p5046
aV72
p5047
aVnr
p5048
aVnr
p5049
aVnr
p5050
aV86
p5051
aVnr
p5052
aVnr
p5053
aV78
p5054
aV78
p5055
aVnr
p5056
aV86
p5057
aV70
p5058
aVnr
p5059
aV90
p5060
aVnr
p5061
aVnr
p5062
aVnr
p5063
aV75
p5064
aV79
p5065
aV83
p5066
aV67
p5067
aV80
p5068
aVnr
p5069
aV63
p5070
aV40
p5071
aVnr
p5072
aV86
p5073
aVnr
p5074
aVnr
p5075
aV74
p5076
aVnr
p5077
aV76
p5078
aVnr
p5079
aVnr
p5080
aV71
p5081
aVnr
p5082
aV78
p5083
aV76
p5084
aa(lp5085
V26-06-2018
p5086
aV23
p5087
aV72
p5088
aV79
p5089
aVnr
p5090
aVnr
p5091
aV79
p5092
aVnr
p5093
aVnr
p5094
aVnr
p5095
aV84
p5096
aVnr
p5097
aVnr
p5098
aV82
p5099
aV77
p5100
aVnr
p5101
aV84
p5102
aV75
p5103
aVnr
p5104
aV90
p5105
aVnr
p5106
aVnr
p5107
aVnr
p5108
aV76
p5109
aV78
p5110
aV80
p5111
aV67
p5112
aV79
p5113
aVnr
p5114
aV65
p5115
aV43
p5116
aVnr
p5117
aV91
p5118
aVnr
p5119
aVnr
p5120
aV80
p5121
aVnr
p5122
aV76
p5123
aVnr
p5124
aVnr
p5125
aV81
p5126
aVnr
p5127
aV77
p5128
aV75
p5129
aa(lp5130
V26-06-2018
p5131
aV24
p5132
aV84
p5133
aV75
p5134
aVnr
p5135
aVnr
p5136
aV83
p5137
aVnr
p5138
aVnr
p5139
aVnr
p5140
aV83
p5141
aVnr
p5142
aVnr
p5143
aV83
p5144
aV80
p5145
aVnr
p5146
aV84
p5147
aV80
p5148
aVnr
p5149
aV90
p5150
aVnr
p5151
aVnr
p5152
aVnr
p5153
aV79
p5154
aV80
p5155
aV80
p5156
aV70
p5157
aV84
p5158
aVnr
p5159
aV64
p5160
aV46
p5161
aVnr
p5162
aV93
p5163
aVnr
p5164
aVnr
p5165
aV81
p5166
aVnr
p5167
aV76
p5168
aVnr
p5169
aVnr
p5170
aV84
p5171
aVnr
p5172
aV78
p5173
aV75
p5174
aa(lp5175
V27-06-2018
p5176
aV1
aV84
p5177
aV78
p5178
aV89
p5179
aVnr
p5180
aV85
p5181
aVnr
p5182
aVnr
p5183
aVnr
p5184
aV83
p5185
aVnr
p5186
aVnr
p5187
aV84
p5188
aV83
p5189
aVnr
p5190
aV85
p5191
aV78
p5192
aVnr
p5193
aV91
p5194
aVnr
p5195
aVnr
p5196
aVnr
p5197
aV79
p5198
aV79
p5199
aV80
p5200
aV76
p5201
aV84
p5202
aVnr
p5203
aV69
p5204
aV49
p5205
aVnr
p5206
aV94
p5207
aVnr
p5208
aVnr
p5209
aV83
p5210
aVnr
p5211
aV75
p5212
aVnr
p5213
aVnr
p5214
aV85
p5215
aVnr
p5216
aV82
p5217
aV76
p5218
aa(lp5219
V27-06-2018
p5220
aV2
aV84
p5221
aV67
p5222
aV89
p5223
aVnr
p5224
aV86
p5225
aVnr
p5226
aVnr
p5227
aVnr
p5228
aV82
p5229
aVnr
p5230
aVnr
p5231
aV85
p5232
aV84
p5233
aVnr
p5234
aV86
p5235
aV77
p5236
aVnr
p5237
aV91
p5238
aVnr
p5239
aVnr
p5240
aVnr
p5241
aV78
p5242
aV79
p5243
aV77
p5244
aV76
p5245
aV84
p5246
aVnr
p5247
aV72
p5248
aV45
p5249
aVnr
p5250
aV90
p5251
aVnr
p5252
aVnr
p5253
aV83
p5254
aVnr
p5255
aV76
p5256
aVnr
p5257
aVnr
p5258
aV87
p5259
aVnr
p5260
aV84
p5261
aV77
p5262
aa(lp5263
V27-06-2018
p5264
aV3
aV84
p5265
aV64
p5266
aV90
p5267
aVnr
p5268
aV83
p5269
aVnr
p5270
aVnr
p5271
aVnr
p5272
aV81
p5273
aVnr
p5274
aVnr
p5275
aV84
p5276
aV90
p5277
aVnr
p5278
aV87
p5279
aV79
p5280
aVnr
p5281
aV91
p5282
aVnr
p5283
aVnr
p5284
aVnr
p5285
aV79
p5286
aV80
p5287
aV77
p5288
aV76
p5289
aV76
p5290
aVnr
p5291
aV72
p5292
aV47
p5293
aVnr
p5294
aV91
p5295
aVnr
p5296
aVnr
p5297
aV83
p5298
aVnr
p5299
aV77
p5300
aVnr
p5301
aVnr
p5302
aV88
p5303
aVnr
p5304
aV85
p5305
aV78
p5306
aa(lp5307
V27-06-2018
p5308
aV4
aV86
p5309
aV61
p5310
aV91
p5311
aVnr
p5312
aV87
p5313
aVnr
p5314
aVnr
p5315
aVnr
p5316
aV83
p5317
aVnr
p5318
aVnr
p5319
aV86
p5320
aV88
p5321
aVnr
p5322
aV89
p5323
aV80
p5324
aVnr
p5325
aV91
p5326
aVnr
p5327
aVnr
p5328
aVnr
p5329
aV80
p5330
aV76
p5331
aV73
p5332
aV76
p5333
aV77
p5334
aVnr
p5335
aV70
p5336
aV48
p5337
aVnr
p5338
aV92
p5339
aVnr
p5340
aVnr
p5341
aV84
p5342
aVnr
p5343
aV79
p5344
aVnr
p5345
aVnr
p5346
aV87
p5347
aVnr
p5348
aV86
p5349
aV78
p5350
aa(lp5351
V27-06-2018
p5352
aV5
aV87
p5353
aV61
p5354
aV89
p5355
aVnr
p5356
aV87
p5357
aVnr
p5358
aVnr
p5359
aVnr
p5360
aV85
p5361
aVnr
p5362
aVnr
p5363
aV83
p5364
aV91
p5365
aVnr
p5366
aV91
p5367
aV81
p5368
aVnr
p5369
aV91
p5370
aVnr
p5371
aVnr
p5372
aVnr
p5373
aV84
p5374
aV78
p5375
aV69
p5376
aVnr
p5377
aV80
p5378
aVnr
p5379
aV70
p5380
aV43
p5381
aVnr
p5382
aV97
p5383
aVnr
p5384
aVnr
p5385
aV84
p5386
aVnr
p5387
aV80
p5388
aVnr
p5389
aVnr
p5390
aV87
p5391
aVnr
p5392
aV86
p5393
aV78
p5394
aa(lp5395
V27-06-2018
p5396
aV6
aV87
p5397
aV67
p5398
aV92
p5399
aVnr
p5400
aV85
p5401
aVnr
p5402
aVnr
p5403
aVnr
p5404
aV88
p5405
aVnr
p5406
aVnr
p5407
aV82
p5408
aV91
p5409
aVnr
p5410
aV90
p5411
aV81
p5412
aVnr
p5413
aV91
p5414
aVnr
p5415
aVnr
p5416
aVnr
p5417
aV83
p5418
aV77
p5419
aV72
p5420
aV73
p5421
aV81
p5422
aVnr
p5423
aV67
p5424
aV44
p5425
aVnr
p5426
aV97
p5427
aVnr
p5428
aVnr
p5429
aV82
p5430
aVnr
p5431
aV80
p5432
aVnr
p5433
aVnr
p5434
aV85
p5435
aVnr
p5436
aV86
p5437
aV78
p5438
aa(lp5439
V27-06-2018
p5440
aV7
aV86
p5441
aV69
p5442
aV93
p5443
aVnr
p5444
aV86
p5445
aVnr
p5446
aVnr
p5447
aVnr
p5448
aV85
p5449
aVnr
p5450
aVnr
p5451
aV81
p5452
aV94
p5453
aVnr
p5454
aV90
p5455
aV78
p5456
aVnr
p5457
aV91
p5458
aVnr
p5459
aVnr
p5460
aVnr
p5461
aV83
p5462
aV77
p5463
aV76
p5464
aV75
p5465
aV76
p5466
aVnr
p5467
aV71
p5468
aV47
p5469
aVnr
p5470
aV96
p5471
aVnr
p5472
aVnr
p5473
aV80
p5474
aVnr
p5475
aV80
p5476
aVnr
p5477
aVnr
p5478
aV85
p5479
aVnr
p5480
aV89
p5481
aV76
p5482
aa(lp5483
V27-06-2018
p5484
aV8
aV83
p5485
aV69
p5486
aV87
p5487
aVnr
p5488
aV75
p5489
aVnr
p5490
aVnr
p5491
aVnr
p5492
aV79
p5493
aVnr
p5494
aVnr
p5495
aV75
p5496
aV91
p5497
aVnr
p5498
aV84
p5499
aV74
p5500
aVnr
p5501
aV92
p5502
aVnr
p5503
aVnr
p5504
aVnr
p5505
aV80
p5506
aV75
p5507
aV70
p5508
aV72
p5509
aV73
p5510
aVnr
p5511
aV67
p5512
aV45
p5513
aVnr
p5514
aV90
p5515
aVnr
p5516
aVnr
p5517
aV79
p5518
aVnr
p5519
aV78
p5520
aVnr
p5521
aVnr
p5522
aV81
p5523
aVnr
p5524
aV86
p5525
aV71
p5526
aa(lp5527
V27-06-2018
p5528
aV9
aV75
p5529
aV67
p5530
aV77
p5531
aVnr
p5532
aV67
p5533
aVnr
p5534
aVnr
p5535
aVnr
p5536
aV67
p5537
aVnr
p5538
aVnr
p5539
aV78
p5540
aV80
p5541
aVnr
p5542
aV74
p5543
aV66
p5544
aVnr
p5545
aV88
p5546
aVnr
p5547
aVnr
p5548
aVnr
p5549
aV71
p5550
aV73
p5551
aV65
p5552
aV66
p5553
aV67
p5554
aVnr
p5555
aV61
p5556
aV42
p5557
aVnr
p5558
aV84
p5559
aVnr
p5560
aVnr
p5561
aV70
p5562
aVnr
p5563
aV70
p5564
aVnr
p5565
aVnr
p5566
aV72
p5567
aVnr
p5568
aV84
p5569
aV64
p5570
aa(lp5571
V27-06-2018
p5572
aV10
p5573
aV67
p5574
aV63
p5575
aV66
p5576
aVnr
p5577
aV60
p5578
aVnr
p5579
aVnr
p5580
aVnr
p5581
aV61
p5582
aVnr
p5583
aVnr
p5584
aV70
p5585
aV68
p5586
aVnr
p5587
aV69
p5588
aV52
p5589
aVnr
p5590
aV70
p5591
aVnr
p5592
aVnr
p5593
aVnr
p5594
aV61
p5595
aV60
p5596
aV67
p5597
aV59
p5598
aV62
p5599
aVnr
p5600
aV50
p5601
aV46
p5602
aVnr
p5603
aV71
p5604
aVnr
p5605
aVnr
p5606
aV60
p5607
aVnr
p5608
aV56
p5609
aVnr
p5610
aVnr
p5611
aV55
p5612
aVnr
p5613
aV73
p5614
aV56
p5615
aa(lp5616
V27-06-2018
p5617
aV11
p5618
aV65
p5619
aV56
p5620
aV64
p5621
aVnr
p5622
aV48
p5623
aVnr
p5624
aVnr
p5625
aVnr
p5626
aV56
p5627
aVnr
p5628
aVnr
p5629
aV62
p5630
aV59
p5631
aVnr
p5632
aV58
p5633
aV44
p5634
aVnr
p5635
aV66
p5636
aVnr
p5637
aVnr
p5638
aVnr
p5639
aV52
p5640
aV48
p5641
aV62
p5642
aV56
p5643
aV54
p5644
aVnr
p5645
aV40
p5646
aV45
p5647
aVnr
p5648
aV59
p5649
aVnr
p5650
aVnr
p5651
aV49
p5652
aVnr
p5653
aV49
p5654
aVnr
p5655
aVnr
p5656
aV48
p5657
aVnr
p5658
aV60
p5659
aV52
p5660
aa(lp5661
V27-06-2018
p5662
aV12
p5663
aV55
p5664
aV49
p5665
aV66
p5666
aVnr
p5667
aV42
p5668
aVnr
p5669
aVnr
p5670
aVnr
p5671
aV48
p5672
aVnr
p5673
aVnr
p5674
aV56
p5675
aV54
p5676
aVnr
p5677
aV49
p5678
aV41
p5679
aVnr
p5680
aV71
p5681
aVnr
p5682
aVnr
p5683
aVnr
p5684
aV47
p5685
aV38
p5686
aV56
p5687
aVnr
p5688
aV46
p5689
aVnr
p5690
aV32
p5691
aV52
p5692
aVnr
p5693
aV50
p5694
aVnr
p5695
aVnr
p5696
aV45
p5697
aVnr
p5698
aV42
p5699
aVnr
p5700
aVnr
p5701
aV43
p5702
aVnr
p5703
aV50
p5704
aV43
p5705
aa(lp5706
V27-06-2018
p5707
aV13
p5708
aV50
p5709
aV43
p5710
aV70
p5711
aVnr
p5712
aV36
p5713
aVnr
p5714
aVnr
p5715
aVnr
p5716
aV44
p5717
aVnr
p5718
aVnr
p5719
aV47
p5720
aV50
p5721
aVnr
p5722
aV47
p5723
aV35
p5724
aVnr
p5725
aV72
p5726
aVnr
p5727
aVnr
p5728
aVnr
p5729
aV42
p5730
aV36
p5731
aV54
p5732
aV40
p5733
aV39
p5734
aVnr
p5735
aV29
p5736
aV46
p5737
aVnr
p5738
aV43
p5739
aVnr
p5740
aVnr
p5741
aV39
p5742
aVnr
p5743
aV39
p5744
aVnr
p5745
aVnr
p5746
aV37
p5747
aVnr
p5748
aV43
p5749
aV39
p5750
aa(lp5751
V27-06-2018
p5752
aV14
p5753
aV44
p5754
aV37
p5755
aV73
p5756
aVnr
p5757
aV33
p5758
aVnr
p5759
aVnr
p5760
aVnr
p5761
aV44
p5762
aVnr
p5763
aVnr
p5764
aV42
p5765
aV44
p5766
aVnr
p5767
aV42
p5768
aV33
p5769
aVnr
p5770
aV65
p5771
aVnr
p5772
aVnr
p5773
aVnr
p5774
aV38
p5775
aV33
p5776
aV53
p5777
aV36
p5778
aV35
p5779
aVnr
p5780
aV29
p5781
aV43
p5782
aVnr
p5783
aV40
p5784
aVnr
p5785
aVnr
p5786
aV36
p5787
aVnr
p5788
aV37
p5789
aVnr
p5790
aVnr
p5791
aV33
p5792
aVnr
p5793
aV42
p5794
aV37
p5795
aa(lp5796
V27-06-2018
p5797
aV15
p5798
aV40
p5799
aV36
p5800
aV79
p5801
aVnr
p5802
aV34
p5803
aVnr
p5804
aVnr
p5805
aVnr
p5806
aV42
p5807
aVnr
p5808
aVnr
p5809
aV41
p5810
aV40
p5811
aVnr
p5812
aV40
p5813
aV32
p5814
aVnr
p5815
aV67
p5816
aVnr
p5817
aVnr
p5818
aVnr
p5819
aV36
p5820
aV32
p5821
aV55
p5822
aV37
p5823
aV35
p5824
aVnr
p5825
aV27
p5826
aV41
p5827
aVnr
p5828
aV40
p5829
aVnr
p5830
aVnr
p5831
aV37
p5832
aVnr
p5833
aV35
p5834
aVnr
p5835
aVnr
p5836
aV34
p5837
aVnr
p5838
aV39
p5839
aV35
p5840
aa(lp5841
V27-06-2018
p5842
aV16
p5843
aV46
p5844
aV42
p5845
aV92
p5846
aVnr
p5847
aV36
p5848
aVnr
p5849
aVnr
p5850
aVnr
p5851
aV51
p5852
aVnr
p5853
aVnr
p5854
aV42
p5855
aV38
p5856
aVnr
p5857
aV40
p5858
aV32
p5859
aVnr
p5860
aV69
p5861
aVnr
p5862
aVnr
p5863
aVnr
p5864
aV36
p5865
aV31
p5866
aV48
p5867
aV39
p5868
aV39
p5869
aVnr
p5870
aV27
p5871
aV41
p5872
aVnr
p5873
aV38
p5874
aVnr
p5875
aVnr
p5876
aV37
p5877
aVnr
p5878
aV33
p5879
aVnr
p5880
aVnr
p5881
aV43
p5882
aVnr
p5883
aV42
p5884
aV34
p5885
aa(lp5886
V27-06-2018
p5887
aV17
p5888
aV70
p5889
aV41
p5890
aV84
p5891
aVnr
p5892
aV40
p5893
aVnr
p5894
aVnr
p5895
aVnr
p5896
aV52
p5897
aVnr
p5898
aVnr
p5899
aV48
p5900
aV56
p5901
aVnr
p5902
aV49
p5903
aV41
p5904
aVnr
p5905
aV62
p5906
aVnr
p5907
aVnr
p5908
aVnr
p5909
aV42
p5910
aV36
p5911
aV49
p5912
aV44
p5913
aV42
p5914
aVnr
p5915
aV37
p5916
aV47
p5917
aVnr
p5918
aV45
p5919
aVnr
p5920
aVnr
p5921
aV38
p5922
aVnr
p5923
aV40
p5924
aVnr
p5925
aVnr
p5926
aV44
p5927
aVnr
p5928
aV55
p5929
aV46
p5930
aa(lp5931
V27-06-2018
p5932
aV18
p5933
aV66
p5934
aV42
p5935
aV82
p5936
aVnr
p5937
aV46
p5938
aVnr
p5939
aVnr
p5940
aVnr
p5941
aV71
p5942
aVnr
p5943
aVnr
p5944
aV52
p5945
aV59
p5946
aVnr
p5947
aV55
p5948
aV49
p5949
aVnr
p5950
aV65
p5951
aVnr
p5952
aVnr
p5953
aVnr
p5954
aV49
p5955
aV46
p5956
aV50
p5957
aV47
p5958
aV46
p5959
aVnr
p5960
aV40
p5961
aV53
p5962
aVnr
p5963
aV54
p5964
aVnr
p5965
aVnr
p5966
aV41
p5967
aVnr
p5968
aV47
p5969
aVnr
p5970
aVnr
p5971
aV43
p5972
aVnr
p5973
aV54
p5974
aV49
p5975
aa(lp5976
V27-06-2018
p5977
aV19
p5978
aV64
p5979
aV52
p5980
aV85
p5981
aVnr
p5982
aV50
p5983
aVnr
p5984
aVnr
p5985
aVnr
p5986
aV83
p5987
aVnr
p5988
aVnr
p5989
aV64
p5990
aV64
p5991
aVnr
p5992
aV58
p5993
aV50
p5994
aVnr
p5995
aV73
p5996
aVnr
p5997
aVnr
p5998
aVnr
p5999
aV52
p6000
aV60
p6001
aV60
p6002
aV52
p6003
aV52
p6004
aVnr
p6005
aV39
p6006
aV62
p6007
aVnr
p6008
aV56
p6009
aVnr
p6010
aVnr
p6011
aV56
p6012
aVnr
p6013
aV48
p6014
aVnr
p6015
aVnr
p6016
aV51
p6017
aVnr
p6018
aV56
p6019
aV49
p6020
aasS'wsp'
p6021
(lp6022
(lp6023
V26-06-2018
p6024
aV20
p6025
aV1.7
p6026
aV3.3
p6027
aV2.5
p6028
aVnr
p6029
aV1.9
p6030
aVnr
p6031
aVnr
p6032
aVnr
p6033
aV1
aVnr
p6034
aVnr
p6035
aV1.7
p6036
aV2.3
p6037
aV1.5
p6038
aV2.7
p6039
aV1.9
p6040
aVnr
p6041
aV0.6
p6042
aVnr
p6043
aVnr
p6044
aVnr
p6045
aV3.3
p6046
aV2.3
p6047
aV1.8
p6048
aV3.3
p6049
aV2.1
p6050
aVnr
p6051
aV0.7
p6052
aVnr
p6053
aVnr
p6054
aVnr
p6055
aVnr
p6056
aVnr
p6057
aV3
aVnr
p6058
aV0.9
p6059
aVnr
p6060
aVnr
p6061
aV2.8
p6062
aV3.1
p6063
aV3.1
p6064
aV1.8
p6065
aa(lp6066
V26-06-2018
p6067
aV21
p6068
aV1.4
p6069
aV2.5
p6070
aV2.8
p6071
aVnr
p6072
aV1.4
p6073
aVnr
p6074
aVnr
p6075
aVnr
p6076
aV0.8
p6077
aVnr
p6078
aVnr
p6079
aVnr
p6080
aV1.1
p6081
aV1
aV1.9
p6082
aV1.9
p6083
aVnr
p6084
aVnr
p6085
aVnr
p6086
aVnr
p6087
aVnr
p6088
aV2.5
p6089
aV1.7
p6090
aV2.3
p6091
aVnr
p6092
aV1.4
p6093
aVnr
p6094
aV0.8
p6095
aVnr
p6096
aVnr
p6097
aVnr
p6098
aVnr
p6099
aVnr
p6100
aV1.6
p6101
aVnr
p6102
aV1.7
p6103
aVnr
p6104
aVnr
p6105
aV1.7
p6106
aV2.1
p6107
aV2.5
p6108
aV1.7
p6109
aa(lp6110
V26-06-2018
p6111
aV22
p6112
aV2.1
p6113
aV1.3
p6114
aV1.3
p6115
aVnr
p6116
aV1.3
p6117
aVnr
p6118
aVnr
p6119
aVnr
p6120
aV0.7
p6121
aVnr
p6122
aVnr
p6123
aV1.3
p6124
aV1.7
p6125
aV0.7
p6126
aV1.1
p6127
aV1.5
p6128
aVnr
p6129
aV0.7
p6130
aVnr
p6131
aVnr
p6132
aVnr
p6133
aV2.2
p6134
aV1.1
p6135
aV0.8
p6136
aV1.7
p6137
aV1.3
p6138
aVnr
p6139
aV1.1
p6140
aVnr
p6141
aVnr
p6142
aVnr
p6143
aVnr
p6144
aVnr
p6145
aV1.4
p6146
aVnr
p6147
aV1.8
p6148
aVnr
p6149
aVnr
p6150
aV1.3
p6151
aV1.6
p6152
aV0.8
p6153
aV0.8
p6154
aa(lp6155
V26-06-2018
p6156
aV23
p6157
aV1.9
p6158
aV2
aVnr
p6159
aVnr
p6160
aV0.7
p6161
aVnr
p6162
aVnr
p6163
aVnr
p6164
aV0.6
p6165
aVnr
p6166
aVnr
p6167
aV1.1
p6168
aV2.1
p6169
aV0.7
p6170
aV1.1
p6171
aV0.4
p6172
aVnr
p6173
aV0.8
p6174
aVnr
p6175
aVnr
p6176
aVnr
p6177
aV1.3
p6178
aV0.8
p6179
aV1.9
p6180
aV1.9
p6181
aV0.9
p6182
aVnr
p6183
aV0.6
p6184
aVnr
p6185
aVnr
p6186
aVnr
p6187
aVnr
p6188
aVnr
p6189
aV1.2
p6190
aVnr
p6191
aV0.6
p6192
aVnr
p6193
aVnr
p6194
aV1.2
p6195
aV1.9
p6196
aV1
aV1.4
p6197
aa(lp6198
V26-06-2018
p6199
aV24
p6200
aV1.6
p6201
aV2.2
p6202
aVnr
p6203
aVnr
p6204
aV0.7
p6205
aVnr
p6206
aVnr
p6207
aVnr
p6208
aV2
aVnr
p6209
aVnr
p6210
aV0.6
p6211
aV1.6
p6212
aV1
aV1.3
p6213
aV0.9
p6214
aVnr
p6215
aV0.6
p6216
aVnr
p6217
aVnr
p6218
aVnr
p6219
aV1.3
p6220
aV1.4
p6221
aV1.7
p6222
aV1.6
p6223
aV0.8
p6224
aVnr
p6225
aV0.2
p6226
aVnr
p6227
aVnr
p6228
aVnr
p6229
aVnr
p6230
aVnr
p6231
aV0.9
p6232
aVnr
p6233
aV1.4
p6234
aVnr
p6235
aVnr
p6236
aV1.1
p6237
aV1.1
p6238
aVnr
p6239
aV1.1
p6240
aa(lp6241
V27-06-2018
p6242
aV1
aV1.1
p6243
aV2.3
p6244
aV2.9
p6245
aVnr
p6246
aV0.4
p6247
aVnr
p6248
aVnr
p6249
aVnr
p6250
aV2.2
p6251
aVnr
p6252
aVnr
p6253
aV1
aVnr
p6254
aV0.5
p6255
aV0.8
p6256
aV1
aVnr
p6257
aV1.1
p6258
aVnr
p6259
aVnr
p6260
aVnr
p6261
aV1.7
p6262
aV1.3
p6263
aV0.9
p6264
aV1.7
p6265
aV0.7
p6266
aVnr
p6267
aV0.8
p6268
aVnr
p6269
aVnr
p6270
aVnr
p6271
aVnr
p6272
aVnr
p6273
aV1.4
p6274
aVnr
p6275
aV2.1
p6276
aVnr
p6277
aVnr
p6278
aV1.4
p6279
aV1.3
p6280
aV0.8
p6281
aV0.3
p6282
aa(lp6283
V27-06-2018
p6284
aV2
aV0.7
p6285
aV4.4
p6286
aV3.4
p6287
aVnr
p6288
aV0.8
p6289
aVnr
p6290
aVnr
p6291
aVnr
p6292
aV1.6
p6293
aVnr
p6294
aVnr
p6295
aV0.8
p6296
aV1.4
p6297
aV1.3
p6298
aV0.6
p6299
aV1.2
p6300
aVnr
p6301
aV0.7
p6302
aVnr
p6303
aVnr
p6304
aVnr
p6305
aV1.5
p6306
aV1.3
p6307
aV1.2
p6308
aV1.3
p6309
aV0.5
p6310
aVnr
p6311
aV0.5
p6312
aVnr
p6313
aVnr
p6314
aVnr
p6315
aVnr
p6316
aVnr
p6317
aV0.9
p6318
aVnr
p6319
aV2.2
p6320
aVnr
p6321
aVnr
p6322
aV0.9
p6323
aV1
aV0.9
p6324
aV1.5
p6325
aa(lp6326
V27-06-2018
p6327
aV3
aVnr
p6328
aV6
aV3.7
p6329
aVnr
p6330
aV0.6
p6331
aVnr
p6332
aVnr
p6333
aVnr
p6334
aV1.4
p6335
aVnr
p6336
aVnr
p6337
aV0.5
p6338
aV0.9
p6339
aV1.1
p6340
aVnr
p6341
aV0.6
p6342
aVnr
p6343
aVnr
p6344
aVnr
p6345
aVnr
p6346
aVnr
p6347
aV1.9
p6348
aV0.9
p6349
aVnr
p6350
aV1.1
p6351
aV1.6
p6352
aVnr
p6353
aV0.6
p6354
aVnr
p6355
aVnr
p6356
aVnr
p6357
aVnr
p6358
aVnr
p6359
aV0.8
p6360
aVnr
p6361
aV1.8
p6362
aVnr
p6363
aVnr
p6364
aV0.6
p6365
aV0.7
p6366
aV0.8
p6367
aV2.3
p6368
aa(lp6369
V27-06-2018
p6370
aV4
aV0.6
p6371
aV5.6
p6372
aV3.1
p6373
aVnr
p6374
aV0.7
p6375
aVnr
p6376
aVnr
p6377
aVnr
p6378
aV1.7
p6379
aVnr
p6380
aVnr
p6381
aV0.8
p6382
aV0.7
p6383
aV0.9
p6384
aV1.1
p6385
aV0.7
p6386
aVnr
p6387
aV0.9
p6388
aVnr
p6389
aVnr
p6390
aVnr
p6391
aV1.7
p6392
aV0.8
p6393
aV2.4
p6394
aV1.7
p6395
aV1.3
p6396
aVnr
p6397
aV0.4
p6398
aVnr
p6399
aVnr
p6400
aVnr
p6401
aVnr
p6402
aVnr
p6403
aV0.9
p6404
aVnr
p6405
aV1.7
p6406
aVnr
p6407
aVnr
p6408
aV1.5
p6409
aV1.1
p6410
aV0.6
p6411
aV1.7
p6412
aa(lp6413
V27-06-2018
p6414
aV5
aV1.3
p6415
aV2.8
p6416
aV3
aVnr
p6417
aVnr
p6418
aVnr
p6419
aVnr
p6420
aVnr
p6421
aV1.1
p6422
aVnr
p6423
aVnr
p6424
aV1.1
p6425
aV0.9
p6426
aV0.5
p6427
aV0.2
p6428
aV0.7
p6429
aVnr
p6430
aV1.1
p6431
aVnr
p6432
aVnr
p6433
aVnr
p6434
aV1.3
p6435
aV0.5
p6436
aV3.2
p6437
aVnr
p6438
aV1.2
p6439
aVnr
p6440
aV0.5
p6441
aVnr
p6442
aVnr
p6443
aVnr
p6444
aVnr
p6445
aVnr
p6446
aV1
aVnr
p6447
aV1.4
p6448
aVnr
p6449
aVnr
p6450
aV1.3
p6451
aV0.7
p6452
aV0.9
p6453
aV1.9
p6454
aa(lp6455
V27-06-2018
p6456
aV6
aV1
aV2.1
p6457
aV3.6
p6458
aVnr
p6459
aVnr
p6460
aVnr
p6461
aVnr
p6462
aVnr
p6463
aV0.9
p6464
aVnr
p6465
aVnr
p6466
aV0.8
p6467
aV0.7
p6468
aV0.8
p6469
aV0.8
p6470
aV1.6
p6471
aVnr
p6472
aV0.7
p6473
aVnr
p6474
aVnr
p6475
aVnr
p6476
aV1.7
p6477
aV0.9
p6478
aV2.1
p6479
aV1.1
p6480
aV1.7
p6481
aVnr
p6482
aV0.7
p6483
aVnr
p6484
aVnr
p6485
aVnr
p6486
aVnr
p6487
aVnr
p6488
aV0.8
p6489
aVnr
p6490
aV1.3
p6491
aVnr
p6492
aVnr
p6493
aV0.9
p6494
aV0.9
p6495
aVnr
p6496
aV1.6
p6497
aa(lp6498
V27-06-2018
p6499
aV7
aV1.1
p6500
aV1.7
p6501
aV3.7
p6502
aVnr
p6503
aV0.8
p6504
aVnr
p6505
aVnr
p6506
aVnr
p6507
aV1.5
p6508
aVnr
p6509
aVnr
p6510
aV1.1
p6511
aV0.4
p6512
aV0.5
p6513
aV0.3
p6514
aV0.4
p6515
aVnr
p6516
aV0.8
p6517
aVnr
p6518
aVnr
p6519
aVnr
p6520
aV1.1
p6521
aV0.7
p6522
aV1.9
p6523
aV1.6
p6524
aV1.3
p6525
aVnr
p6526
aV1.1
p6527
aVnr
p6528
aVnr
p6529
aVnr
p6530
aVnr
p6531
aVnr
p6532
aV0.7
p6533
aVnr
p6534
aV0.8
p6535
aVnr
p6536
aVnr
p6537
aV1.3
p6538
aV1.3
p6539
aV1
aV1.8
p6540
aa(lp6541
V27-06-2018
p6542
aV8
aVnr
p6543
aV1.5
p6544
aV2.1
p6545
aVnr
p6546
aV1.3
p6547
aVnr
p6548
aVnr
p6549
aVnr
p6550
aV0.8
p6551
aVnr
p6552
aVnr
p6553
aVnr
p6554
aV0.5
p6555
aV0.8
p6556
aV1.1
p6557
aV0.6
p6558
aVnr
p6559
aV0.9
p6560
aVnr
p6561
aVnr
p6562
aVnr
p6563
aV0.8
p6564
aV1.1
p6565
aV1.1
p6566
aV1.4
p6567
aV0.7
p6568
aVnr
p6569
aV0.8
p6570
aVnr
p6571
aVnr
p6572
aVnr
p6573
aVnr
p6574
aVnr
p6575
aV0.8
p6576
aVnr
p6577
aV1.8
p6578
aVnr
p6579
aVnr
p6580
aV1.3
p6581
aV0.5
p6582
aV0.8
p6583
aV1.6
p6584
aa(lp6585
V27-06-2018
p6586
aV9
aV1.3
p6587
aV2.4
p6588
aV1.9
p6589
aVnr
p6590
aVnr
p6591
aVnr
p6592
aVnr
p6593
aVnr
p6594
aVnr
p6595
aVnr
p6596
aVnr
p6597
aV1.6
p6598
aV0.8
p6599
aV1.3
p6600
aV1.4
p6601
aV1.7
p6602
aVnr
p6603
aV1
aVnr
p6604
aVnr
p6605
aVnr
p6606
aV1.7
p6607
aV2
aV1.6
p6608
aV1.2
p6609
aV1.4
p6610
aVnr
p6611
aVnr
p6612
aVnr
p6613
aVnr
p6614
aVnr
p6615
aVnr
p6616
aVnr
p6617
aV1.3
p6618
aVnr
p6619
aV1.7
p6620
aVnr
p6621
aVnr
p6622
aV1.1
p6623
aV1.6
p6624
aV1.3
p6625
aV2.1
p6626
aa(lp6627
V27-06-2018
p6628
aV10
p6629
aVnr
p6630
aV2.7
p6631
aV2
aVnr
p6632
aV1.5
p6633
aVnr
p6634
aVnr
p6635
aVnr
p6636
aV1.4
p6637
aVnr
p6638
aVnr
p6639
aV1.4
p6640
aV1.5
p6641
aV1.6
p6642
aVnr
p6643
aV1
aVnr
p6644
aV1.6
p6645
aVnr
p6646
aVnr
p6647
aVnr
p6648
aVnr
p6649
aV1.4
p6650
aV2.5
p6651
aV1.6
p6652
aV1.8
p6653
aVnr
p6654
aV1
aVnr
p6655
aVnr
p6656
aVnr
p6657
aVnr
p6658
aVnr
p6659
aV1.9
p6660
aVnr
p6661
aV0.8
p6662
aVnr
p6663
aVnr
p6664
aV1.5
p6665
aV1.6
p6666
aV1.8
p6667
aV1.3
p6668
aa(lp6669
V27-06-2018
p6670
aV11
p6671
aV1.8
p6672
aV2.8
p6673
aV1.9
p6674
aVnr
p6675
aV1.6
p6676
aVnr
p6677
aVnr
p6678
aVnr
p6679
aV1.7
p6680
aVnr
p6681
aVnr
p6682
aV1.9
p6683
aV1.7
p6684
aV1.5
p6685
aV1.4
p6686
aV0.4
p6687
aVnr
p6688
aV1.3
p6689
aVnr
p6690
aVnr
p6691
aVnr
p6692
aV1.4
p6693
aV1.6
p6694
aV2.5
p6695
aV1.8
p6696
aV1.7
p6697
aVnr
p6698
aV1.3
p6699
aVnr
p6700
aVnr
p6701
aVnr
p6702
aVnr
p6703
aVnr
p6704
aVnr
p6705
aVnr
p6706
aV0.4
p6707
aVnr
p6708
aVnr
p6709
aV1.6
p6710
aV1.7
p6711
aV1.5
p6712
aV1.4
p6713
aa(lp6714
V27-06-2018
p6715
aV12
p6716
aV1.9
p6717
aV3.2
p6718
aV1.9
p6719
aVnr
p6720
aV1.8
p6721
aVnr
p6722
aVnr
p6723
aVnr
p6724
aV2
aVnr
p6725
aVnr
p6726
aV2.4
p6727
aV2.1
p6728
aV1.7
p6729
aV1.5
p6730
aV1
aVnr
p6731
aV1.8
p6732
aVnr
p6733
aVnr
p6734
aVnr
p6735
aV1.7
p6736
aV2
aV3.3
p6737
aVnr
p6738
aV2
aVnr
p6739
aV1.5
p6740
aVnr
p6741
aVnr
p6742
aVnr
p6743
aVnr
p6744
aVnr
p6745
aV2.3
p6746
aVnr
p6747
aV0.9
p6748
aVnr
p6749
aVnr
p6750
aV1.7
p6751
aV1.9
p6752
aV1.7
p6753
aV0.8
p6754
aa(lp6755
V27-06-2018
p6756
aV13
p6757
aV1.9
p6758
aV3.5
p6759
aV3
aVnr
p6760
aV2.2
p6761
aVnr
p6762
aVnr
p6763
aVnr
p6764
aV1.9
p6765
aVnr
p6766
aVnr
p6767
aV2.8
p6768
aV1.8
p6769
aV2
aV1.8
p6770
aV0.7
p6771
aVnr
p6772
aV1.1
p6773
aVnr
p6774
aVnr
p6775
aVnr
p6776
aV2.2
p6777
aV2.2
p6778
aV2.9
p6779
aV2.3
p6780
aV2.2
p6781
aVnr
p6782
aV1.4
p6783
aVnr
p6784
aVnr
p6785
aVnr
p6786
aVnr
p6787
aVnr
p6788
aV2.1
p6789
aVnr
p6790
aV0.8
p6791
aVnr
p6792
aVnr
p6793
aV1.7
p6794
aV2.1
p6795
aV2.2
p6796
aV1.6
p6797
aa(lp6798
V27-06-2018
p6799
aV14
p6800
aV2.1
p6801
aV3.4
p6802
aV3
aVnr
p6803
aV2.1
p6804
aVnr
p6805
aVnr
p6806
aVnr
p6807
aV1.6
p6808
aVnr
p6809
aVnr
p6810
aV2.6
p6811
aV2.2
p6812
aVnr
p6813
aV2.1
p6814
aV0.8
p6815
aVnr
p6816
aV2.1
p6817
aVnr
p6818
aVnr
p6819
aVnr
p6820
aV2.1
p6821
aV2.8
p6822
aV3.4
p6823
aV2.6
p6824
aV2.4
p6825
aVnr
p6826
aV1.3
p6827
aVnr
p6828
aVnr
p6829
aVnr
p6830
aVnr
p6831
aVnr
p6832
aV2.7
p6833
aVnr
p6834
aV0.7
p6835
aVnr
p6836
aVnr
p6837
aV2.1
p6838
aV1.9
p6839
aVnr
p6840
aV1.3
p6841
aa(lp6842
V27-06-2018
p6843
aV15
p6844
aV2.2
p6845
aV3.7
p6846
aV3
aVnr
p6847
aV2
aVnr
p6848
aVnr
p6849
aVnr
p6850
aV2
aVnr
p6851
aVnr
p6852
aV2.7
p6853
aV1.7
p6854
aV2.2
p6855
aV2
aV1.4
p6856
aVnr
p6857
aV2.6
p6858
aVnr
p6859
aVnr
p6860
aVnr
p6861
aV1.6
p6862
aV2
aV3.4
p6863
aV2.4
p6864
aV1.9
p6865
aVnr
p6866
aV1.4
p6867
aVnr
p6868
aVnr
p6869
aVnr
p6870
aVnr
p6871
aVnr
p6872
aV2.7
p6873
aVnr
p6874
aV1.5
p6875
aVnr
p6876
aVnr
p6877
aV1.8
p6878
aV1.9
p6879
aV1.8
p6880
aV0.8
p6881
aa(lp6882
V27-06-2018
p6883
aV16
p6884
aV3.2
p6885
aV5
aV3.1
p6886
aVnr
p6887
aV2.5
p6888
aVnr
p6889
aVnr
p6890
aVnr
p6891
aV3.1
p6892
aVnr
p6893
aVnr
p6894
aV2.2
p6895
aV2.1
p6896
aV1.9
p6897
aV2.1
p6898
aV1.6
p6899
aVnr
p6900
aV2.9
p6901
aVnr
p6902
aVnr
p6903
aVnr
p6904
aV2.3
p6905
aV2.5
p6906
aV2.5
p6907
aV2.8
p6908
aV1.9
p6909
aVnr
p6910
aV1.3
p6911
aVnr
p6912
aVnr
p6913
aVnr
p6914
aVnr
p6915
aVnr
p6916
aV3.1
p6917
aVnr
p6918
aV1.1
p6919
aVnr
p6920
aVnr
p6921
aV4.1
p6922
aV3
aV2.5
p6923
aV2.3
p6924
aa(lp6925
V27-06-2018
p6926
aV17
p6927
aV4.4
p6928
aV3.1
p6929
aV3.1
p6930
aVnr
p6931
aV2.2
p6932
aVnr
p6933
aVnr
p6934
aVnr
p6935
aV3.2
p6936
aVnr
p6937
aVnr
p6938
aV2.5
p6939
aV3.6
p6940
aV2.5
p6941
aV4
aV2.2
p6942
aVnr
p6943
aV1.8
p6944
aVnr
p6945
aVnr
p6946
aVnr
p6947
aV2.8
p6948
aV3.1
p6949
aV2.2
p6950
aV3.6
p6951
aV1.6
p6952
aVnr
p6953
aV2.8
p6954
aVnr
p6955
aVnr
p6956
aVnr
p6957
aVnr
p6958
aVnr
p6959
aV2
aVnr
p6960
aV3.3
p6961
aVnr
p6962
aVnr
p6963
aV3.1
p6964
aV2.8
p6965
aV4.6
p6966
aV6.4
p6967
aa(lp6968
V27-06-2018
p6969
aV18
p6970
aV4.4
p6971
aV2.8
p6972
aV3.3
p6973
aVnr
p6974
aV2.8
p6975
aVnr
p6976
aVnr
p6977
aVnr
p6978
aV1.8
p6979
aVnr
p6980
aVnr
p6981
aV2.6
p6982
aV2.2
p6983
aV3.1
p6984
aV4.3
p6985
aV3
aVnr
p6986
aV1.6
p6987
aVnr
p6988
aVnr
p6989
aVnr
p6990
aV3.6
p6991
aV3.6
p6992
aV1.7
p6993
aV4.2
p6994
aV2.5
p6995
aVnr
p6996
aV2.3
p6997
aVnr
p6998
aVnr
p6999
aVnr
p7000
aVnr
p7001
aVnr
p7002
aV2.1
p7003
aVnr
p7004
aV2.9
p7005
aVnr
p7006
aVnr
p7007
aV2.1
p7008
aV3.1
p7009
aV3
aV6.8
p7010
aa(lp7011
V27-06-2018
p7012
aV19
p7013
aV3
aV3.6
p7014
aV4.1
p7015
aVnr
p7016
aV2.5
p7017
aVnr
p7018
aVnr
p7019
aVnr
p7020
aV1.1
p7021
aVnr
p7022
aVnr
p7023
aV2.5
p7024
aV2.1
p7025
aV1.7
p7026
aV3.3
p7027
aV2.5
p7028
aVnr
p7029
aV1.5
p7030
aVnr
p7031
aVnr
p7032
aVnr
p7033
aV3.3
p7034
aV1.7
p7035
aV2.9
p7036
aV3
aV3.6
p7037
aVnr
p7038
aV2.2
p7039
aVnr
p7040
aVnr
p7041
aVnr
p7042
aVnr
p7043
aVnr
p7044
aV1.7
p7045
aVnr
p7046
aV1.9
p7047
aVnr
p7048
aVnr
p7049
aV2.1
p7050
aV3.3
p7051
aV3.4
p7052
aV5.6
p7053
aasS'wdr'
p7054
(lp7055
(lp7056
V26-06-2018
p7057
aV20
p7058
aV177
p7059
aV210
p7060
aV199
p7061
aVnr
p7062
aV307
p7063
aVnr
p7064
aVnr
p7065
aVnr
p7066
aV36
p7067
aVnr
p7068
aVnr
p7069
aV264
p7070
aV255
p7071
aV312
p7072
aV259
p7073
aV286
p7074
aVnr
p7075
aV174
p7076
aVnr
p7077
aVnr
p7078
aVnr
p7079
aV307
p7080
aV314
p7081
aV270
p7082
aV308
p7083
aV251
p7084
aVnr
p7085
aV279
p7086
aVnr
p7087
aVnr
p7088
aVnr
p7089
aVnr
p7090
aVnr
p7091
aV296
p7092
aVnr
p7093
aV296
p7094
aVnr
p7095
aVnr
p7096
aV314
p7097
aV312
p7098
aV260
p7099
aV260
p7100
aa(lp7101
V26-06-2018
p7102
aV21
p7103
aV349
p7104
aV141
p7105
aV190
p7106
aVnr
p7107
aV314
p7108
aVnr
p7109
aVnr
p7110
aVnr
p7111
aV179
p7112
aVnr
p7113
aVnr
p7114
aV264
p7115
aV317
p7116
aV292
p7117
aV250
p7118
aV262
p7119
aVnr
p7120
aV125
p7121
aVnr
p7122
aVnr
p7123
aVnr
p7124
aV294
p7125
aV306
p7126
aV131
p7127
aVnr
p7128
aV282
p7129
aVnr
p7130
aV81
p7131
aVnr
p7132
aVnr
p7133
aVnr
p7134
aVnr
p7135
aVnr
p7136
aV296
p7137
aVnr
p7138
aV339
p7139
aVnr
p7140
aVnr
p7141
aV343
p7142
aV306
p7143
aV267
p7144
aV239
p7145
aa(lp7146
V26-06-2018
p7147
aV22
p7148
aV30
p7149
aV203
p7150
aV195
p7151
aVnr
p7152
aV329
p7153
aVnr
p7154
aVnr
p7155
aVnr
p7156
aV164
p7157
aVnr
p7158
aVnr
p7159
aV249
p7160
aV359
p7161
aV268
p7162
aV242
p7163
aV263
p7164
aVnr
p7165
aV133
p7166
aVnr
p7167
aVnr
p7168
aVnr
p7169
aV294
p7170
aV337
p7171
aV62
p7172
aV277
p7173
aV233
p7174
aVnr
p7175
aV65
p7176
aVnr
p7177
aVnr
p7178
aVnr
p7179
aVnr
p7180
aVnr
p7181
aV155
p7182
aVnr
p7183
aV326
p7184
aVnr
p7185
aVnr
p7186
aV129
p7187
aV307
p7188
aV248
p7189
aV205
p7190
aa(lp7191
V26-06-2018
p7192
aV23
p7193
aV118
p7194
aV129
p7195
aVnr
p7196
aVnr
p7197
aV58
p7198
aVnr
p7199
aVnr
p7200
aVnr
p7201
aV157
p7202
aVnr
p7203
aVnr
p7204
aV228
p7205
aV6
aV214
p7206
aV227
p7207
aV163
p7208
aVnr
p7209
aV165
p7210
aVnr
p7211
aVnr
p7212
aVnr
p7213
aV248
p7214
aV352
p7215
aV237
p7216
aV260
p7217
aV162
p7218
aVnr
p7219
aV166
p7220
aVnr
p7221
aVnr
p7222
aVnr
p7223
aVnr
p7224
aVnr
p7225
aV288
p7226
aVnr
p7227
aV269
p7228
aVnr
p7229
aVnr
p7230
aV29
p7231
aV248
p7232
aV268
p7233
aV170
p7234
aa(lp7235
V26-06-2018
p7236
aV24
p7237
aV115
p7238
aV213
p7239
aVnr
p7240
aVnr
p7241
aV228
p7242
aVnr
p7243
aVnr
p7244
aVnr
p7245
aV144
p7246
aVnr
p7247
aVnr
p7248
aV238
p7249
aV358
p7250
aV283
p7251
aV252
p7252
aV221
p7253
aVnr
p7254
aV177
p7255
aVnr
p7256
aVnr
p7257
aVnr
p7258
aV208
p7259
aV257
p7260
aV131
p7261
aV237
p7262
aV240
p7263
aVnr
p7264
aV192
p7265
aVnr
p7266
aVnr
p7267
aVnr
p7268
aVnr
p7269
aVnr
p7270
aV134
p7271
aVnr
p7272
aV304
p7273
aVnr
p7274
aVnr
p7275
aV108
p7276
aV202
p7277
aV270
p7278
aV314
p7279
aa(lp7280
V27-06-2018
p7281
aV1
aV112
p7282
aV150
p7283
aV159
p7284
aVnr
p7285
aV166
p7286
aVnr
p7287
aVnr
p7288
aVnr
p7289
aV148
p7290
aVnr
p7291
aVnr
p7292
aV133
p7293
aV351
p7294
aV208
p7295
aV233
p7296
aV230
p7297
aVnr
p7298
aV130
p7299
aVnr
p7300
aVnr
p7301
aVnr
p7302
aV221
p7303
aV253
p7304
aV254
p7305
aV182
p7306
aV195
p7307
aVnr
p7308
aV115
p7309
aVnr
p7310
aVnr
p7311
aVnr
p7312
aVnr
p7313
aVnr
p7314
aV167
p7315
aVnr
p7316
aV307
p7317
aVnr
p7318
aVnr
p7319
aV134
p7320
aV176
p7321
aV309
p7322
aV280
p7323
aa(lp7324
V27-06-2018
p7325
aV2
aV53
p7326
aV160
p7327
aV196
p7328
aVnr
p7329
aV217
p7330
aVnr
p7331
aVnr
p7332
aVnr
p7333
aV151
p7334
aVnr
p7335
aVnr
p7336
aV156
p7337
aV353
p7338
aV278
p7339
aV219
p7340
aV225
p7341
aVnr
p7342
aV67
p7343
aVnr
p7344
aVnr
p7345
aVnr
p7346
aV237
p7347
aV297
p7348
aV143
p7349
aV222
p7350
aV137
p7351
aVnr
p7352
aV109
p7353
aVnr
p7354
aVnr
p7355
aVnr
p7356
aVnr
p7357
aVnr
p7358
aV18
p7359
aVnr
p7360
aV308
p7361
aVnr
p7362
aVnr
p7363
aV141
p7364
aV187
p7365
aV320
p7366
aV13
p7367
aa(lp7368
V27-06-2018
p7369
aV3
aV117
p7370
aV185
p7371
aV201
p7372
aVnr
p7373
aV316
p7374
aVnr
p7375
aVnr
p7376
aVnr
p7377
aV155
p7378
aVnr
p7379
aVnr
p7380
aV225
p7381
aV329
p7382
aV326
p7383
aV241
p7384
aV252
p7385
aVnr
p7386
aV41
p7387
aVnr
p7388
aVnr
p7389
aVnr
p7390
aV291
p7391
aV304
p7392
aV243
p7393
aV161
p7394
aV130
p7395
aVnr
p7396
aV108
p7397
aVnr
p7398
aVnr
p7399
aVnr
p7400
aVnr
p7401
aVnr
p7402
aV256
p7403
aVnr
p7404
aV295
p7405
aVnr
p7406
aVnr
p7407
aV100
p7408
aV211
p7409
aV19
p7410
aV49
p7411
aa(lp7412
V27-06-2018
p7413
aV4
aV344
p7414
aV192
p7415
aV191
p7416
aVnr
p7417
aV151
p7418
aVnr
p7419
aVnr
p7420
aVnr
p7421
aV162
p7422
aVnr
p7423
aVnr
p7424
aV291
p7425
aV326
p7426
aV229
p7427
aV266
p7428
aV241
p7429
aVnr
p7430
aV240
p7431
aVnr
p7432
aVnr
p7433
aVnr
p7434
aV284
p7435
aV253
p7436
aV161
p7437
aV157
p7438
aV204
p7439
aVnr
p7440
aV119
p7441
aVnr
p7442
aVnr
p7443
aVnr
p7444
aVnr
p7445
aVnr
p7446
aV315
p7447
aVnr
p7448
aV314
p7449
aVnr
p7450
aVnr
p7451
aV144
p7452
aV172
p7453
aV287
p7454
aV20
p7455
aa(lp7456
V27-06-2018
p7457
aV5
aV5
aV201
p7458
aV183
p7459
aVnr
p7460
aV203
p7461
aVnr
p7462
aVnr
p7463
aVnr
p7464
aV161
p7465
aVnr
p7466
aVnr
p7467
aV262
p7468
aV342
p7469
aV254
p7470
aV300
p7471
aV289
p7472
aVnr
p7473
aV155
p7474
aVnr
p7475
aVnr
p7476
aVnr
p7477
aV329
p7478
aV230
p7479
aV170
p7480
aVnr
p7481
aV243
p7482
aVnr
p7483
aV94
p7484
aVnr
p7485
aVnr
p7486
aVnr
p7487
aVnr
p7488
aVnr
p7489
aV314
p7490
aVnr
p7491
aV309
p7492
aVnr
p7493
aVnr
p7494
aV142
p7495
aV222
p7496
aV294
p7497
aV10
p7498
aa(lp7499
V27-06-2018
p7500
aV6
aV347
p7501
aV236
p7502
aV193
p7503
aVnr
p7504
aV241
p7505
aVnr
p7506
aVnr
p7507
aVnr
p7508
aV88
p7509
aVnr
p7510
aVnr
p7511
aV245
p7512
aV329
p7513
aV246
p7514
aV246
p7515
aV231
p7516
aVnr
p7517
aV118
p7518
aVnr
p7519
aVnr
p7520
aVnr
p7521
aV295
p7522
aV270
p7523
aV213
p7524
aV127
p7525
aV233
p7526
aVnr
p7527
aV64
p7528
aVnr
p7529
aVnr
p7530
aVnr
p7531
aVnr
p7532
aVnr
p7533
aV294
p7534
aVnr
p7535
aV298
p7536
aVnr
p7537
aVnr
p7538
aV191
p7539
aV264
p7540
aV311
p7541
aV27
p7542
aa(lp7543
V27-06-2018
p7544
aV7
aV43
p7545
aV172
p7546
aV205
p7547
aVnr
p7548
aV149
p7549
aVnr
p7550
aVnr
p7551
aVnr
p7552
aV137
p7553
aVnr
p7554
aVnr
p7555
aV212
p7556
aV316
p7557
aV256
p7558
aV238
p7559
aV146
p7560
aVnr
p7561
aV137
p7562
aVnr
p7563
aVnr
p7564
aVnr
p7565
aV216
p7566
aV229
p7567
aV166
p7568
aV163
p7569
aV231
p7570
aVnr
p7571
aV109
p7572
aVnr
p7573
aVnr
p7574
aVnr
p7575
aVnr
p7576
aVnr
p7577
aV322
p7578
aVnr
p7579
aV285
p7580
aVnr
p7581
aVnr
p7582
aV129
p7583
aV190
p7584
aV0
aV69
p7585
aa(lp7586
V27-06-2018
p7587
aV8
aV346
p7588
aV314
p7589
aV198
p7590
aVnr
p7591
aV223
p7592
aVnr
p7593
aVnr
p7594
aVnr
p7595
aV165
p7596
aVnr
p7597
aVnr
p7598
aV268
p7599
aV262
p7600
aV309
p7601
aV359
p7602
aV176
p7603
aVnr
p7604
aV146
p7605
aVnr
p7606
aVnr
p7607
aVnr
p7608
aV242
p7609
aV10
p7610
aV343
p7611
aV128
p7612
aV174
p7613
aVnr
p7614
aV97
p7615
aVnr
p7616
aVnr
p7617
aVnr
p7618
aVnr
p7619
aVnr
p7620
aV8
aVnr
p7621
aV297
p7622
aVnr
p7623
aVnr
p7624
aV144
p7625
aV160
p7626
aV346
p7627
aV28
p7628
aa(lp7629
V27-06-2018
p7630
aV9
aV5
aV0
aV182
p7631
aVnr
p7632
aV296
p7633
aVnr
p7634
aVnr
p7635
aVnr
p7636
aV221
p7637
aVnr
p7638
aVnr
p7639
aV353
p7640
aV339
p7641
aV345
p7642
aV13
p7643
aV265
p7644
aVnr
p7645
aV344
p7646
aVnr
p7647
aVnr
p7648
aVnr
p7649
aV321
p7650
aV353
p7651
aV342
p7652
aV81
p7653
aV25
p7654
aVnr
p7655
aV47
p7656
aVnr
p7657
aVnr
p7658
aVnr
p7659
aVnr
p7660
aVnr
p7661
aV2
aVnr
p7662
aV319
p7663
aVnr
p7664
aVnr
p7665
aV118
p7666
aV265
p7667
aV303
p7668
aV49
p7669
aa(lp7670
V27-06-2018
p7671
aV10
p7672
aV3
aV25
p7673
aV184
p7674
aVnr
p7675
aV333
p7676
aVnr
p7677
aVnr
p7678
aVnr
p7679
aV313
p7680
aVnr
p7681
aVnr
p7682
aV62
p7683
aV7
aV35
p7684
aV262
p7685
aV282
p7686
aVnr
p7687
aV32
p7688
aVnr
p7689
aVnr
p7690
aVnr
p7691
aV303
p7692
aV12
p7693
aV343
p7694
aV324
p7695
aV6
aVnr
p7696
aV17
p7697
aVnr
p7698
aVnr
p7699
aVnr
p7700
aVnr
p7701
aVnr
p7702
aV2
aVnr
p7703
aV357
p7704
aVnr
p7705
aVnr
p7706
aV31
p7707
aV24
p7708
aV298
p7709
aV263
p7710
aa(lp7711
V27-06-2018
p7712
aV11
p7713
aV282
p7714
aV37
p7715
aV192
p7716
aVnr
p7717
aV56
p7718
aVnr
p7719
aVnr
p7720
aVnr
p7721
aV10
p7722
aVnr
p7723
aVnr
p7724
aV62
p7725
aV83
p7726
aV29
p7727
aV133
p7728
aV329
p7729
aVnr
p7730
aV284
p7731
aVnr
p7732
aVnr
p7733
aVnr
p7734
aV298
p7735
aV63
p7736
aV357
p7737
aV334
p7738
aV54
p7739
aVnr
p7740
aV103
p7741
aVnr
p7742
aVnr
p7743
aVnr
p7744
aVnr
p7745
aVnr
p7746
aV60
p7747
aVnr
p7748
aV141
p7749
aVnr
p7750
aVnr
p7751
aV54
p7752
aV79
p7753
aV317
p7754
aV25
p7755
aa(lp7756
V27-06-2018
p7757
aV12
p7758
aV313
p7759
aV47
p7760
aV196
p7761
aVnr
p7762
aV46
p7763
aVnr
p7764
aVnr
p7765
aVnr
p7766
aV355
p7767
aVnr
p7768
aVnr
p7769
aV51
p7770
aV65
p7771
aV17
p7772
aV138
p7773
aV354
p7774
aVnr
p7775
aV260
p7776
aVnr
p7777
aVnr
p7778
aVnr
p7779
aV324
p7780
aV105
p7781
aV29
p7782
aVnr
p7783
aV26
p7784
aVnr
p7785
aV57
p7786
aVnr
p7787
aVnr
p7788
aVnr
p7789
aVnr
p7790
aVnr
p7791
aV56
p7792
aVnr
p7793
aV153
p7794
aVnr
p7795
aVnr
p7796
aV75
p7797
aV112
p7798
aV13
p7799
aV26
p7800
aa(lp7801
V27-06-2018
p7802
aV13
p7803
aV302
p7804
aV33
p7805
aV202
p7806
aVnr
p7807
aV32
p7808
aVnr
p7809
aVnr
p7810
aVnr
p7811
aV8
aVnr
p7812
aVnr
p7813
aV61
p7814
aV45
p7815
aV27
p7816
aV358
p7817
aV274
p7818
aVnr
p7819
aV243
p7820
aVnr
p7821
aVnr
p7822
aVnr
p7823
aV264
p7824
aV19
p7825
aV43
p7826
aV14
p7827
aV50
p7828
aVnr
p7829
aV71
p7830
aVnr
p7831
aVnr
p7832
aVnr
p7833
aVnr
p7834
aVnr
p7835
aV40
p7836
aVnr
p7837
aV70
p7838
aVnr
p7839
aVnr
p7840
aV52
p7841
aV120
p7842
aV23
p7843
aV52
p7844
aa(lp7845
V27-06-2018
p7846
aV14
p7847
aV320
p7848
aV67
p7849
aV201
p7850
aVnr
p7851
aV79
p7852
aVnr
p7853
aVnr
p7854
aVnr
p7855
aV11
p7856
aVnr
p7857
aVnr
p7858
aV66
p7859
aV75
p7860
aV58
p7861
aV330
p7862
aV332
p7863
aVnr
p7864
aV200
p7865
aVnr
p7866
aVnr
p7867
aVnr
p7868
aV324
p7869
aV51
p7870
aV23
p7871
aV42
p7872
aV69
p7873
aVnr
p7874
aV56
p7875
aVnr
p7876
aVnr
p7877
aVnr
p7878
aVnr
p7879
aVnr
p7880
aV54
p7881
aVnr
p7882
aV30
p7883
aVnr
p7884
aVnr
p7885
aV82
p7886
aV69
p7887
aV38
p7888
aV16
p7889
aa(lp7890
V27-06-2018
p7891
aV15
p7892
aV343
p7893
aV81
p7894
aV203
p7895
aVnr
p7896
aV34
p7897
aVnr
p7898
aVnr
p7899
aVnr
p7900
aV85
p7901
aVnr
p7902
aVnr
p7903
aV75
p7904
aV34
p7905
aV37
p7906
aV12
p7907
aV13
p7908
aVnr
p7909
aV229
p7910
aVnr
p7911
aVnr
p7912
aVnr
p7913
aV43
p7914
aV59
p7915
aV73
p7916
aV119
p7917
aV66
p7918
aVnr
p7919
aV39
p7920
aVnr
p7921
aVnr
p7922
aVnr
p7923
aVnr
p7924
aVnr
p7925
aV83
p7926
aVnr
p7927
aV356
p7928
aVnr
p7929
aVnr
p7930
aV88
p7931
aV93
p7932
aV319
p7933
aV325
p7934
aa(lp7935
V27-06-2018
p7936
aV16
p7937
aV10
p7938
aV156
p7939
aV202
p7940
aVnr
p7941
aV113
p7942
aVnr
p7943
aVnr
p7944
aVnr
p7945
aV146
p7946
aVnr
p7947
aVnr
p7948
aV70
p7949
aV64
p7950
aV68
p7951
aV94
p7952
aV41
p7953
aVnr
p7954
aV202
p7955
aVnr
p7956
aVnr
p7957
aVnr
p7958
aV80
p7959
aV77
p7960
aV263
p7961
aV142
p7962
aV115
p7963
aVnr
p7964
aV126
p7965
aVnr
p7966
aVnr
p7967
aVnr
p7968
aVnr
p7969
aVnr
p7970
aV145
p7971
aVnr
p7972
aV47
p7973
aVnr
p7974
aVnr
p7975
aV185
p7976
aV132
p7977
aV27
p7978
aV87
p7979
aa(lp7980
V27-06-2018
p7981
aV17
p7982
aV43
p7983
aV142
p7984
aV197
p7985
aVnr
p7986
aV147
p7987
aVnr
p7988
aVnr
p7989
aVnr
p7990
aV77
p7991
aVnr
p7992
aVnr
p7993
aV151
p7994
aV49
p7995
aV99
p7996
aV35
p7997
aV73
p7998
aVnr
p7999
aV186
p8000
aVnr
p8001
aVnr
p8002
aVnr
p8003
aV111
p8004
aV159
p8005
aV190
p8006
aV139
p8007
aV135
p8008
aVnr
p8009
aV45
p8010
aVnr
p8011
aVnr
p8012
aVnr
p8013
aVnr
p8014
aVnr
p8015
aV141
p8016
aVnr
p8017
aV30
p8018
aVnr
p8019
aVnr
p8020
aV185
p8021
aV196
p8022
aV41
p8023
aV33
p8024
aa(lp8025
V27-06-2018
p8026
aV18
p8027
aV57
p8028
aV128
p8029
aV206
p8030
aVnr
p8031
aV48
p8032
aVnr
p8033
aVnr
p8034
aVnr
p8035
aV124
p8036
aVnr
p8037
aVnr
p8038
aV86
p8039
aV47
p8040
aV35
p8041
aV31
p8042
aV2
aVnr
p8043
aV215
p8044
aVnr
p8045
aVnr
p8046
aVnr
p8047
aV30
p8048
aV66
p8049
aV85
p8050
aV69
p8051
aV72
p8052
aVnr
p8053
aV37
p8054
aVnr
p8055
aVnr
p8056
aVnr
p8057
aVnr
p8058
aVnr
p8059
aV98
p8060
aVnr
p8061
aV12
p8062
aVnr
p8063
aVnr
p8064
aV183
p8065
aV64
p8066
aV45
p8067
aV41
p8068
aa(lp8069
V27-06-2018
p8070
aV19
p8071
aV39
p8072
aV25
p8073
aV193
p8074
aVnr
p8075
aV47
p8076
aVnr
p8077
aVnr
p8078
aVnr
p8079
aV166
p8080
aVnr
p8081
aVnr
p8082
aV32
p8083
aV49
p8084
aV64
p8085
aV46
p8086
aV5
aVnr
p8087
aV180
p8088
aVnr
p8089
aVnr
p8090
aVnr
p8091
aV45
p8092
aV32
p8093
aV133
p8094
aV85
p8095
aV32
p8096
aVnr
p8097
aV31
p8098
aVnr
p8099
aVnr
p8100
aVnr
p8101
aVnr
p8102
aVnr
p8103
aV209
p8104
aVnr
p8105
aV34
p8106
aVnr
p8107
aVnr
p8108
aV101
p8109
aV72
p8110
aV46
p8111
aV28
p8112
aasS'so2'
p8113
(lp8114
(lp8115
V26-06-2018
p8116
aV20
p8117
aVnr
p8118
aV7
aVnr
p8119
aVnr
p8120
aV0
aVnr
p8121
aV2
aV0
aV2
aVnr
p8122
aV1
aVnr
p8123
aVnr
p8124
aV2
aV0
aV1
aVnr
p8125
aV1
aV1
aV1
aVnr
p8126
aV1
aV1
aVnr
p8127
aV2
aV1
aV1
aV2
aV2
aVnr
p8128
aV0
aV1
aVnr
p8129
aVnr
p8130
aVnr
p8131
aV2
aVnr
p8132
aVnr
p8133
aV2
aV3
aVnr
p8134
aV2
aV2
aVnr
p8135
aV2
aV3
aa(lp8136
V26-06-2018
p8137
aV21
p8138
aVnr
p8139
aV3
aVnr
p8140
aVnr
p8141
aV0
aVnr
p8142
aVnr
p8143
aV1
aV2
aVnr
p8144
aV1
aVnr
p8145
aVnr
p8146
aV4
aV0
aV1
aVnr
p8147
aV2
aV1
aV2
aVnr
p8148
aV1
aV1
aVnr
p8149
aV2
aV1
aV1
aVnr
p8150
aV3
aVnr
p8151
aV0
aV2
aVnr
p8152
aVnr
p8153
aVnr
p8154
aV2
aVnr
p8155
aVnr
p8156
aV2
aV3
aVnr
p8157
aV1
aV2
aVnr
p8158
aV2
aVnr
p8159
aa(lp8160
V26-06-2018
p8161
aV22
p8162
aVnr
p8163
aV3
aVnr
p8164
aVnr
p8165
aV0
aVnr
p8166
aV2
aV1
aV3
aVnr
p8167
aV1
aVnr
p8168
aVnr
p8169
aV3
aV0
aV1
aVnr
p8170
aV3
aV1
aV3
aVnr
p8171
aV1
aV1
aVnr
p8172
aV4
aV1
aV1
aV2
aV2
aVnr
p8173
aV1
aV1
aVnr
p8174
aVnr
p8175
aVnr
p8176
aV1
aVnr
p8177
aVnr
p8178
aV2
aV4
aVnr
p8179
aV1
aV3
aVnr
p8180
aV2
aV4
aa(lp8181
V26-06-2018
p8182
aV23
p8183
aVnr
p8184
aV2
aVnr
p8185
aVnr
p8186
aV2
aVnr
p8187
aV3
aV2
aV2
aVnr
p8188
aV1
aVnr
p8189
aVnr
p8190
aV2
aV1
aV1
aVnr
p8191
aV2
aV1
aV3
aVnr
p8192
aV1
aV1
aVnr
p8193
aV5
aV1
aV1
aV2
aV2
aVnr
p8194
aV1
aV1
aVnr
p8195
aVnr
p8196
aVnr
p8197
aV1
aVnr
p8198
aVnr
p8199
aV2
aV3
aVnr
p8200
aV1
aV2
aVnr
p8201
aV2
aV3
aa(lp8202
V26-06-2018
p8203
aV24
p8204
aVnr
p8205
aV1
aVnr
p8206
aVnr
p8207
aV1
aVnr
p8208
aV3
aV1
aV2
aVnr
p8209
aV1
aVnr
p8210
aVnr
p8211
aV2
aV1
aV0
aVnr
p8212
aV1
aV1
aV1
aVnr
p8213
aV1
aV1
aVnr
p8214
aV3
aV1
aV1
aV2
aV2
aVnr
p8215
aV1
aV0
aVnr
p8216
aVnr
p8217
aVnr
p8218
aV1
aVnr
p8219
aVnr
p8220
aV1
aV4
aVnr
p8221
aV1
aV2
aVnr
p8222
aV2
aV4
aa(lp8223
V27-06-2018
p8224
aV1
aVnr
p8225
aV1
aVnr
p8226
aVnr
p8227
aV1
aVnr
p8228
aV4
aV0
aV2
aVnr
p8229
aV1
aVnr
p8230
aVnr
p8231
aV2
aV1
aV1
aVnr
p8232
aV1
aV1
aV1
aVnr
p8233
aV1
aV1
aVnr
p8234
aV2
aV1
aV1
aV1
aV2
aVnr
p8235
aV1
aV0
aVnr
p8236
aVnr
p8237
aVnr
p8238
aV1
aVnr
p8239
aVnr
p8240
aV1
aV3
aVnr
p8241
aV1
aV2
aVnr
p8242
aV2
aV3
aa(lp8243
V27-06-2018
p8244
aV2
aVnr
p8245
aV0
aVnr
p8246
aVnr
p8247
aV3
aVnr
p8248
aV4
aV1
aV2
aVnr
p8249
aV1
aVnr
p8250
aVnr
p8251
aV1
aV1
aV1
aVnr
p8252
aV1
aV1
aV1
aVnr
p8253
aV1
aV1
aVnr
p8254
aV2
aV1
aV1
aV1
aV1
aVnr
p8255
aV1
aV0
aVnr
p8256
aVnr
p8257
aVnr
p8258
aV1
aVnr
p8259
aVnr
p8260
aV1
aV4
aVnr
p8261
aV1
aV2
aVnr
p8262
aV2
aV3
aa(lp8263
V27-06-2018
p8264
aV3
aVnr
p8265
aV0
aVnr
p8266
aVnr
p8267
aV3
aVnr
p8268
aV3
aV1
aV2
aVnr
p8269
aV2
aVnr
p8270
aVnr
p8271
aV1
aV1
aV1
aVnr
p8272
aV1
aV1
aV1
aVnr
p8273
aV1
aV1
aVnr
p8274
aV3
aV1
aV1
aV2
aV1
aVnr
p8275
aV1
aV0
aVnr
p8276
aVnr
p8277
aVnr
p8278
aV1
aVnr
p8279
aVnr
p8280
aV2
aV3
aVnr
p8281
aV1
aV2
aVnr
p8282
aV2
aV3
aa(lp8283
V27-06-2018
p8284
aV4
aVnr
p8285
aV0
aVnr
p8286
aVnr
p8287
aV2
aVnr
p8288
aV2
aV1
aV1
aVnr
p8289
aV1
aVnr
p8290
aVnr
p8291
aV1
aV1
aV1
aVnr
p8292
aV1
aV1
aV1
aVnr
p8293
aV2
aV1
aVnr
p8294
aV3
aV1
aV1
aV1
aV1
aVnr
p8295
aV2
aV0
aVnr
p8296
aVnr
p8297
aVnr
p8298
aV1
aVnr
p8299
aVnr
p8300
aV1
aV3
aVnr
p8301
aV1
aV2
aVnr
p8302
aV2
aV3
aa(lp8303
V27-06-2018
p8304
aV5
aVnr
p8305
aV0
aVnr
p8306
aVnr
p8307
aVnr
p8308
aVnr
p8309
aV3
aV1
aV1
aVnr
p8310
aV1
aVnr
p8311
aVnr
p8312
aV2
aV0
aV1
aVnr
p8313
aV1
aV1
aV1
aVnr
p8314
aV1
aV1
aVnr
p8315
aV3
aV2
aV0
aVnr
p8316
aV1
aVnr
p8317
aV1
aV0
aVnr
p8318
aVnr
p8319
aVnr
p8320
aV1
aVnr
p8321
aVnr
p8322
aV2
aV3
aVnr
p8323
aV1
aV2
aVnr
p8324
aV2
aVnr
p8325
aa(lp8326
V27-06-2018
p8327
aV6
aVnr
p8328
aV0
aVnr
p8329
aVnr
p8330
aV1
aVnr
p8331
aV4
aV1
aV1
aVnr
p8332
aV1
aVnr
p8333
aVnr
p8334
aV2
aV0
aV2
aVnr
p8335
aV1
aV0
aV1
aVnr
p8336
aV1
aV1
aVnr
p8337
aV3
aV2
aV0
aV1
aV1
aVnr
p8338
aV1
aV1
aVnr
p8339
aVnr
p8340
aVnr
p8341
aV1
aVnr
p8342
aVnr
p8343
aV2
aV3
aVnr
p8344
aV1
aV2
aVnr
p8345
aV2
aV4
aa(lp8346
V27-06-2018
p8347
aV7
aVnr
p8348
aV0
aVnr
p8349
aVnr
p8350
aV1
aVnr
p8351
aV4
aV2
aV2
aVnr
p8352
aV1
aVnr
p8353
aVnr
p8354
aV4
aV0
aV3
aVnr
p8355
aV1
aV1
aV2
aVnr
p8356
aV1
aV2
aVnr
p8357
aV4
aV1
aV0
aV1
aV1
aVnr
p8358
aV1
aV1
aVnr
p8359
aVnr
p8360
aVnr
p8361
aV1
aVnr
p8362
aVnr
p8363
aV4
aV4
aVnr
p8364
aV1
aV2
aVnr
p8365
aV2
aV5
aa(lp8366
V27-06-2018
p8367
aV8
aVnr
p8368
aV0
aVnr
p8369
aVnr
p8370
aV3
aVnr
p8371
aV4
aV2
aV3
aVnr
p8372
aV1
aVnr
p8373
aVnr
p8374
aV2
aV1
aV2
aVnr
p8375
aV2
aV1
aV2
aVnr
p8376
aV1
aV2
aVnr
p8377
aV4
aV2
aV1
aV1
aV2
aVnr
p8378
aV1
aV1
aVnr
p8379
aVnr
p8380
aVnr
p8381
aV1
aVnr
p8382
aVnr
p8383
aV4
aV4
aVnr
p8384
aV1
aV3
aVnr
p8385
aV3
aV4
aa(lp8386
V27-06-2018
p8387
aV9
aVnr
p8388
aV0
aVnr
p8389
aVnr
p8390
aV4
aVnr
p8391
aV5
aV3
aV2
aVnr
p8392
aV1
aVnr
p8393
aVnr
p8394
aV2
aV2
aV3
aVnr
p8395
aV3
aV1
aV1
aVnr
p8396
aV1
aV2
aVnr
p8397
aV4
aV2
aV1
aV2
aV2
aVnr
p8398
aV2
aV1
aVnr
p8399
aVnr
p8400
aVnr
p8401
aV1
aVnr
p8402
aVnr
p8403
aV4
aV5
aVnr
p8404
aV1
aV3
aVnr
p8405
aV3
aV4
aa(lp8406
V27-06-2018
p8407
aV10
p8408
aVnr
p8409
aV0
aVnr
p8410
aVnr
p8411
aV4
aVnr
p8412
aV3
aV3
aV2
aVnr
p8413
aV1
aVnr
p8414
aVnr
p8415
aV2
aV2
aV4
aVnr
p8416
aV2
aV1
aV1
aVnr
p8417
aV1
aV2
aVnr
p8418
aV3
aV2
aV1
aV2
aV2
aVnr
p8419
aV2
aV1
aVnr
p8420
aVnr
p8421
aVnr
p8422
aV1
aVnr
p8423
aVnr
p8424
aV4
aV5
aVnr
p8425
aV1
aV2
aVnr
p8426
aV2
aV4
aa(lp8427
V27-06-2018
p8428
aV11
p8429
aVnr
p8430
aV0
aVnr
p8431
aVnr
p8432
aV2
aVnr
p8433
aV3
aV1
aV2
aVnr
p8434
aV1
aVnr
p8435
aVnr
p8436
aV2
aV1
aV3
aVnr
p8437
aV1
aV1
aV1
aVnr
p8438
aV1
aV1
aVnr
p8439
aV3
aV2
aV1
aV2
aV2
aVnr
p8440
aV2
aV1
aVnr
p8441
aVnr
p8442
aVnr
p8443
aV1
aVnr
p8444
aVnr
p8445
aV4
aV4
aVnr
p8446
aV1
aV2
aVnr
p8447
aV2
aV3
aa(lp8448
V27-06-2018
p8449
aV12
p8450
aVnr
p8451
aV0
aVnr
p8452
aVnr
p8453
aV2
aVnr
p8454
aV2
aV1
aV2
aVnr
p8455
aV1
aVnr
p8456
aVnr
p8457
aV2
aV1
aVnr
p8458
aVnr
p8459
aV1
aV1
aV1
aVnr
p8460
aV1
aV1
aVnr
p8461
aV3
aV1
aV1
aVnr
p8462
aV1
aVnr
p8463
aV1
aV0
aVnr
p8464
aVnr
p8465
aVnr
p8466
aV1
aVnr
p8467
aVnr
p8468
aV4
aVnr
p8469
aVnr
p8470
aV1
aV1
aVnr
p8471
aV2
aV3
aa(lp8472
V27-06-2018
p8473
aV13
p8474
aVnr
p8475
aV0
aVnr
p8476
aVnr
p8477
aV1
aVnr
p8478
aV3
aV1
aV2
aVnr
p8479
aV1
aVnr
p8480
aVnr
p8481
aV2
aV1
aVnr
p8482
aVnr
p8483
aV1
aV1
aV1
aVnr
p8484
aV1
aV2
aVnr
p8485
aV3
aV1
aV1
aV2
aV1
aVnr
p8486
aV1
aV0
aVnr
p8487
aVnr
p8488
aVnr
p8489
aV1
aVnr
p8490
aVnr
p8491
aV3
aVnr
p8492
aVnr
p8493
aV1
aV1
aVnr
p8494
aV2
aV3
aa(lp8495
V27-06-2018
p8496
aV14
p8497
aVnr
p8498
aV0
aVnr
p8499
aVnr
p8500
aV1
aVnr
p8501
aV3
aV1
aV1
aVnr
p8502
aV1
aVnr
p8503
aVnr
p8504
aV1
aV1
aVnr
p8505
aVnr
p8506
aV1
aV1
aV1
aVnr
p8507
aV1
aV1
aVnr
p8508
aV2
aV1
aV0
aV2
aV1
aVnr
p8509
aV1
aV0
aVnr
p8510
aVnr
p8511
aVnr
p8512
aV1
aVnr
p8513
aVnr
p8514
aV2
aVnr
p8515
aVnr
p8516
aV1
aV2
aVnr
p8517
aV2
aV3
aa(lp8518
V27-06-2018
p8519
aV15
p8520
aVnr
p8521
aV0
aVnr
p8522
aVnr
p8523
aV1
aVnr
p8524
aV3
aV1
aV2
aVnr
p8525
aV1
aVnr
p8526
aVnr
p8527
aV2
aV1
aV3
aVnr
p8528
aV1
aV1
aV1
aVnr
p8529
aV1
aV1
aVnr
p8530
aV2
aV2
aV0
aV2
aV1
aVnr
p8531
aV1
aV0
aVnr
p8532
aVnr
p8533
aVnr
p8534
aV1
aVnr
p8535
aVnr
p8536
aV2
aVnr
p8537
aVnr
p8538
aV1
aV3
aVnr
p8539
aV2
aV3
aa(lp8540
V27-06-2018
p8541
aV16
p8542
aVnr
p8543
aV1
aVnr
p8544
aVnr
p8545
aV1
aVnr
p8546
aV3
aV1
aV2
aVnr
p8547
aV1
aVnr
p8548
aVnr
p8549
aV2
aV1
aV2
aVnr
p8550
aV1
aV1
aV1
aVnr
p8551
aV1
aV1
aVnr
p8552
aV2
aV1
aV1
aV2
aV2
aVnr
p8553
aV0
aV1
aVnr
p8554
aVnr
p8555
aVnr
p8556
aV1
aVnr
p8557
aVnr
p8558
aV2
aV1
aVnr
p8559
aV2
aV2
aVnr
p8560
aV2
aV2
aa(lp8561
V27-06-2018
p8562
aV17
p8563
aVnr
p8564
aV1
aVnr
p8565
aVnr
p8566
aV1
aVnr
p8567
aV3
aV1
aV2
aVnr
p8568
aV1
aVnr
p8569
aVnr
p8570
aV2
aV1
aV2
aVnr
p8571
aV1
aV1
aV1
aVnr
p8572
aV1
aV2
aVnr
p8573
aV2
aV1
aV1
aV1
aV2
aVnr
p8574
aV0
aV1
aVnr
p8575
aVnr
p8576
aVnr
p8577
aV1
aVnr
p8578
aVnr
p8579
aV3
aV1
aVnr
p8580
aV3
aV3
aVnr
p8581
aV2
aV3
aa(lp8582
V27-06-2018
p8583
aV18
p8584
aVnr
p8585
aV0
aVnr
p8586
aVnr
p8587
aV2
aVnr
p8588
aV3
aV1
aV2
aVnr
p8589
aV0
aVnr
p8590
aVnr
p8591
aV2
aV1
aV3
aVnr
p8592
aV1
aV1
aV1
aVnr
p8593
aV1
aV1
aVnr
p8594
aV2
aV1
aV1
aV1
aV2
aVnr
p8595
aV0
aV1
aVnr
p8596
aVnr
p8597
aVnr
p8598
aV2
aVnr
p8599
aVnr
p8600
aV3
aV1
aVnr
p8601
aV2
aV2
aVnr
p8602
aV1
aV2
aa(lp8603
V27-06-2018
p8604
aV19
p8605
aVnr
p8606
aV0
aVnr
p8607
aVnr
p8608
aV0
aVnr
p8609
aV2
aV1
aV2
aVnr
p8610
aV1
aVnr
p8611
aVnr
p8612
aV2
aV0
aVnr
p8613
aVnr
p8614
aV1
aV1
aV0
aVnr
p8615
aV0
aV1
aVnr
p8616
aV1
aV1
aV1
aV1
aV1
aVnr
p8617
aV0
aV0
aVnr
p8618
aVnr
p8619
aVnr
p8620
aV1
aVnr
p8621
aVnr
p8622
aV2
aV1
aVnr
p8623
aV2
aV2
aVnr
p8624
aV1
aV2
aasS'nox'
p8625
(lp8626
(lp8627
V26-06-2018
p8628
aV20
p8629
aVnr
p8630
aV10
p8631
aVnr
p8632
aV19
p8633
aVnr
p8634
aVnr
p8635
aV51
p8636
aV30
p8637
aVnr
p8638
aV31
p8639
aVnr
p8640
aVnr
p8641
aV26
p8642
aVnr
p8643
aV26
p8644
aVnr
p8645
aVnr
p8646
aVnr
p8647
aV45
p8648
aVnr
p8649
aV46
p8650
aVnr
p8651
aV50
p8652
aV35
p8653
aVnr
p8654
aV54
p8655
aV31
p8656
aVnr
p8657
aVnr
p8658
aV28
p8659
aVnr
p8660
aVnr
p8661
aVnr
p8662
aVnr
p8663
aVnr
p8664
aVnr
p8665
aV67
p8666
aV57
p8667
aVnr
p8668
aV40
p8669
aV51
p8670
aV56
p8671
aV88
p8672
aa(lp8673
V26-06-2018
p8674
aV21
p8675
aVnr
p8676
aV29
p8677
aVnr
p8678
aV12
p8679
aVnr
p8680
aVnr
p8681
aV64
p8682
aV43
p8683
aVnr
p8684
aV46
p8685
aVnr
p8686
aVnr
p8687
aV31
p8688
aVnr
p8689
aV56
p8690
aVnr
p8691
aVnr
p8692
aVnr
p8693
aV56
p8694
aVnr
p8695
aV52
p8696
aVnr
p8697
aV50
p8698
aV38
p8699
aVnr
p8700
aVnr
p8701
aV45
p8702
aVnr
p8703
aVnr
p8704
aV48
p8705
aVnr
p8706
aVnr
p8707
aVnr
p8708
aVnr
p8709
aVnr
p8710
aVnr
p8711
aV76
p8712
aV35
p8713
aVnr
p8714
aV36
p8715
aV57
p8716
aV30
p8717
aVnr
p8718
aa(lp8719
V26-06-2018
p8720
aV22
p8721
aVnr
p8722
aV31
p8723
aVnr
p8724
aV15
p8725
aVnr
p8726
aVnr
p8727
aV78
p8728
aV51
p8729
aVnr
p8730
aV49
p8731
aVnr
p8732
aVnr
p8733
aV37
p8734
aVnr
p8735
aV52
p8736
aVnr
p8737
aVnr
p8738
aVnr
p8739
aV61
p8740
aVnr
p8741
aV27
p8742
aVnr
p8743
aV78
p8744
aV48
p8745
aVnr
p8746
aV70
p8747
aV42
p8748
aVnr
p8749
aVnr
p8750
aV38
p8751
aVnr
p8752
aVnr
p8753
aVnr
p8754
aVnr
p8755
aVnr
p8756
aVnr
p8757
aV57
p8758
aV40
p8759
aVnr
p8760
aV48
p8761
aV64
p8762
aV36
p8763
aV132
p8764
aa(lp8765
V26-06-2018
p8766
aV23
p8767
aVnr
p8768
aV38
p8769
aVnr
p8770
aV21
p8771
aVnr
p8772
aVnr
p8773
aV85
p8774
aV50
p8775
aVnr
p8776
aV59
p8777
aVnr
p8778
aVnr
p8779
aV50
p8780
aVnr
p8781
aV49
p8782
aVnr
p8783
aVnr
p8784
aVnr
p8785
aV54
p8786
aVnr
p8787
aV18
p8788
aVnr
p8789
aV80
p8790
aV53
p8791
aVnr
p8792
aV55
p8793
aV33
p8794
aVnr
p8795
aVnr
p8796
aV22
p8797
aVnr
p8798
aVnr
p8799
aVnr
p8800
aVnr
p8801
aVnr
p8802
aVnr
p8803
aV62
p8804
aV46
p8805
aVnr
p8806
aV44
p8807
aV48
p8808
aV36
p8809
aV97
p8810
aa(lp8811
V26-06-2018
p8812
aV24
p8813
aVnr
p8814
aV18
p8815
aVnr
p8816
aV20
p8817
aVnr
p8818
aVnr
p8819
aV54
p8820
aV53
p8821
aVnr
p8822
aV37
p8823
aVnr
p8824
aVnr
p8825
aV50
p8826
aVnr
p8827
aV27
p8828
aVnr
p8829
aVnr
p8830
aVnr
p8831
aV47
p8832
aVnr
p8833
aV65
p8834
aVnr
p8835
aV63
p8836
aV75
p8837
aVnr
p8838
aV53
p8839
aV42
p8840
aVnr
p8841
aVnr
p8842
aV24
p8843
aVnr
p8844
aVnr
p8845
aVnr
p8846
aVnr
p8847
aVnr
p8848
aVnr
p8849
aV40
p8850
aV50
p8851
aVnr
p8852
aV46
p8853
aV42
p8854
aV38
p8855
aV97
p8856
aa(lp8857
V27-06-2018
p8858
aV1
aVnr
p8859
aV23
p8860
aVnr
p8861
aV8
aVnr
p8862
aVnr
p8863
aV34
p8864
aV52
p8865
aVnr
p8866
aV20
p8867
aVnr
p8868
aVnr
p8869
aV39
p8870
aV11
p8871
aV16
p8872
aVnr
p8873
aV40
p8874
aVnr
p8875
aV62
p8876
aVnr
p8877
aV46
p8878
aVnr
p8879
aV45
p8880
aV62
p8881
aVnr
p8882
aV39
p8883
aV32
p8884
aVnr
p8885
aV56
p8886
aV25
p8887
aVnr
p8888
aVnr
p8889
aVnr
p8890
aVnr
p8891
aVnr
p8892
aVnr
p8893
aV19
p8894
aV24
p8895
aVnr
p8896
aV40
p8897
aV36
p8898
aV34
p8899
aV96
p8900
aa(lp8901
V27-06-2018
p8902
aV2
aVnr
p8903
aV4
aVnr
p8904
aV8
aVnr
p8905
aVnr
p8906
aV23
p8907
aV35
p8908
aVnr
p8909
aV23
p8910
aVnr
p8911
aVnr
p8912
aV27
p8913
aV9
aV10
p8914
aVnr
p8915
aV30
p8916
aVnr
p8917
aV49
p8918
aVnr
p8919
aV37
p8920
aVnr
p8921
aV36
p8922
aV36
p8923
aVnr
p8924
aV34
p8925
aV35
p8926
aVnr
p8927
aV57
p8928
aV15
p8929
aVnr
p8930
aVnr
p8931
aVnr
p8932
aVnr
p8933
aVnr
p8934
aVnr
p8935
aV15
p8936
aV24
p8937
aVnr
p8938
aV28
p8939
aV31
p8940
aV17
p8941
aV82
p8942
aa(lp8943
V27-06-2018
p8944
aV3
aVnr
p8945
aV2
aVnr
p8946
aV10
p8947
aVnr
p8948
aVnr
p8949
aV19
p8950
aV28
p8951
aVnr
p8952
aV24
p8953
aVnr
p8954
aVnr
p8955
aV20
p8956
aV11
p8957
aV7
aVnr
p8958
aV25
p8959
aVnr
p8960
aV41
p8961
aVnr
p8962
aV30
p8963
aVnr
p8964
aV24
p8965
aV32
p8966
aVnr
p8967
aV33
p8968
aV17
p8969
aVnr
p8970
aV31
p8971
aV22
p8972
aVnr
p8973
aVnr
p8974
aVnr
p8975
aVnr
p8976
aVnr
p8977
aVnr
p8978
aV15
p8979
aV17
p8980
aVnr
p8981
aV29
p8982
aV32
p8983
aV12
p8984
aV64
p8985
aa(lp8986
V27-06-2018
p8987
aV4
aVnr
p8988
aV2
aVnr
p8989
aV10
p8990
aVnr
p8991
aVnr
p8992
aV25
p8993
aV31
p8994
aVnr
p8995
aV19
p8996
aVnr
p8997
aVnr
p8998
aV26
p8999
aV9
aV13
p9000
aVnr
p9001
aV33
p9002
aVnr
p9003
aV46
p9004
aVnr
p9005
aV32
p9006
aVnr
p9007
aV25
p9008
aV84
p9009
aVnr
p9010
aV36
p9011
aV9
aVnr
p9012
aV34
p9013
aV37
p9014
aVnr
p9015
aVnr
p9016
aVnr
p9017
aVnr
p9018
aVnr
p9019
aVnr
p9020
aV20
p9021
aV22
p9022
aVnr
p9023
aV27
p9024
aV31
p9025
aV16
p9026
aV56
p9027
aa(lp9028
V27-06-2018
p9029
aV5
aVnr
p9030
aV8
aVnr
p9031
aVnr
p9032
aVnr
p9033
aVnr
p9034
aV56
p9035
aV24
p9036
aVnr
p9037
aV35
p9038
aVnr
p9039
aVnr
p9040
aV23
p9041
aV15
p9042
aV32
p9043
aVnr
p9044
aV49
p9045
aVnr
p9046
aV53
p9047
aVnr
p9048
aV39
p9049
aVnr
p9050
aV57
p9051
aV220
p9052
aVnr
p9053
aVnr
p9054
aV17
p9055
aVnr
p9056
aV46
p9057
aV62
p9058
aVnr
p9059
aVnr
p9060
aVnr
p9061
aVnr
p9062
aVnr
p9063
aVnr
p9064
aV45
p9065
aV37
p9066
aVnr
p9067
aV28
p9068
aV38
p9069
aV28
p9070
aVnr
p9071
aa(lp9072
V27-06-2018
p9073
aV6
aVnr
p9074
aV14
p9075
aVnr
p9076
aV23
p9077
aVnr
p9078
aVnr
p9079
aV78
p9080
aV33
p9081
aVnr
p9082
aV102
p9083
aVnr
p9084
aVnr
p9085
aV65
p9086
aV17
p9087
aV114
p9088
aVnr
p9089
aV63
p9090
aVnr
p9091
aV84
p9092
aVnr
p9093
aV47
p9094
aVnr
p9095
aV70
p9096
aV237
p9097
aVnr
p9098
aV79
p9099
aV37
p9100
aVnr
p9101
aV54
p9102
aV101
p9103
aVnr
p9104
aVnr
p9105
aVnr
p9106
aVnr
p9107
aVnr
p9108
aVnr
p9109
aV86
p9110
aV48
p9111
aVnr
p9112
aV45
p9113
aV86
p9114
aV37
p9115
aV124
p9116
aa(lp9117
V27-06-2018
p9118
aV7
aVnr
p9119
aV24
p9120
aVnr
p9121
aV35
p9122
aVnr
p9123
aVnr
p9124
aV101
p9125
aV84
p9126
aVnr
p9127
aV74
p9128
aVnr
p9129
aVnr
p9130
aV201
p9131
aV22
p9132
aV165
p9133
aVnr
p9134
aV78
p9135
aVnr
p9136
aV111
p9137
aVnr
p9138
aV39
p9139
aVnr
p9140
aV87
p9141
aV150
p9142
aVnr
p9143
aV106
p9144
aV41
p9145
aVnr
p9146
aV54
p9147
aV89
p9148
aVnr
p9149
aVnr
p9150
aVnr
p9151
aVnr
p9152
aVnr
p9153
aVnr
p9154
aV151
p9155
aV83
p9156
aVnr
p9157
aV84
p9158
aV93
p9159
aV62
p9160
aV124
p9161
aa(lp9162
V27-06-2018
p9163
aV8
aVnr
p9164
aV34
p9165
aVnr
p9166
aV51
p9167
aVnr
p9168
aVnr
p9169
aV121
p9170
aV86
p9171
aVnr
p9172
aV62
p9173
aVnr
p9174
aVnr
p9175
aV64
p9176
aV75
p9177
aV112
p9178
aVnr
p9179
aV132
p9180
aVnr
p9181
aV76
p9182
aVnr
p9183
aV38
p9184
aVnr
p9185
aV118
p9186
aV127
p9187
aVnr
p9188
aV65
p9189
aV59
p9190
aVnr
p9191
aV60
p9192
aV56
p9193
aVnr
p9194
aVnr
p9195
aVnr
p9196
aVnr
p9197
aVnr
p9198
aVnr
p9199
aV123
p9200
aV89
p9201
aVnr
p9202
aV52
p9203
aV94
p9204
aV70
p9205
aV90
p9206
aa(lp9207
V27-06-2018
p9208
aV9
aVnr
p9209
aV33
p9210
aVnr
p9211
aV23
p9212
aVnr
p9213
aVnr
p9214
aV93
p9215
aV42
p9216
aVnr
p9217
aV20
p9218
aVnr
p9219
aVnr
p9220
aV30
p9221
aV34
p9222
aV36
p9223
aVnr
p9224
aV102
p9225
aVnr
p9226
aV55
p9227
aVnr
p9228
aV48
p9229
aVnr
p9230
aV113
p9231
aV52
p9232
aVnr
p9233
aV56
p9234
aV58
p9235
aVnr
p9236
aV52
p9237
aV51
p9238
aVnr
p9239
aVnr
p9240
aVnr
p9241
aVnr
p9242
aVnr
p9243
aVnr
p9244
aV79
p9245
aV67
p9246
aVnr
p9247
aV31
p9248
aV66
p9249
aV57
p9250
aV62
p9251
aa(lp9252
V27-06-2018
p9253
aV10
p9254
aVnr
p9255
aV31
p9256
aVnr
p9257
aV15
p9258
aVnr
p9259
aVnr
p9260
aV58
p9261
aV40
p9262
aVnr
p9263
aV12
p9264
aVnr
p9265
aVnr
p9266
aV29
p9267
aV19
p9268
aV30
p9269
aVnr
p9270
aV69
p9271
aVnr
p9272
aV53
p9273
aVnr
p9274
aV34
p9275
aVnr
p9276
aV78
p9277
aV44
p9278
aVnr
p9279
aV60
p9280
aV59
p9281
aVnr
p9282
aV31
p9283
aV23
p9284
aVnr
p9285
aVnr
p9286
aVnr
p9287
aVnr
p9288
aVnr
p9289
aVnr
p9290
aV67
p9291
aV50
p9292
aVnr
p9293
aV20
p9294
aV54
p9295
aV19
p9296
aV78
p9297
aa(lp9298
V27-06-2018
p9299
aV11
p9300
aVnr
p9301
aV28
p9302
aVnr
p9303
aV23
p9304
aVnr
p9305
aVnr
p9306
aV40
p9307
aV35
p9308
aVnr
p9309
aV9
aVnr
p9310
aVnr
p9311
aV23
p9312
aV17
p9313
aV28
p9314
aVnr
p9315
aV53
p9316
aVnr
p9317
aV57
p9318
aVnr
p9319
aV28
p9320
aVnr
p9321
aV75
p9322
aV38
p9323
aVnr
p9324
aV57
p9325
aV37
p9326
aVnr
p9327
aV25
p9328
aV20
p9329
aVnr
p9330
aVnr
p9331
aVnr
p9332
aVnr
p9333
aVnr
p9334
aVnr
p9335
aV64
p9336
aV30
p9337
aVnr
p9338
aV21
p9339
aV31
p9340
aV13
p9341
aV69
p9342
aa(lp9343
V27-06-2018
p9344
aV12
p9345
aVnr
p9346
aV21
p9347
aVnr
p9348
aV37
p9349
aVnr
p9350
aVnr
p9351
aV40
p9352
aV23
p9353
aVnr
p9354
aV6
aVnr
p9355
aVnr
p9356
aV26
p9357
aV11
p9358
aVnr
p9359
aVnr
p9360
aV54
p9361
aVnr
p9362
aV46
p9363
aVnr
p9364
aV19
p9365
aVnr
p9366
aV73
p9367
aV30
p9368
aVnr
p9369
aVnr
p9370
aV27
p9371
aVnr
p9372
aV16
p9373
aV23
p9374
aVnr
p9375
aVnr
p9376
aVnr
p9377
aVnr
p9378
aVnr
p9379
aVnr
p9380
aV50
p9381
aVnr
p9382
aVnr
p9383
aV14
p9384
aV15
p9385
aV11
p9386
aV49
p9387
aa(lp9388
V27-06-2018
p9389
aV13
p9390
aVnr
p9391
aV14
p9392
aVnr
p9393
aV26
p9394
aVnr
p9395
aVnr
p9396
aV34
p9397
aV19
p9398
aVnr
p9399
aV4
aVnr
p9400
aVnr
p9401
aV25
p9402
aV9
aVnr
p9403
aVnr
p9404
aV44
p9405
aVnr
p9406
aV27
p9407
aVnr
p9408
aV14
p9409
aVnr
p9410
aV69
p9411
aV34
p9412
aVnr
p9413
aV24
p9414
aV19
p9415
aVnr
p9416
aV8
aV19
p9417
aVnr
p9418
aVnr
p9419
aVnr
p9420
aVnr
p9421
aVnr
p9422
aVnr
p9423
aV46
p9424
aVnr
p9425
aVnr
p9426
aV7
aV12
p9427
aV11
p9428
aV32
p9429
aa(lp9430
V27-06-2018
p9431
aV14
p9432
aVnr
p9433
aV11
p9434
aVnr
p9435
aV19
p9436
aVnr
p9437
aVnr
p9438
aV29
p9439
aV11
p9440
aVnr
p9441
aV5
aVnr
p9442
aVnr
p9443
aV25
p9444
aV9
aVnr
p9445
aVnr
p9446
aV31
p9447
aVnr
p9448
aV35
p9449
aVnr
p9450
aV12
p9451
aVnr
p9452
aV44
p9453
aV36
p9454
aVnr
p9455
aV14
p9456
aV12
p9457
aVnr
p9458
aV11
p9459
aV20
p9460
aVnr
p9461
aVnr
p9462
aVnr
p9463
aVnr
p9464
aVnr
p9465
aVnr
p9466
aV35
p9467
aVnr
p9468
aVnr
p9469
aV6
aV19
p9470
aV8
aV31
p9471
aa(lp9472
V27-06-2018
p9473
aV15
p9474
aVnr
p9475
aV10
p9476
aVnr
p9477
aV15
p9478
aVnr
p9479
aVnr
p9480
aV21
p9481
aV18
p9482
aVnr
p9483
aV6
aVnr
p9484
aVnr
p9485
aV26
p9486
aV7
aV33
p9487
aVnr
p9488
aV24
p9489
aVnr
p9490
aV25
p9491
aVnr
p9492
aV12
p9493
aVnr
p9494
aV23
p9495
aV29
p9496
aVnr
p9497
aV10
p9498
aV13
p9499
aVnr
p9500
aV10
p9501
aV19
p9502
aVnr
p9503
aVnr
p9504
aVnr
p9505
aVnr
p9506
aVnr
p9507
aVnr
p9508
aV31
p9509
aVnr
p9510
aVnr
p9511
aV13
p9512
aV20
p9513
aV6
aV26
p9514
aa(lp9515
V27-06-2018
p9516
aV16
p9517
aVnr
p9518
aV13
p9519
aVnr
p9520
aV13
p9521
aVnr
p9522
aVnr
p9523
aV21
p9524
aV23
p9525
aVnr
p9526
aV9
aVnr
p9527
aVnr
p9528
aV30
p9529
aV9
aV33
p9530
aVnr
p9531
aV21
p9532
aVnr
p9533
aV23
p9534
aVnr
p9535
aV8
aVnr
p9536
aV20
p9537
aV26
p9538
aVnr
p9539
aV13
p9540
aV18
p9541
aVnr
p9542
aV16
p9543
aV24
p9544
aVnr
p9545
aVnr
p9546
aVnr
p9547
aVnr
p9548
aVnr
p9549
aVnr
p9550
aV38
p9551
aV9
aVnr
p9552
aV9
aV11
p9553
aV8
aV23
p9554
aa(lp9555
V27-06-2018
p9556
aV17
p9557
aVnr
p9558
aV13
p9559
aVnr
p9560
aV20
p9561
aVnr
p9562
aVnr
p9563
aV24
p9564
aV16
p9565
aVnr
p9566
aV10
p9567
aVnr
p9568
aVnr
p9569
aV25
p9570
aV12
p9571
aV42
p9572
aVnr
p9573
aV20
p9574
aVnr
p9575
aV23
p9576
aVnr
p9577
aV10
p9578
aVnr
p9579
aV22
p9580
aV31
p9581
aVnr
p9582
aV13
p9583
aV12
p9584
aVnr
p9585
aV20
p9586
aV20
p9587
aVnr
p9588
aVnr
p9589
aVnr
p9590
aVnr
p9591
aVnr
p9592
aVnr
p9593
aV51
p9594
aV14
p9595
aVnr
p9596
aV10
p9597
aV16
p9598
aV12
p9599
aV36
p9600
aa(lp9601
V27-06-2018
p9602
aV18
p9603
aVnr
p9604
aV14
p9605
aVnr
p9606
aV26
p9607
aVnr
p9608
aVnr
p9609
aV30
p9610
aV19
p9611
aVnr
p9612
aV13
p9613
aVnr
p9614
aVnr
p9615
aV23
p9616
aV15
p9617
aV34
p9618
aVnr
p9619
aV22
p9620
aVnr
p9621
aV25
p9622
aVnr
p9623
aV14
p9624
aVnr
p9625
aV30
p9626
aV35
p9627
aVnr
p9628
aV16
p9629
aV14
p9630
aVnr
p9631
aV22
p9632
aV20
p9633
aVnr
p9634
aVnr
p9635
aVnr
p9636
aVnr
p9637
aVnr
p9638
aVnr
p9639
aV44
p9640
aV14
p9641
aVnr
p9642
aV10
p9643
aV15
p9644
aV9
aV40
p9645
aa(lp9646
V27-06-2018
p9647
aV19
p9648
aVnr
p9649
aV25
p9650
aVnr
p9651
aV24
p9652
aVnr
p9653
aVnr
p9654
aV37
p9655
aV25
p9656
aVnr
p9657
aV44
p9658
aVnr
p9659
aVnr
p9660
aV32
p9661
aV15
p9662
aV47
p9663
aVnr
p9664
aV25
p9665
aVnr
p9666
aV30
p9667
aVnr
p9668
aV12
p9669
aVnr
p9670
aV33
p9671
aV59
p9672
aVnr
p9673
aV20
p9674
aV24
p9675
aVnr
p9676
aV21
p9677
aV21
p9678
aVnr
p9679
aVnr
p9680
aVnr
p9681
aVnr
p9682
aVnr
p9683
aVnr
p9684
aV58
p9685
aV17
p9686
aVnr
p9687
aV13
p9688
aV21
p9689
aV12
p9690
aV45
p9691
aasS'o3'
p9692
(lp9693
(lp9694
V26-06-2018
p9695
aV20
p9696
aVnr
p9697
aV28
p9698
aV17
p9699
aV29
p9700
aVnr
p9701
aV33
p9702
aV18
p9703
aV45
p9704
aVnr
p9705
aV17
p9706
aVnr
p9707
aVnr
p9708
aV48
p9709
aV34
p9710
aV33
p9711
aV10
p9712
aV29
p9713
aV43
p9714
aV28
p9715
aVnr
p9716
aV11
p9717
aV9
aV28
p9718
aV33
p9719
aV26
p9720
aV20
p9721
aV40
p9722
aVnr
p9723
aV18
p9724
aV51
p9725
aVnr
p9726
aVnr
p9727
aVnr
p9728
aV35
p9729
aVnr
p9730
aVnr
p9731
aV14
p9732
aV10
p9733
aVnr
p9734
aV37
p9735
aV25
p9736
aV15
p9737
aV11
p9738
aa(lp9739
V26-06-2018
p9740
aV21
p9741
aVnr
p9742
aV20
p9743
aV15
p9744
aV34
p9745
aVnr
p9746
aV20
p9747
aV4
aV26
p9748
aVnr
p9749
aV3
aVnr
p9750
aVnr
p9751
aV31
p9752
aV21
p9753
aV16
p9754
aV4
aV13
p9755
aV30
p9756
aV8
aVnr
p9757
aV5
aV1
aV16
p9758
aV24
p9759
aV26
p9760
aVnr
p9761
aV14
p9762
aVnr
p9763
aV1
aV13
p9764
aVnr
p9765
aVnr
p9766
aVnr
p9767
aV30
p9768
aVnr
p9769
aVnr
p9770
aV3
aV19
p9771
aVnr
p9772
aV28
p9773
aV10
p9774
aV22
p9775
aVnr
p9776
aa(lp9777
V26-06-2018
p9778
aV22
p9779
aVnr
p9780
aV15
p9781
aV21
p9782
aV24
p9783
aVnr
p9784
aV13
p9785
aV1
aV5
aVnr
p9786
aV0
aVnr
p9787
aVnr
p9788
aV19
p9789
aV21
p9790
aV10
p9791
aV3
aV9
aV23
p9792
aV4
aVnr
p9793
aV18
p9794
aV13
p9795
aV2
aV11
p9796
aV35
p9797
aV0
aV4
aVnr
p9798
aV5
aV13
p9799
aVnr
p9800
aVnr
p9801
aVnr
p9802
aV25
p9803
aVnr
p9804
aVnr
p9805
aV5
aV12
p9806
aVnr
p9807
aV13
p9808
aV3
aV15
p9809
aV5
aa(lp9810
V26-06-2018
p9811
aV23
p9812
aVnr
p9813
aV13
p9814
aVnr
p9815
aV17
p9816
aVnr
p9817
aV2
aV1
aV4
aVnr
p9818
aV0
aVnr
p9819
aVnr
p9820
aV9
aV21
p9821
aV7
aV3
aV5
aV24
p9822
aV5
aVnr
p9823
aV21
p9824
aV7
aV1
aV4
aV37
p9825
aV2
aV6
aVnr
p9826
aV6
aV17
p9827
aVnr
p9828
aVnr
p9829
aVnr
p9830
aV18
p9831
aVnr
p9832
aVnr
p9833
aV1
aV4
aVnr
p9834
aV11
p9835
aV7
aV13
p9836
aV5
aa(lp9837
V26-06-2018
p9838
aV24
p9839
aVnr
p9840
aV19
p9841
aVnr
p9842
aV13
p9843
aVnr
p9844
aV3
aV2
aV4
aVnr
p9845
aV11
p9846
aVnr
p9847
aVnr
p9848
aV9
aV22
p9849
aV11
p9850
aV3
aV5
aV24
p9851
aV6
aVnr
p9852
aV2
aV1
aV2
aV2
aV31
p9853
aV2
aV4
aVnr
p9854
aV0
aV12
p9855
aVnr
p9856
aVnr
p9857
aVnr
p9858
aV15
p9859
aVnr
p9860
aVnr
p9861
aV5
aV2
aVnr
p9862
aV5
aV7
aV8
aV5
aa(lp9863
V27-06-2018
p9864
aV1
aVnr
p9865
aV17
p9866
aV26
p9867
aV25
p9868
aVnr
p9869
aV1
aV4
aV4
aVnr
p9870
aV23
p9871
aVnr
p9872
aVnr
p9873
aV7
aV21
p9874
aV13
p9875
aV3
aV8
aV28
p9876
aV1
aVnr
p9877
aV3
aV1
aV7
aV3
aV31
p9878
aV6
aV6
aVnr
p9879
aV0
aV8
aVnr
p9880
aVnr
p9881
aVnr
p9882
aV13
p9883
aVnr
p9884
aVnr
p9885
aV13
p9886
aV10
p9887
aVnr
p9888
aV6
aV7
aV6
aV5
aa(lp9889
V27-06-2018
p9890
aV2
aVnr
p9891
aV27
p9892
aV25
p9893
aV23
p9894
aVnr
p9895
aV1
aV9
aV11
p9896
aVnr
p9897
aV19
p9898
aVnr
p9899
aVnr
p9900
aV10
p9901
aV20
p9902
aV17
p9903
aV3
aV9
aV10
p9904
aV4
aVnr
p9905
aV4
aV2
aV6
aV8
aV28
p9906
aV8
aV4
aVnr
p9907
aV0
aV16
p9908
aVnr
p9909
aVnr
p9910
aVnr
p9911
aV15
p9912
aVnr
p9913
aVnr
p9914
aV15
p9915
aV10
p9916
aVnr
p9917
aV9
aV10
p9918
aV13
p9919
aV5
aa(lp9920
V27-06-2018
p9921
aV3
aVnr
p9922
aV30
p9923
aV26
p9924
aV19
p9925
aVnr
p9926
aV9
aV11
p9927
aV10
p9928
aVnr
p9929
aV14
p9930
aVnr
p9931
aVnr
p9932
aV14
p9933
aV13
p9934
aV21
p9935
aV3
aV10
p9936
aV12
p9937
aV4
aVnr
p9938
aV8
aV4
aV11
p9939
aV8
aV26
p9940
aV8
aV17
p9941
aVnr
p9942
aV5
aV7
aVnr
p9943
aVnr
p9944
aVnr
p9945
aV13
p9946
aVnr
p9947
aVnr
p9948
aV14
p9949
aV13
p9950
aVnr
p9951
aV7
aV7
aV16
p9952
aV5
aa(lp9953
V27-06-2018
p9954
aV4
aVnr
p9955
aV28
p9956
aV20
p9957
aV18
p9958
aVnr
p9959
aV3
aV5
aV7
aVnr
p9960
aV15
p9961
aVnr
p9962
aVnr
p9963
aV9
aV14
p9964
aV13
p9965
aV3
aV9
aV16
p9966
aV2
aVnr
p9967
aV7
aV2
aV10
p9968
aV6
aV27
p9969
aV3
aV14
p9970
aVnr
p9971
aV7
aV3
aVnr
p9972
aVnr
p9973
aVnr
p9974
aV10
p9975
aVnr
p9976
aVnr
p9977
aV10
p9978
aV10
p9979
aVnr
p9980
aV8
aV7
aV12
p9981
aV6
aa(lp9982
V27-06-2018
p9983
aV5
aVnr
p9984
aV22
p9985
aV16
p9986
aVnr
p9987
aVnr
p9988
aV2
aV1
aV4
aVnr
p9989
aV2
aVnr
p9990
aVnr
p9991
aV13
p9992
aV10
p9993
aV5
aV3
aV5
aV17
p9994
aV2
aVnr
p9995
aV4
aV1
aV2
aV1
aV26
p9996
aVnr
p9997
aV6
aVnr
p9998
aV1
aV3
aVnr
p9999
aVnr
p10000
aVnr
p10001
aV4
aVnr
p10002
aVnr
p10003
aV4
aV2
aVnr
p10004
aV4
aV3
aV7
aVnr
p10005
aa(lp10006
V27-06-2018
p10007
aV6
aVnr
p10008
aV15
p10009
aV9
aV6
aVnr
p10010
aV1
aV1
aV3
aVnr
p10011
aV0
aVnr
p10012
aVnr
p10013
aV8
aV6
aV2
aV3
aV4
aV14
p10014
aV1
aVnr
p10015
aV1
aV1
aV2
aV2
aV21
p10016
aV0
aV1
aVnr
p10017
aV0
aV2
aVnr
p10018
aVnr
p10019
aVnr
p10020
aV3
aVnr
p10021
aVnr
p10022
aV1
aV2
aVnr
p10023
aV1
aV2
aV4
aV5
aa(lp10024
V27-06-2018
p10025
aV7
aVnr
p10026
aV13
p10027
aV12
p10028
aV5
aVnr
p10029
aV1
aV1
aV3
aVnr
p10030
aV1
aVnr
p10031
aVnr
p10032
aV4
aV3
aV2
aV3
aV5
aV14
p10033
aV2
aVnr
p10034
aV3
aV1
aV2
aV2
aV20
p10035
aV0
aV2
aVnr
p10036
aV1
aV3
aVnr
p10037
aVnr
p10038
aVnr
p10039
aV4
aVnr
p10040
aVnr
p10041
aV1
aV2
aVnr
p10042
aV1
aV2
aV4
aV5
aa(lp10043
V27-06-2018
p10044
aV8
aVnr
p10045
aV13
p10046
aV17
p10047
aV7
aVnr
p10048
aV5
aV3
aV7
aVnr
p10049
aV6
aVnr
p10050
aVnr
p10051
aV11
p10052
aV2
aV4
aV6
aV7
aV12
p10053
aV7
aVnr
p10054
aV9
aV4
aV4
aV6
aV25
p10055
aV6
aV7
aVnr
p10056
aV3
aV9
aVnr
p10057
aVnr
p10058
aVnr
p10059
aV7
aVnr
p10060
aVnr
p10061
aV3
aV3
aVnr
p10062
aV7
aV6
aV6
aV9
aa(lp10063
V27-06-2018
p10064
aV9
aVnr
p10065
aV20
p10066
aV24
p10067
aV19
p10068
aVnr
p10069
aV12
p10070
aV9
aV20
p10071
aVnr
p10072
aV24
p10073
aVnr
p10074
aVnr
p10075
aV20
p10076
aV14
p10077
aV17
p10078
aV15
p10079
aV11
p10080
aV20
p10081
aV18
p10082
aVnr
p10083
aV13
p10084
aV11
p10085
aV9
aV12
p10086
aV28
p10087
aV17
p10088
aV14
p10089
aVnr
p10090
aV11
p10091
aV15
p10092
aVnr
p10093
aVnr
p10094
aVnr
p10095
aV18
p10096
aVnr
p10097
aVnr
p10098
aV9
aV10
p10099
aVnr
p10100
aV19
p10101
aV13
p10102
aV13
p10103
aV18
p10104
aa(lp10105
V27-06-2018
p10106
aV10
p10107
aVnr
p10108
aV27
p10109
aV26
p10110
aV30
p10111
aVnr
p10112
aV21
p10113
aV19
p10114
aV26
p10115
aVnr
p10116
aV34
p10117
aVnr
p10118
aVnr
p10119
aV25
p10120
aV29
p10121
aV28
p10122
aV16
p10123
aV23
p10124
aV26
p10125
aV24
p10126
aVnr
p10127
aV24
p10128
aV19
p10129
aV19
p10130
aV22
p10131
aV35
p10132
aV25
p10133
aV18
p10134
aVnr
p10135
aV26
p10136
aV26
p10137
aVnr
p10138
aVnr
p10139
aVnr
p10140
aV31
p10141
aVnr
p10142
aVnr
p10143
aV16
p10144
aV20
p10145
aVnr
p10146
aV30
p10147
aV25
p10148
aV33
p10149
aV22
p10150
aa(lp10151
V27-06-2018
p10152
aV11
p10153
aVnr
p10154
aV38
p10155
aV26
p10156
aV35
p10157
aVnr
p10158
aV36
p10159
aV33
p10160
aV36
p10161
aVnr
p10162
aV44
p10163
aVnr
p10164
aVnr
p10165
aV32
p10166
aV41
p10167
aV36
p10168
aV38
p10169
aV37
p10170
aV24
p10171
aV34
p10172
aVnr
p10173
aV37
p10174
aV38
p10175
aV30
p10176
aV33
p10177
aV47
p10178
aV33
p10179
aV33
p10180
aVnr
p10181
aV38
p10182
aV36
p10183
aVnr
p10184
aVnr
p10185
aVnr
p10186
aV42
p10187
aVnr
p10188
aVnr
p10189
aV23
p10190
aV37
p10191
aVnr
p10192
aV41
p10193
aV38
p10194
aV49
p10195
aV33
p10196
aa(lp10197
V27-06-2018
p10198
aV12
p10199
aVnr
p10200
aV50
p10201
aV29
p10202
aV39
p10203
aVnr
p10204
aV55
p10205
aV50
p10206
aV54
p10207
aVnr
p10208
aV54
p10209
aVnr
p10210
aVnr
p10211
aV42
p10212
aV59
p10213
aVnr
p10214
aV56
p10215
aV55
p10216
aV30
p10217
aV51
p10218
aVnr
p10219
aV52
p10220
aV49
p10221
aV46
p10222
aV46
p10223
aV49
p10224
aVnr
p10225
aV48
p10226
aVnr
p10227
aV50
p10228
aV48
p10229
aVnr
p10230
aVnr
p10231
aVnr
p10232
aV50
p10233
aVnr
p10234
aVnr
p10235
aV39
p10236
aVnr
p10237
aVnr
p10238
aV54
p10239
aV47
p10240
aV62
p10241
aV53
p10242
aa(lp10243
V27-06-2018
p10244
aV13
p10245
aVnr
p10246
aV66
p10247
aV41
p10248
aV59
p10249
aVnr
p10250
aV73
p10251
aV68
p10252
aV76
p10253
aVnr
p10254
aV68
p10255
aVnr
p10256
aVnr
p10257
aV54
p10258
aV71
p10259
aVnr
p10260
aV77
p10261
aV75
p10262
aV37
p10263
aV73
p10264
aVnr
p10265
aV69
p10266
aV60
p10267
aV62
p10268
aV67
p10269
aV50
p10270
aV79
p10271
aV71
p10272
aVnr
p10273
aV59
p10274
aV63
p10275
aVnr
p10276
aVnr
p10277
aVnr
p10278
aV48
p10279
aVnr
p10280
aVnr
p10281
aV61
p10282
aVnr
p10283
aVnr
p10284
aV61
p10285
aV57
p10286
aV74
p10287
aV64
p10288
aa(lp10289
V27-06-2018
p10290
aV14
p10291
aVnr
p10292
aV67
p10293
aV46
p10294
aV83
p10295
aVnr
p10296
aV89
p10297
aV93
p10298
aV81
p10299
aVnr
p10300
aV75
p10301
aVnr
p10302
aVnr
p10303
aV75
p10304
aV72
p10305
aVnr
p10306
aV90
p10307
aV97
p10308
aV42
p10309
aV89
p10310
aVnr
p10311
aV82
p10312
aV73
p10313
aV87
p10314
aV90
p10315
aV42
p10316
aV92
p10317
aV80
p10318
aVnr
p10319
aV71
p10320
aV85
p10321
aVnr
p10322
aVnr
p10323
aVnr
p10324
aV59
p10325
aVnr
p10326
aVnr
p10327
aV74
p10328
aVnr
p10329
aVnr
p10330
aV59
p10331
aV80
p10332
aV76
p10333
aV74
p10334
aa(lp10335
V27-06-2018
p10336
aV15
p10337
aVnr
p10338
aV64
p10339
aV49
p10340
aV94
p10341
aVnr
p10342
aV108
p10343
aV107
p10344
aV96
p10345
aVnr
p10346
aV75
p10347
aVnr
p10348
aVnr
p10349
aV92
p10350
aV75
p10351
aV96
p10352
aV94
p10353
aV111
p10354
aV39
p10355
aV106
p10356
aVnr
p10357
aV80
p10358
aV78
p10359
aV100
p10360
aV111
p10361
aV43
p10362
aV82
p10363
aV93
p10364
aVnr
p10365
aV77
p10366
aV102
p10367
aVnr
p10368
aVnr
p10369
aVnr
p10370
aV56
p10371
aVnr
p10372
aVnr
p10373
aV78
p10374
aVnr
p10375
aVnr
p10376
aV90
p10377
aV91
p10378
aV82
p10379
aV84
p10380
aa(lp10381
V27-06-2018
p10382
aV16
p10383
aVnr
p10384
aV62
p10385
aV47
p10386
aV93
p10387
aVnr
p10388
aV96
p10389
aV96
p10390
aV92
p10391
aVnr
p10392
aV54
p10393
aVnr
p10394
aVnr
p10395
aV106
p10396
aV74
p10397
aV93
p10398
aV83
p10399
aV106
p10400
aV35
p10401
aV93
p10402
aVnr
p10403
aV76
p10404
aV75
p10405
aV92
p10406
aV115
p10407
aV51
p10408
aV74
p10409
aV92
p10410
aVnr
p10411
aV66
p10412
aV109
p10413
aVnr
p10414
aVnr
p10415
aVnr
p10416
aV49
p10417
aVnr
p10418
aVnr
p10419
aV68
p10420
aV79
p10421
aVnr
p10422
aV58
p10423
aV68
p10424
aV74
p10425
aV73
p10426
aa(lp10427
V27-06-2018
p10428
aV17
p10429
aVnr
p10430
aV73
p10431
aV47
p10432
aV61
p10433
aVnr
p10434
aV71
p10435
aV64
p10436
aV74
p10437
aVnr
p10438
aV45
p10439
aVnr
p10440
aVnr
p10441
aV77
p10442
aV54
p10443
aV68
p10444
aV63
p10445
aV73
p10446
aV52
p10447
aV60
p10448
aVnr
p10449
aV46
p10450
aV57
p10451
aV63
p10452
aV70
p10453
aV48
p10454
aV53
p10455
aV87
p10456
aVnr
p10457
aV40
p10458
aV84
p10459
aVnr
p10460
aVnr
p10461
aVnr
p10462
aV50
p10463
aVnr
p10464
aVnr
p10465
aV47
p10466
aV53
p10467
aVnr
p10468
aV49
p10469
aV47
p10470
aV47
p10471
aV44
p10472
aa(lp10473
V27-06-2018
p10474
aV18
p10475
aVnr
p10476
aV65
p10477
aV44
p10478
aV36
p10479
aVnr
p10480
aV44
p10481
aV38
p10482
aV55
p10483
aVnr
p10484
aV34
p10485
aVnr
p10486
aVnr
p10487
aV65
p10488
aV38
p10489
aV40
p10490
aV43
p10491
aV44
p10492
aV46
p10493
aV39
p10494
aVnr
p10495
aV33
p10496
aV44
p10497
aV34
p10498
aV38
p10499
aV45
p10500
aV37
p10501
aV62
p10502
aVnr
p10503
aV25
p10504
aV69
p10505
aVnr
p10506
aVnr
p10507
aVnr
p10508
aV40
p10509
aVnr
p10510
aVnr
p10511
aV33
p10512
aV39
p10513
aVnr
p10514
aV46
p10515
aV36
p10516
aV40
p10517
aV33
p10518
aa(lp10519
V27-06-2018
p10520
aV19
p10521
aVnr
p10522
aV34
p10523
aV37
p10524
aV27
p10525
aVnr
p10526
aV32
p10527
aV22
p10528
aV33
p10529
aVnr
p10530
aV17
p10531
aVnr
p10532
aVnr
p10533
aV36
p10534
aV30
p10535
aV28
p10536
aV33
p10537
aV31
p10538
aV37
p10539
aV30
p10540
aVnr
p10541
aV31
p10542
aV32
p10543
aV23
p10544
aV15
p10545
aV45
p10546
aV37
p10547
aV33
p10548
aVnr
p10549
aV24
p10550
aV43
p10551
aVnr
p10552
aVnr
p10553
aVnr
p10554
aV38
p10555
aVnr
p10556
aVnr
p10557
aV19
p10558
aV31
p10559
aVnr
p10560
aV34
p10561
aV27
p10562
aV35
p10563
aV22
p10564
aasS'no2'
p10565
(lp10566
(lp10567
V26-06-2018
p10568
aV20
p10569
aVnr
p10570
aV9
aVnr
p10571
aV18
p10572
aVnr
p10573
aVnr
p10574
aV44
p10575
aV30
p10576
aVnr
p10577
aV29
p10578
aVnr
p10579
aVnr
p10580
aV25
p10581
aVnr
p10582
aV23
p10583
aVnr
p10584
aVnr
p10585
aV43
p10586
aVnr
p10587
aV35
p10588
aVnr
p10589
aV41
p10590
aV31
p10591
aVnr
p10592
aV49
p10593
aV29
p10594
aVnr
p10595
aVnr
p10596
aV26
p10597
aVnr
p10598
aVnr
p10599
aVnr
p10600
aVnr
p10601
aVnr
p10602
aVnr
p10603
aV44
p10604
aV49
p10605
aVnr
p10606
aV38
p10607
aV47
p10608
aV44
p10609
aV45
p10610
aa(lp10611
V26-06-2018
p10612
aV21
p10613
aVnr
p10614
aV25
p10615
aVnr
p10616
aV12
p10617
aVnr
p10618
aVnr
p10619
aV48
p10620
aV42
p10621
aVnr
p10622
aV40
p10623
aVnr
p10624
aVnr
p10625
aV27
p10626
aVnr
p10627
aV31
p10628
aVnr
p10629
aVnr
p10630
aV51
p10631
aVnr
p10632
aV37
p10633
aVnr
p10634
aV39
p10635
aV32
p10636
aVnr
p10637
aVnr
p10638
aV41
p10639
aVnr
p10640
aVnr
p10641
aV40
p10642
aVnr
p10643
aVnr
p10644
aVnr
p10645
aVnr
p10646
aVnr
p10647
aVnr
p10648
aV48
p10649
aV33
p10650
aVnr
p10651
aV34
p10652
aV50
p10653
aV28
p10654
aVnr
p10655
aa(lp10656
V26-06-2018
p10657
aV22
p10658
aVnr
p10659
aV28
p10660
aVnr
p10661
aV14
p10662
aVnr
p10663
aVnr
p10664
aV50
p10665
aV46
p10666
aVnr
p10667
aV40
p10668
aVnr
p10669
aVnr
p10670
aV31
p10671
aVnr
p10672
aV30
p10673
aVnr
p10674
aVnr
p10675
aV51
p10676
aVnr
p10677
aV22
p10678
aVnr
p10679
aV52
p10680
aV37
p10681
aVnr
p10682
aV55
p10683
aV38
p10684
aVnr
p10685
aVnr
p10686
aV29
p10687
aVnr
p10688
aVnr
p10689
aVnr
p10690
aVnr
p10691
aVnr
p10692
aVnr
p10693
aV41
p10694
aV38
p10695
aVnr
p10696
aV44
p10697
aV55
p10698
aV34
p10699
aV52
p10700
aa(lp10701
V26-06-2018
p10702
aV23
p10703
aVnr
p10704
aV35
p10705
aVnr
p10706
aV19
p10707
aVnr
p10708
aVnr
p10709
aV46
p10710
aV45
p10711
aVnr
p10712
aV41
p10713
aVnr
p10714
aVnr
p10715
aV39
p10716
aVnr
p10717
aV31
p10718
aVnr
p10719
aVnr
p10720
aV46
p10721
aVnr
p10722
aV17
p10723
aVnr
p10724
aV51
p10725
aV38
p10726
aVnr
p10727
aV48
p10728
aV31
p10729
aVnr
p10730
aVnr
p10731
aV20
p10732
aVnr
p10733
aVnr
p10734
aVnr
p10735
aVnr
p10736
aVnr
p10737
aVnr
p10738
aV41
p10739
aV40
p10740
aVnr
p10741
aV41
p10742
aV45
p10743
aV34
p10744
aV53
p10745
aa(lp10746
V26-06-2018
p10747
aV24
p10748
aVnr
p10749
aV17
p10750
aVnr
p10751
aV19
p10752
aVnr
p10753
aVnr
p10754
aV39
p10755
aV46
p10756
aVnr
p10757
aV31
p10758
aVnr
p10759
aVnr
p10760
aV35
p10761
aVnr
p10762
aV20
p10763
aVnr
p10764
aVnr
p10765
aV41
p10766
aVnr
p10767
aV46
p10768
aVnr
p10769
aV47
p10770
aV45
p10771
aVnr
p10772
aV46
p10773
aV37
p10774
aVnr
p10775
aVnr
p10776
aV21
p10777
aVnr
p10778
aVnr
p10779
aVnr
p10780
aVnr
p10781
aVnr
p10782
aVnr
p10783
aV31
p10784
aV37
p10785
aVnr
p10786
aV41
p10787
aV40
p10788
aV36
p10789
aV47
p10790
aa(lp10791
V27-06-2018
p10792
aV1
aVnr
p10793
aV22
p10794
aVnr
p10795
aV8
aVnr
p10796
aVnr
p10797
aV29
p10798
aV47
p10799
aVnr
p10800
aV19
p10801
aVnr
p10802
aVnr
p10803
aV34
p10804
aV9
aV13
p10805
aVnr
p10806
aV37
p10807
aV45
p10808
aVnr
p10809
aV36
p10810
aVnr
p10811
aV37
p10812
aV36
p10813
aVnr
p10814
aV38
p10815
aV30
p10816
aVnr
p10817
aV42
p10818
aV20
p10819
aVnr
p10820
aVnr
p10821
aVnr
p10822
aVnr
p10823
aVnr
p10824
aVnr
p10825
aV18
p10826
aV22
p10827
aVnr
p10828
aV36
p10829
aV35
p10830
aV31
p10831
aV45
p10832
aa(lp10833
V27-06-2018
p10834
aV2
aVnr
p10835
aV4
aVnr
p10836
aV7
aVnr
p10837
aVnr
p10838
aV21
p10839
aV33
p10840
aVnr
p10841
aV22
p10842
aVnr
p10843
aVnr
p10844
aV25
p10845
aV8
aV9
aVnr
p10846
aV28
p10847
aV42
p10848
aVnr
p10849
aV32
p10850
aVnr
p10851
aV30
p10852
aV23
p10853
aVnr
p10854
aV33
p10855
aV34
p10856
aVnr
p10857
aV39
p10858
aV14
p10859
aVnr
p10860
aVnr
p10861
aVnr
p10862
aVnr
p10863
aVnr
p10864
aVnr
p10865
aV14
p10866
aV22
p10867
aVnr
p10868
aV26
p10869
aV31
p10870
aV16
p10871
aV39
p10872
aa(lp10873
V27-06-2018
p10874
aV3
aVnr
p10875
aV2
aVnr
p10876
aV10
p10877
aVnr
p10878
aVnr
p10879
aV16
p10880
aV27
p10881
aVnr
p10882
aV23
p10883
aVnr
p10884
aVnr
p10885
aV19
p10886
aV9
aV6
aVnr
p10887
aV23
p10888
aV37
p10889
aVnr
p10890
aV26
p10891
aVnr
p10892
aV21
p10893
aV20
p10894
aVnr
p10895
aV32
p10896
aV17
p10897
aVnr
p10898
aV28
p10899
aV17
p10900
aVnr
p10901
aVnr
p10902
aVnr
p10903
aVnr
p10904
aVnr
p10905
aVnr
p10906
aV14
p10907
aV16
p10908
aVnr
p10909
aV26
p10910
aV31
p10911
aV12
p10912
aV40
p10913
aa(lp10914
V27-06-2018
p10915
aV4
aVnr
p10916
aV2
aVnr
p10917
aV10
p10918
aVnr
p10919
aVnr
p10920
aV20
p10921
aV27
p10922
aVnr
p10923
aV17
p10924
aVnr
p10925
aVnr
p10926
aV21
p10927
aV8
aV9
aVnr
p10928
aV25
p10929
aV36
p10930
aVnr
p10931
aV28
p10932
aVnr
p10933
aV19
p10934
aV27
p10935
aVnr
p10936
aV33
p10937
aV9
aVnr
p10938
aV28
p10939
aV21
p10940
aVnr
p10941
aVnr
p10942
aVnr
p10943
aVnr
p10944
aVnr
p10945
aVnr
p10946
aV18
p10947
aV19
p10948
aVnr
p10949
aV23
p10950
aV30
p10951
aV15
p10952
aV36
p10953
aa(lp10954
V27-06-2018
p10955
aV5
aVnr
p10956
aV7
aVnr
p10957
aVnr
p10958
aVnr
p10959
aVnr
p10960
aV25
p10961
aV19
p10962
aVnr
p10963
aV25
p10964
aVnr
p10965
aVnr
p10966
aV19
p10967
aV13
p10968
aV13
p10969
aVnr
p10970
aV26
p10971
aV34
p10972
aVnr
p10973
aV31
p10974
aVnr
p10975
aV30
p10976
aV32
p10977
aVnr
p10978
aVnr
p10979
aV12
p10980
aVnr
p10981
aV32
p10982
aV26
p10983
aVnr
p10984
aVnr
p10985
aVnr
p10986
aVnr
p10987
aVnr
p10988
aVnr
p10989
aV25
p10990
aV27
p10991
aVnr
p10992
aV22
p10993
aV33
p10994
aV22
p10995
aVnr
p10996
aa(lp10997
V27-06-2018
p10998
aV6
aVnr
p10999
aV12
p11000
aVnr
p11001
aV16
p11002
aVnr
p11003
aVnr
p11004
aV22
p11005
aV16
p11006
aVnr
p11007
aV25
p11008
aVnr
p11009
aVnr
p11010
aV25
p11011
aV15
p11012
aV18
p11013
aVnr
p11014
aV24
p11015
aV31
p11016
aVnr
p11017
aV28
p11018
aVnr
p11019
aV28
p11020
aV35
p11021
aVnr
p11022
aV30
p11023
aV20
p11024
aVnr
p11025
aV30
p11026
aV25
p11027
aVnr
p11028
aVnr
p11029
aVnr
p11030
aVnr
p11031
aVnr
p11032
aVnr
p11033
aV32
p11034
aV26
p11035
aVnr
p11036
aV23
p11037
aV35
p11038
aV22
p11039
aV32
p11040
aa(lp11041
V27-06-2018
p11042
aV7
aVnr
p11043
aV15
p11044
aVnr
p11045
aV18
p11046
aVnr
p11047
aVnr
p11048
aV20
p11049
aV16
p11050
aVnr
p11051
aV24
p11052
aVnr
p11053
aVnr
p11054
aV33
p11055
aV16
p11056
aV17
p11057
aVnr
p11058
aV24
p11059
aV29
p11060
aVnr
p11061
aV23
p11062
aVnr
p11063
aV28
p11064
aV29
p11065
aVnr
p11066
aV31
p11067
aV19
p11068
aVnr
p11069
aV24
p11070
aV21
p11071
aVnr
p11072
aVnr
p11073
aVnr
p11074
aVnr
p11075
aVnr
p11076
aVnr
p11077
aV32
p11078
aV27
p11079
aVnr
p11080
aV22
p11081
aV30
p11082
aV22
p11083
aV27
p11084
aa(lp11085
V27-06-2018
p11086
aV8
aVnr
p11087
aV17
p11088
aVnr
p11089
aV20
p11090
aVnr
p11091
aVnr
p11092
aV29
p11093
aV22
p11094
aVnr
p11095
aV22
p11096
aVnr
p11097
aVnr
p11098
aV24
p11099
aV24
p11100
aV21
p11101
aVnr
p11102
aV34
p11103
aV29
p11104
aVnr
p11105
aV20
p11106
aVnr
p11107
aV33
p11108
aV27
p11109
aVnr
p11110
aV26
p11111
aV23
p11112
aVnr
p11113
aV23
p11114
aV18
p11115
aVnr
p11116
aVnr
p11117
aVnr
p11118
aVnr
p11119
aVnr
p11120
aVnr
p11121
aV29
p11122
aV29
p11123
aVnr
p11124
aV20
p11125
aV33
p11126
aV23
p11127
aV32
p11128
aa(lp11129
V27-06-2018
p11130
aV9
aVnr
p11131
aV17
p11132
aVnr
p11133
aV13
p11134
aVnr
p11135
aVnr
p11136
aV31
p11137
aV22
p11138
aVnr
p11139
aV12
p11140
aVnr
p11141
aVnr
p11142
aV16
p11143
aV18
p11144
aV17
p11145
aVnr
p11146
aV35
p11147
aV26
p11148
aVnr
p11149
aV23
p11150
aVnr
p11151
aV42
p11152
aV22
p11153
aVnr
p11154
aV29
p11155
aV29
p11156
aVnr
p11157
aV25
p11158
aV20
p11159
aVnr
p11160
aVnr
p11161
aVnr
p11162
aVnr
p11163
aVnr
p11164
aVnr
p11165
aV29
p11166
aV27
p11167
aVnr
p11168
aV15
p11169
aV35
p11170
aV23
p11171
aV27
p11172
aa(lp11173
V27-06-2018
p11174
aV10
p11175
aVnr
p11176
aV17
p11177
aVnr
p11178
aV9
aVnr
p11179
aVnr
p11180
aV28
p11181
aV23
p11182
aVnr
p11183
aV8
aVnr
p11184
aVnr
p11185
aV16
p11186
aV11
p11187
aV16
p11188
aVnr
p11189
aV33
p11190
aV30
p11191
aVnr
p11192
aV20
p11193
aVnr
p11194
aV39
p11195
aV23
p11196
aVnr
p11197
aV35
p11198
aV32
p11199
aVnr
p11200
aV19
p11201
aV12
p11202
aVnr
p11203
aVnr
p11204
aVnr
p11205
aVnr
p11206
aVnr
p11207
aVnr
p11208
aV30
p11209
aV28
p11210
aVnr
p11211
aV12
p11212
aV32
p11213
aV12
p11214
aV38
p11215
aa(lp11216
V27-06-2018
p11217
aV11
p11218
aVnr
p11219
aV18
p11220
aVnr
p11221
aV15
p11222
aVnr
p11223
aVnr
p11224
aV24
p11225
aV22
p11226
aVnr
p11227
aV6
aVnr
p11228
aVnr
p11229
aV14
p11230
aV10
p11231
aV17
p11232
aVnr
p11233
aV29
p11234
aV37
p11235
aVnr
p11236
aV18
p11237
aVnr
p11238
aV44
p11239
aV23
p11240
aVnr
p11241
aV38
p11242
aV24
p11243
aVnr
p11244
aV17
p11245
aV12
p11246
aVnr
p11247
aVnr
p11248
aVnr
p11249
aVnr
p11250
aVnr
p11251
aVnr
p11252
aV32
p11253
aV21
p11254
aVnr
p11255
aV13
p11256
aV22
p11257
aV9
aV44
p11258
aa(lp11259
V27-06-2018
p11260
aV12
p11261
aVnr
p11262
aV15
p11263
aVnr
p11264
aV26
p11265
aVnr
p11266
aVnr
p11267
aV27
p11268
aV17
p11269
aVnr
p11270
aV5
aVnr
p11271
aVnr
p11272
aV18
p11273
aV8
aVnr
p11274
aVnr
p11275
aV39
p11276
aV34
p11277
aVnr
p11278
aV13
p11279
aVnr
p11280
aV54
p11281
aV20
p11282
aVnr
p11283
aVnr
p11284
aV20
p11285
aVnr
p11286
aV12
p11287
aV15
p11288
aVnr
p11289
aVnr
p11290
aVnr
p11291
aVnr
p11292
aVnr
p11293
aVnr
p11294
aV33
p11295
aVnr
p11296
aVnr
p11297
aV10
p11298
aV12
p11299
aV9
aV34
p11300
aa(lp11301
V27-06-2018
p11302
aV13
p11303
aVnr
p11304
aV12
p11305
aVnr
p11306
aV21
p11307
aVnr
p11308
aVnr
p11309
aV26
p11310
aV16
p11311
aVnr
p11312
aV4
aVnr
p11313
aVnr
p11314
aV19
p11315
aV7
aVnr
p11316
aVnr
p11317
aV34
p11318
aV21
p11319
aVnr
p11320
aV11
p11321
aVnr
p11322
aV51
p11323
aV26
p11324
aVnr
p11325
aV20
p11326
aV17
p11327
aVnr
p11328
aV7
aV15
p11329
aVnr
p11330
aVnr
p11331
aVnr
p11332
aVnr
p11333
aVnr
p11334
aVnr
p11335
aV32
p11336
aVnr
p11337
aVnr
p11338
aV5
aV10
p11339
aV9
aV24
p11340
aa(lp11341
V27-06-2018
p11342
aV14
p11343
aVnr
p11344
aV9
aVnr
p11345
aV16
p11346
aVnr
p11347
aVnr
p11348
aV25
p11349
aV10
p11350
aVnr
p11351
aV4
aVnr
p11352
aVnr
p11353
aV21
p11354
aV7
aVnr
p11355
aVnr
p11356
aV28
p11357
aV30
p11358
aVnr
p11359
aV10
p11360
aVnr
p11361
aV36
p11362
aV30
p11363
aVnr
p11364
aV13
p11365
aV11
p11366
aVnr
p11367
aV10
p11368
aV16
p11369
aVnr
p11370
aVnr
p11371
aVnr
p11372
aVnr
p11373
aVnr
p11374
aVnr
p11375
aV26
p11376
aVnr
p11377
aVnr
p11378
aV4
aV18
p11379
aV7
aV23
p11380
aa(lp11381
V27-06-2018
p11382
aV15
p11383
aVnr
p11384
aV8
aVnr
p11385
aV13
p11386
aVnr
p11387
aVnr
p11388
aV19
p11389
aV16
p11390
aVnr
p11391
aV5
aVnr
p11392
aVnr
p11393
aV23
p11394
aV6
aV28
p11395
aVnr
p11396
aV22
p11397
aV22
p11398
aVnr
p11399
aV10
p11400
aVnr
p11401
aV21
p11402
aV26
p11403
aVnr
p11404
aV9
aV13
p11405
aVnr
p11406
aV9
aV17
p11407
aVnr
p11408
aVnr
p11409
aVnr
p11410
aVnr
p11411
aVnr
p11412
aVnr
p11413
aV28
p11414
aVnr
p11415
aVnr
p11416
aV11
p11417
aV19
p11418
aV6
aV20
p11419
aa(lp11420
V27-06-2018
p11421
aV16
p11422
aVnr
p11423
aV10
p11424
aVnr
p11425
aV11
p11426
aVnr
p11427
aVnr
p11428
aV18
p11429
aV22
p11430
aVnr
p11431
aV8
aVnr
p11432
aVnr
p11433
aV28
p11434
aV7
aV27
p11435
aVnr
p11436
aV20
p11437
aV20
p11438
aVnr
p11439
aV8
aVnr
p11440
aV18
p11441
aV24
p11442
aVnr
p11443
aV11
p11444
aV18
p11445
aVnr
p11446
aV15
p11447
aV23
p11448
aVnr
p11449
aVnr
p11450
aVnr
p11451
aVnr
p11452
aVnr
p11453
aVnr
p11454
aV24
p11455
aV9
aVnr
p11456
aV7
aV11
p11457
aV7
aV19
p11458
aa(lp11459
V27-06-2018
p11460
aV17
p11461
aVnr
p11462
aV11
p11463
aVnr
p11464
aV18
p11465
aVnr
p11466
aVnr
p11467
aV20
p11468
aV14
p11469
aVnr
p11470
aV9
aVnr
p11471
aVnr
p11472
aV24
p11473
aV9
aV34
p11474
aVnr
p11475
aV19
p11476
aV18
p11477
aVnr
p11478
aV9
aVnr
p11479
aV20
p11480
aV27
p11481
aVnr
p11482
aV11
p11483
aV11
p11484
aVnr
p11485
aV17
p11486
aV19
p11487
aVnr
p11488
aVnr
p11489
aVnr
p11490
aVnr
p11491
aVnr
p11492
aVnr
p11493
aV34
p11494
aV13
p11495
aVnr
p11496
aV8
aV14
p11497
aV11
p11498
aV25
p11499
aa(lp11500
V27-06-2018
p11501
aV18
p11502
aVnr
p11503
aV12
p11504
aVnr
p11505
aV22
p11506
aVnr
p11507
aVnr
p11508
aV23
p11509
aV18
p11510
aVnr
p11511
aV12
p11512
aVnr
p11513
aVnr
p11514
aV22
p11515
aV12
p11516
aV27
p11517
aVnr
p11518
aV20
p11519
aV20
p11520
aVnr
p11521
aV12
p11522
aVnr
p11523
aV26
p11524
aV30
p11525
aVnr
p11526
aV14
p11527
aV14
p11528
aVnr
p11529
aV17
p11530
aV19
p11531
aVnr
p11532
aVnr
p11533
aVnr
p11534
aVnr
p11535
aVnr
p11536
aVnr
p11537
aV22
p11538
aV12
p11539
aVnr
p11540
aV9
aV15
p11541
aV8
aV24
p11542
aa(lp11543
V27-06-2018
p11544
aV19
p11545
aVnr
p11546
aV22
p11547
aVnr
p11548
aV20
p11549
aVnr
p11550
aVnr
p11551
aV28
p11552
aV22
p11553
aVnr
p11554
aV28
p11555
aVnr
p11556
aVnr
p11557
aV28
p11558
aV12
p11559
aV33
p11560
aVnr
p11561
aV23
p11562
aV24
p11563
aVnr
p11564
aV11
p11565
aVnr
p11566
aV27
p11567
aV41
p11568
aVnr
p11569
aV18
p11570
aV22
p11571
aVnr
p11572
aV17
p11573
aV20
p11574
aVnr
p11575
aVnr
p11576
aVnr
p11577
aVnr
p11578
aVnr
p11579
aVnr
p11580
aV34
p11581
aV15
p11582
aVnr
p11583
aV11
p11584
aV20
p11585
aV10
p11586
aV27
p11587
aas.