(dp1
S'tmp'
p2
(lp3
(lp4
V02-11-2016
p5
aV21
p6
aVnr
p7
aV14
p8
aV10
p9
aVnr
p10
aV16
p11
aVnr
p12
aVnr
p13
aVnr
p14
aV15
p15
aV14
p16
aVnr
p17
aV12
p18
aV16
p19
aVnr
p20
aVnr
p21
aV16
p22
aVnr
p23
aVnr
p24
aVnr
p25
aVnr
p26
aVnr
p27
aV16
p28
aV15
p29
aVnr
p30
aV17
p31
aV16
p32
aVnr
p33
aV19
p34
aV13
p35
aVnr
p36
aVnr
p37
aVnr
p38
aVnr
p39
aV15
p40
aVnr
p41
aV15
p42
aVnr
p43
aVnr
p44
aV17
p45
aV17
p46
aV18
p47
aV17
p48
aa(lp49
V02-11-2016
p50
aV21
p51
aVnr
p52
aV14
p53
aV10
p54
aVnr
p55
aV16
p56
aVnr
p57
aVnr
p58
aVnr
p59
aV15
p60
aV14
p61
aVnr
p62
aV12
p63
aV16
p64
aVnr
p65
aVnr
p66
aV16
p67
aVnr
p68
aVnr
p69
aVnr
p70
aVnr
p71
aVnr
p72
aV16
p73
aV15
p74
aVnr
p75
aV17
p76
aV16
p77
aVnr
p78
aV19
p79
aV13
p80
aVnr
p81
aVnr
p82
aVnr
p83
aVnr
p84
aV15
p85
aVnr
p86
aV15
p87
aVnr
p88
aVnr
p89
aV17
p90
aV17
p91
aV18
p92
aV17
p93
aa(lp94
V02-11-2016
p95
aV21
p96
aVnr
p97
aV14
p98
aV10
p99
aVnr
p100
aV16
p101
aVnr
p102
aVnr
p103
aVnr
p104
aV15
p105
aV14
p106
aVnr
p107
aV12
p108
aV16
p109
aVnr
p110
aVnr
p111
aV16
p112
aVnr
p113
aVnr
p114
aVnr
p115
aVnr
p116
aVnr
p117
aV16
p118
aV15
p119
aVnr
p120
aV17
p121
aV16
p122
aVnr
p123
aV19
p124
aV13
p125
aVnr
p126
aVnr
p127
aVnr
p128
aVnr
p129
aV15
p130
aVnr
p131
aV15
p132
aVnr
p133
aVnr
p134
aV17
p135
aV17
p136
aV18
p137
aV17
p138
aa(lp139
V02-11-2016
p140
aV21
p141
aVnr
p142
aV14
p143
aV10
p144
aVnr
p145
aV16
p146
aVnr
p147
aVnr
p148
aVnr
p149
aV15
p150
aV14
p151
aVnr
p152
aV12
p153
aV16
p154
aVnr
p155
aVnr
p156
aV16
p157
aVnr
p158
aVnr
p159
aVnr
p160
aVnr
p161
aVnr
p162
aV16
p163
aV15
p164
aVnr
p165
aV17
p166
aV16
p167
aVnr
p168
aV19
p169
aV13
p170
aVnr
p171
aVnr
p172
aVnr
p173
aVnr
p174
aV15
p175
aVnr
p176
aV15
p177
aVnr
p178
aVnr
p179
aV17
p180
aV17
p181
aV18
p182
aV17
p183
aa(lp184
V02-11-2016
p185
aV21
p186
aVnr
p187
aV14
p188
aV10
p189
aVnr
p190
aV16
p191
aVnr
p192
aVnr
p193
aVnr
p194
aV15
p195
aV14
p196
aVnr
p197
aV12
p198
aV16
p199
aVnr
p200
aVnr
p201
aV16
p202
aVnr
p203
aVnr
p204
aVnr
p205
aVnr
p206
aVnr
p207
aV16
p208
aV15
p209
aVnr
p210
aV17
p211
aV16
p212
aVnr
p213
aV19
p214
aV13
p215
aVnr
p216
aVnr
p217
aVnr
p218
aVnr
p219
aV15
p220
aVnr
p221
aV15
p222
aVnr
p223
aVnr
p224
aV17
p225
aV17
p226
aV18
p227
aV17
p228
aa(lp229
V02-11-2016
p230
aV21
p231
aVnr
p232
aV14
p233
aV10
p234
aVnr
p235
aV16
p236
aVnr
p237
aVnr
p238
aVnr
p239
aV15
p240
aV14
p241
aVnr
p242
aV12
p243
aV16
p244
aVnr
p245
aVnr
p246
aV16
p247
aVnr
p248
aVnr
p249
aVnr
p250
aVnr
p251
aVnr
p252
aV16
p253
aV15
p254
aVnr
p255
aV17
p256
aV16
p257
aVnr
p258
aV19
p259
aV13
p260
aVnr
p261
aVnr
p262
aVnr
p263
aVnr
p264
aV15
p265
aVnr
p266
aV15
p267
aVnr
p268
aVnr
p269
aV17
p270
aV17
p271
aV18
p272
aV17
p273
aa(lp274
V02-11-2016
p275
aV21
p276
aVnr
p277
aV14
p278
aV10
p279
aVnr
p280
aV16
p281
aVnr
p282
aVnr
p283
aVnr
p284
aV15
p285
aV14
p286
aVnr
p287
aV12
p288
aV16
p289
aVnr
p290
aVnr
p291
aV16
p292
aVnr
p293
aVnr
p294
aVnr
p295
aVnr
p296
aVnr
p297
aV16
p298
aV15
p299
aVnr
p300
aV17
p301
aV16
p302
aVnr
p303
aV19
p304
aV13
p305
aVnr
p306
aVnr
p307
aVnr
p308
aVnr
p309
aV15
p310
aVnr
p311
aV15
p312
aVnr
p313
aVnr
p314
aV17
p315
aV17
p316
aV18
p317
aV17
p318
aa(lp319
V02-11-2016
p320
aV21
p321
aVnr
p322
aV14
p323
aV10
p324
aVnr
p325
aV16
p326
aVnr
p327
aVnr
p328
aVnr
p329
aV15
p330
aV14
p331
aVnr
p332
aV12
p333
aV16
p334
aVnr
p335
aVnr
p336
aV16
p337
aVnr
p338
aVnr
p339
aVnr
p340
aVnr
p341
aVnr
p342
aV16
p343
aV15
p344
aVnr
p345
aV17
p346
aV16
p347
aVnr
p348
aV19
p349
aV13
p350
aVnr
p351
aVnr
p352
aVnr
p353
aVnr
p354
aV15
p355
aVnr
p356
aV15
p357
aVnr
p358
aVnr
p359
aV17
p360
aV17
p361
aV18
p362
aV17
p363
aa(lp364
V02-11-2016
p365
aV22
p366
aVnr
p367
aV15
p368
aV10
p369
aVnr
p370
aV16
p371
aVnr
p372
aVnr
p373
aVnr
p374
aV15
p375
aV14
p376
aVnr
p377
aV12
p378
aV15
p379
aVnr
p380
aVnr
p381
aV16
p382
aVnr
p383
aVnr
p384
aVnr
p385
aVnr
p386
aVnr
p387
aV16
p388
aVnr
p389
aVnr
p390
aV16
p391
aV15
p392
aVnr
p393
aV18
p394
aV13
p395
aVnr
p396
aVnr
p397
aVnr
p398
aVnr
p399
aV14
p400
aVnr
p401
aV14
p402
aVnr
p403
aVnr
p404
aV15
p405
aV15
p406
aV17
p407
aV16
p408
aa(lp409
V02-11-2016
p410
aV22
p411
aVnr
p412
aV15
p413
aV10
p414
aVnr
p415
aV16
p416
aVnr
p417
aVnr
p418
aVnr
p419
aV15
p420
aV14
p421
aVnr
p422
aV12
p423
aV15
p424
aVnr
p425
aVnr
p426
aV16
p427
aVnr
p428
aVnr
p429
aVnr
p430
aVnr
p431
aVnr
p432
aV16
p433
aVnr
p434
aVnr
p435
aV16
p436
aV15
p437
aVnr
p438
aV18
p439
aV13
p440
aVnr
p441
aVnr
p442
aVnr
p443
aVnr
p444
aV14
p445
aVnr
p446
aV14
p447
aVnr
p448
aVnr
p449
aV15
p450
aV15
p451
aV17
p452
aV16
p453
aa(lp454
V02-11-2016
p455
aV22
p456
aVnr
p457
aV15
p458
aV10
p459
aVnr
p460
aV16
p461
aVnr
p462
aVnr
p463
aVnr
p464
aV15
p465
aV14
p466
aVnr
p467
aV12
p468
aV15
p469
aVnr
p470
aVnr
p471
aV16
p472
aVnr
p473
aVnr
p474
aVnr
p475
aVnr
p476
aVnr
p477
aV16
p478
aVnr
p479
aVnr
p480
aV16
p481
aV15
p482
aVnr
p483
aV18
p484
aV13
p485
aVnr
p486
aVnr
p487
aVnr
p488
aVnr
p489
aV14
p490
aVnr
p491
aV14
p492
aVnr
p493
aVnr
p494
aV15
p495
aV15
p496
aV17
p497
aV16
p498
aasS'co'
p499
(lp500
(lp501
V02-11-2016
p502
aV21
p503
aV0.1
p504
aV0.2
p505
aVnr
p506
aVnr
p507
aV0.5
p508
aVnr
p509
aV0.6
p510
aVnr
p511
aV0.4
p512
aVnr
p513
aV0.8
p514
aV0.6
p515
aVnr
p516
aV0.5
p517
aVnr
p518
aVnr
p519
aVnr
p520
aVnr
p521
aVnr
p522
aV0.0
p523
aV0.7
p524
aVnr
p525
aVnr
p526
aVnr
p527
aVnr
p528
aV0.5
p529
aV0.6
p530
aV0.7
p531
aV0.5
p532
aVnr
p533
aV0.9
p534
aVnr
p535
aV0.7
p536
aVnr
p537
aVnr
p538
aV0.2
p539
aVnr
p540
aVnr
p541
aV0.6
p542
aV0.5
p543
aVnr
p544
aV0.7
p545
aV0.6
p546
aVnr
p547
aV0.4
p548
aV1.2
p549
aa(lp550
V02-11-2016
p551
aV21
p552
aV0.1
p553
aV0.2
p554
aVnr
p555
aVnr
p556
aV0.5
p557
aVnr
p558
aV0.6
p559
aVnr
p560
aV0.4
p561
aVnr
p562
aV0.8
p563
aV0.6
p564
aVnr
p565
aV0.5
p566
aVnr
p567
aVnr
p568
aVnr
p569
aVnr
p570
aVnr
p571
aV0.0
p572
aV0.7
p573
aVnr
p574
aVnr
p575
aVnr
p576
aVnr
p577
aV0.5
p578
aV0.6
p579
aV0.7
p580
aV0.5
p581
aVnr
p582
aV0.9
p583
aVnr
p584
aV0.7
p585
aVnr
p586
aVnr
p587
aV0.2
p588
aVnr
p589
aVnr
p590
aV0.6
p591
aV0.5
p592
aVnr
p593
aV0.7
p594
aV0.6
p595
aVnr
p596
aV0.4
p597
aV1.2
p598
aa(lp599
V02-11-2016
p600
aV21
p601
aV0.1
p602
aV0.2
p603
aVnr
p604
aVnr
p605
aV0.5
p606
aVnr
p607
aV0.6
p608
aVnr
p609
aV0.4
p610
aVnr
p611
aV0.8
p612
aV0.6
p613
aVnr
p614
aV0.5
p615
aVnr
p616
aVnr
p617
aVnr
p618
aVnr
p619
aVnr
p620
aV0.0
p621
aV0.7
p622
aVnr
p623
aVnr
p624
aVnr
p625
aVnr
p626
aV0.5
p627
aV0.6
p628
aV0.7
p629
aV0.5
p630
aVnr
p631
aV0.9
p632
aVnr
p633
aV0.7
p634
aVnr
p635
aVnr
p636
aV0.2
p637
aVnr
p638
aVnr
p639
aV0.6
p640
aV0.5
p641
aVnr
p642
aV0.7
p643
aV0.6
p644
aVnr
p645
aV0.4
p646
aV1.2
p647
aa(lp648
V02-11-2016
p649
aV21
p650
aV0.1
p651
aV0.2
p652
aVnr
p653
aVnr
p654
aV0.5
p655
aVnr
p656
aV0.6
p657
aVnr
p658
aV0.4
p659
aVnr
p660
aV0.8
p661
aV0.6
p662
aVnr
p663
aV0.5
p664
aVnr
p665
aVnr
p666
aVnr
p667
aVnr
p668
aVnr
p669
aV0.0
p670
aV0.7
p671
aVnr
p672
aVnr
p673
aVnr
p674
aVnr
p675
aV0.5
p676
aV0.6
p677
aV0.7
p678
aV0.5
p679
aVnr
p680
aV0.9
p681
aVnr
p682
aV0.7
p683
aVnr
p684
aVnr
p685
aV0.2
p686
aVnr
p687
aVnr
p688
aV0.6
p689
aV0.5
p690
aVnr
p691
aV0.7
p692
aV0.6
p693
aVnr
p694
aV0.4
p695
aV1.2
p696
aa(lp697
V02-11-2016
p698
aV21
p699
aV0.1
p700
aV0.2
p701
aVnr
p702
aVnr
p703
aV0.5
p704
aVnr
p705
aV0.6
p706
aVnr
p707
aV0.4
p708
aVnr
p709
aV0.8
p710
aV0.6
p711
aVnr
p712
aV0.5
p713
aVnr
p714
aVnr
p715
aVnr
p716
aVnr
p717
aVnr
p718
aV0.0
p719
aV0.7
p720
aVnr
p721
aVnr
p722
aVnr
p723
aVnr
p724
aV0.5
p725
aV0.6
p726
aV0.7
p727
aV0.5
p728
aVnr
p729
aV0.9
p730
aVnr
p731
aV0.7
p732
aVnr
p733
aVnr
p734
aV0.2
p735
aVnr
p736
aVnr
p737
aV0.6
p738
aV0.5
p739
aVnr
p740
aV0.7
p741
aV0.6
p742
aVnr
p743
aV0.4
p744
aV1.2
p745
aa(lp746
V02-11-2016
p747
aV21
p748
aV0.1
p749
aV0.2
p750
aVnr
p751
aVnr
p752
aV0.5
p753
aVnr
p754
aV0.6
p755
aVnr
p756
aV0.4
p757
aVnr
p758
aV0.8
p759
aV0.6
p760
aVnr
p761
aV0.5
p762
aVnr
p763
aVnr
p764
aVnr
p765
aVnr
p766
aVnr
p767
aV0.0
p768
aV0.7
p769
aVnr
p770
aVnr
p771
aVnr
p772
aVnr
p773
aV0.5
p774
aV0.6
p775
aV0.7
p776
aV0.5
p777
aVnr
p778
aV0.9
p779
aVnr
p780
aV0.7
p781
aVnr
p782
aVnr
p783
aV0.2
p784
aVnr
p785
aVnr
p786
aV0.6
p787
aV0.5
p788
aVnr
p789
aV0.7
p790
aV0.6
p791
aVnr
p792
aV0.4
p793
aV1.2
p794
aa(lp795
V02-11-2016
p796
aV21
p797
aV0.1
p798
aV0.2
p799
aVnr
p800
aVnr
p801
aV0.5
p802
aVnr
p803
aV0.6
p804
aVnr
p805
aV0.4
p806
aVnr
p807
aV0.8
p808
aV0.6
p809
aVnr
p810
aV0.5
p811
aVnr
p812
aVnr
p813
aVnr
p814
aVnr
p815
aVnr
p816
aV0.0
p817
aV0.7
p818
aVnr
p819
aVnr
p820
aVnr
p821
aVnr
p822
aV0.5
p823
aV0.6
p824
aV0.7
p825
aV0.5
p826
aVnr
p827
aV0.9
p828
aVnr
p829
aV0.7
p830
aVnr
p831
aVnr
p832
aV0.2
p833
aVnr
p834
aVnr
p835
aV0.6
p836
aV0.5
p837
aVnr
p838
aV0.7
p839
aV0.6
p840
aVnr
p841
aV0.4
p842
aV1.2
p843
aa(lp844
V02-11-2016
p845
aV21
p846
aV0.1
p847
aV0.2
p848
aVnr
p849
aVnr
p850
aV0.5
p851
aVnr
p852
aV0.6
p853
aVnr
p854
aV0.4
p855
aVnr
p856
aV0.8
p857
aV0.6
p858
aVnr
p859
aV0.5
p860
aVnr
p861
aVnr
p862
aVnr
p863
aVnr
p864
aVnr
p865
aV0.0
p866
aV0.7
p867
aVnr
p868
aVnr
p869
aVnr
p870
aVnr
p871
aV0.5
p872
aV0.6
p873
aV0.7
p874
aV0.5
p875
aVnr
p876
aV0.9
p877
aVnr
p878
aV0.7
p879
aVnr
p880
aVnr
p881
aV0.2
p882
aVnr
p883
aVnr
p884
aV0.6
p885
aV0.5
p886
aVnr
p887
aV0.7
p888
aV0.6
p889
aVnr
p890
aV0.4
p891
aV1.2
p892
aa(lp893
V02-11-2016
p894
aV22
p895
aV0.3
p896
aV0.2
p897
aVnr
p898
aVnr
p899
aV0.6
p900
aVnr
p901
aV0.7
p902
aVnr
p903
aV0.6
p904
aVnr
p905
aV0.9
p906
aV0.6
p907
aVnr
p908
aV0.5
p909
aVnr
p910
aVnr
p911
aVnr
p912
aVnr
p913
aVnr
p914
aV0.1
p915
aV0.8
p916
aVnr
p917
aVnr
p918
aV0.8
p919
aVnr
p920
aVnr
p921
aV0.5
p922
aV0.5
p923
aV0.5
p924
aVnr
p925
aV0.9
p926
aVnr
p927
aVnr
p928
aVnr
p929
aVnr
p930
aV0.2
p931
aVnr
p932
aVnr
p933
aV0.6
p934
aV0.4
p935
aVnr
p936
aV0.5
p937
aV0.6
p938
aVnr
p939
aV0.5
p940
aV1.0
p941
aa(lp942
V02-11-2016
p943
aV22
p944
aV0.3
p945
aV0.2
p946
aVnr
p947
aVnr
p948
aV0.6
p949
aVnr
p950
aV0.7
p951
aVnr
p952
aV0.6
p953
aVnr
p954
aV0.9
p955
aV0.6
p956
aVnr
p957
aV0.5
p958
aVnr
p959
aVnr
p960
aVnr
p961
aVnr
p962
aVnr
p963
aV0.1
p964
aV0.8
p965
aVnr
p966
aVnr
p967
aV0.8
p968
aVnr
p969
aVnr
p970
aV0.5
p971
aV0.5
p972
aV0.5
p973
aVnr
p974
aV0.9
p975
aVnr
p976
aVnr
p977
aVnr
p978
aVnr
p979
aV0.2
p980
aVnr
p981
aVnr
p982
aV0.6
p983
aV0.4
p984
aVnr
p985
aV0.5
p986
aV0.6
p987
aVnr
p988
aV0.5
p989
aV1.0
p990
aa(lp991
V02-11-2016
p992
aV22
p993
aV0.3
p994
aV0.2
p995
aVnr
p996
aVnr
p997
aV0.6
p998
aVnr
p999
aV0.7
p1000
aVnr
p1001
aV0.6
p1002
aVnr
p1003
aV0.9
p1004
aV0.6
p1005
aVnr
p1006
aV0.5
p1007
aVnr
p1008
aVnr
p1009
aVnr
p1010
aVnr
p1011
aVnr
p1012
aV0.1
p1013
aV0.8
p1014
aVnr
p1015
aVnr
p1016
aV0.8
p1017
aVnr
p1018
aVnr
p1019
aV0.5
p1020
aV0.5
p1021
aV0.5
p1022
aVnr
p1023
aV0.9
p1024
aVnr
p1025
aVnr
p1026
aVnr
p1027
aVnr
p1028
aV0.2
p1029
aVnr
p1030
aVnr
p1031
aV0.6
p1032
aV0.4
p1033
aVnr
p1034
aV0.5
p1035
aV0.6
p1036
aVnr
p1037
aV0.5
p1038
aV1.0
p1039
aasS'pm2'
p1040
(lp1041
(lp1042
V02-11-2016
p1043
aV21
p1044
aVnr
p1045
aV9
aV3
aVnr
p1046
aV17
p1047
aVnr
p1048
aV11
p1049
aVnr
p1050
aVnr
p1051
aV23
p1052
aVnr
p1053
aVnr
p1054
aVnr
p1055
aVnr
p1056
aV21
p1057
aV14
p1058
aVnr
p1059
aVnr
p1060
aVnr
p1061
aVnr
p1062
aV13
p1063
aV28
p1064
aVnr
p1065
aVnr
p1066
aV12
p1067
aVnr
p1068
aVnr
p1069
aVnr
p1070
aVnr
p1071
aVnr
p1072
aV13
p1073
aVnr
p1074
aVnr
p1075
aV22
p1076
aVnr
p1077
aVnr
p1078
aV7
aa(lp1079
V02-11-2016
p1080
aV21
p1081
aVnr
p1082
aV9
aV3
aVnr
p1083
aV17
p1084
aVnr
p1085
aV11
p1086
aVnr
p1087
aVnr
p1088
aV23
p1089
aVnr
p1090
aVnr
p1091
aVnr
p1092
aVnr
p1093
aV21
p1094
aV14
p1095
aVnr
p1096
aVnr
p1097
aVnr
p1098
aVnr
p1099
aV13
p1100
aV28
p1101
aVnr
p1102
aVnr
p1103
aV12
p1104
aVnr
p1105
aVnr
p1106
aVnr
p1107
aVnr
p1108
aVnr
p1109
aV13
p1110
aVnr
p1111
aVnr
p1112
aV22
p1113
aVnr
p1114
aVnr
p1115
aV7
aa(lp1116
V02-11-2016
p1117
aV21
p1118
aVnr
p1119
aV9
aV3
aVnr
p1120
aV17
p1121
aVnr
p1122
aV11
p1123
aVnr
p1124
aVnr
p1125
aV23
p1126
aVnr
p1127
aVnr
p1128
aVnr
p1129
aVnr
p1130
aV21
p1131
aV14
p1132
aVnr
p1133
aVnr
p1134
aVnr
p1135
aVnr
p1136
aV13
p1137
aV28
p1138
aVnr
p1139
aVnr
p1140
aV12
p1141
aVnr
p1142
aVnr
p1143
aVnr
p1144
aVnr
p1145
aVnr
p1146
aV13
p1147
aVnr
p1148
aVnr
p1149
aV22
p1150
aVnr
p1151
aVnr
p1152
aV7
aa(lp1153
V02-11-2016
p1154
aV21
p1155
aVnr
p1156
aV9
aV3
aVnr
p1157
aV17
p1158
aVnr
p1159
aV11
p1160
aVnr
p1161
aVnr
p1162
aV23
p1163
aVnr
p1164
aVnr
p1165
aVnr
p1166
aVnr
p1167
aV21
p1168
aV14
p1169
aVnr
p1170
aVnr
p1171
aVnr
p1172
aVnr
p1173
aV13
p1174
aV28
p1175
aVnr
p1176
aVnr
p1177
aV12
p1178
aVnr
p1179
aVnr
p1180
aVnr
p1181
aVnr
p1182
aVnr
p1183
aV13
p1184
aVnr
p1185
aVnr
p1186
aV22
p1187
aVnr
p1188
aVnr
p1189
aV7
aa(lp1190
V02-11-2016
p1191
aV21
p1192
aVnr
p1193
aV9
aV3
aVnr
p1194
aV17
p1195
aVnr
p1196
aV11
p1197
aVnr
p1198
aVnr
p1199
aV23
p1200
aVnr
p1201
aVnr
p1202
aVnr
p1203
aVnr
p1204
aV21
p1205
aV14
p1206
aVnr
p1207
aVnr
p1208
aVnr
p1209
aVnr
p1210
aV13
p1211
aV28
p1212
aVnr
p1213
aVnr
p1214
aV12
p1215
aVnr
p1216
aVnr
p1217
aVnr
p1218
aVnr
p1219
aVnr
p1220
aV13
p1221
aVnr
p1222
aVnr
p1223
aV22
p1224
aVnr
p1225
aVnr
p1226
aV7
aa(lp1227
V02-11-2016
p1228
aV21
p1229
aVnr
p1230
aV9
aV3
aVnr
p1231
aV17
p1232
aVnr
p1233
aV11
p1234
aVnr
p1235
aVnr
p1236
aV23
p1237
aVnr
p1238
aVnr
p1239
aVnr
p1240
aVnr
p1241
aV21
p1242
aV14
p1243
aVnr
p1244
aVnr
p1245
aVnr
p1246
aVnr
p1247
aV13
p1248
aV28
p1249
aVnr
p1250
aVnr
p1251
aV12
p1252
aVnr
p1253
aVnr
p1254
aVnr
p1255
aVnr
p1256
aVnr
p1257
aV13
p1258
aVnr
p1259
aVnr
p1260
aV22
p1261
aVnr
p1262
aVnr
p1263
aV7
aa(lp1264
V02-11-2016
p1265
aV21
p1266
aVnr
p1267
aV9
aV3
aVnr
p1268
aV17
p1269
aVnr
p1270
aV11
p1271
aVnr
p1272
aVnr
p1273
aV23
p1274
aVnr
p1275
aVnr
p1276
aVnr
p1277
aVnr
p1278
aV21
p1279
aV14
p1280
aVnr
p1281
aVnr
p1282
aVnr
p1283
aVnr
p1284
aV13
p1285
aV28
p1286
aVnr
p1287
aVnr
p1288
aV12
p1289
aVnr
p1290
aVnr
p1291
aVnr
p1292
aVnr
p1293
aVnr
p1294
aV13
p1295
aVnr
p1296
aVnr
p1297
aV22
p1298
aVnr
p1299
aVnr
p1300
aV7
aa(lp1301
V02-11-2016
p1302
aV21
p1303
aVnr
p1304
aV9
aV3
aVnr
p1305
aV17
p1306
aVnr
p1307
aV11
p1308
aVnr
p1309
aVnr
p1310
aV23
p1311
aVnr
p1312
aVnr
p1313
aVnr
p1314
aVnr
p1315
aV21
p1316
aV14
p1317
aVnr
p1318
aVnr
p1319
aVnr
p1320
aVnr
p1321
aV13
p1322
aV28
p1323
aVnr
p1324
aVnr
p1325
aV12
p1326
aVnr
p1327
aVnr
p1328
aVnr
p1329
aVnr
p1330
aVnr
p1331
aV13
p1332
aVnr
p1333
aVnr
p1334
aV22
p1335
aVnr
p1336
aVnr
p1337
aV7
aa(lp1338
V02-11-2016
p1339
aV22
p1340
aVnr
p1341
aV5
aV6
aVnr
p1342
aV15
p1343
aVnr
p1344
aV6
aVnr
p1345
aVnr
p1346
aV20
p1347
aVnr
p1348
aVnr
p1349
aVnr
p1350
aVnr
p1351
aV21
p1352
aV7
aVnr
p1353
aVnr
p1354
aVnr
p1355
aVnr
p1356
aVnr
p1357
aV39
p1358
aVnr
p1359
aVnr
p1360
aV15
p1361
aVnr
p1362
aVnr
p1363
aVnr
p1364
aVnr
p1365
aVnr
p1366
aV15
p1367
aVnr
p1368
aVnr
p1369
aV18
p1370
aVnr
p1371
aVnr
p1372
aV20
p1373
aa(lp1374
V02-11-2016
p1375
aV22
p1376
aVnr
p1377
aV5
aV6
aVnr
p1378
aV15
p1379
aVnr
p1380
aV6
aVnr
p1381
aVnr
p1382
aV20
p1383
aVnr
p1384
aVnr
p1385
aVnr
p1386
aVnr
p1387
aV21
p1388
aV7
aVnr
p1389
aVnr
p1390
aVnr
p1391
aVnr
p1392
aVnr
p1393
aV39
p1394
aVnr
p1395
aVnr
p1396
aV15
p1397
aVnr
p1398
aVnr
p1399
aVnr
p1400
aVnr
p1401
aVnr
p1402
aV15
p1403
aVnr
p1404
aVnr
p1405
aV18
p1406
aVnr
p1407
aVnr
p1408
aV20
p1409
aa(lp1410
V02-11-2016
p1411
aV22
p1412
aVnr
p1413
aV5
aV6
aVnr
p1414
aV15
p1415
aVnr
p1416
aV6
aVnr
p1417
aVnr
p1418
aV20
p1419
aVnr
p1420
aVnr
p1421
aVnr
p1422
aVnr
p1423
aV21
p1424
aV7
aVnr
p1425
aVnr
p1426
aVnr
p1427
aVnr
p1428
aVnr
p1429
aV39
p1430
aVnr
p1431
aVnr
p1432
aV15
p1433
aVnr
p1434
aVnr
p1435
aVnr
p1436
aVnr
p1437
aVnr
p1438
aV15
p1439
aVnr
p1440
aVnr
p1441
aV18
p1442
aVnr
p1443
aVnr
p1444
aV20
p1445
aasS'pm10'
p1446
(lp1447
(lp1448
V02-11-2016
p1449
aV21
p1450
aV27
p1451
aV12
p1452
aVnr
p1453
aV24
p1454
aV22
p1455
aVnr
p1456
aVnr
p1457
aVnr
p1458
aVnr
p1459
aV46
p1460
aVnr
p1461
aV17
p1462
aV41
p1463
aVnr
p1464
aVnr
p1465
aV26
p1466
aV16
p1467
aV29
p1468
aVnr
p1469
aVnr
p1470
aVnr
p1471
aVnr
p1472
aV17
p1473
aV33
p1474
aVnr
p1475
aVnr
p1476
aVnr
p1477
aV27
p1478
aVnr
p1479
aVnr
p1480
aVnr
p1481
aVnr
p1482
aVnr
p1483
aVnr
p1484
aV21
p1485
aV33
p1486
aVnr
p1487
aVnr
p1488
aVnr
p1489
aV41
p1490
aV32
p1491
aa(lp1492
V02-11-2016
p1493
aV21
p1494
aV27
p1495
aV12
p1496
aVnr
p1497
aV24
p1498
aV22
p1499
aVnr
p1500
aVnr
p1501
aVnr
p1502
aVnr
p1503
aV46
p1504
aVnr
p1505
aV17
p1506
aV41
p1507
aVnr
p1508
aVnr
p1509
aV26
p1510
aV16
p1511
aV29
p1512
aVnr
p1513
aVnr
p1514
aVnr
p1515
aVnr
p1516
aV17
p1517
aV33
p1518
aVnr
p1519
aVnr
p1520
aVnr
p1521
aV27
p1522
aVnr
p1523
aVnr
p1524
aVnr
p1525
aVnr
p1526
aVnr
p1527
aVnr
p1528
aV21
p1529
aV33
p1530
aVnr
p1531
aVnr
p1532
aVnr
p1533
aV41
p1534
aV32
p1535
aa(lp1536
V02-11-2016
p1537
aV21
p1538
aV27
p1539
aV12
p1540
aVnr
p1541
aV24
p1542
aV22
p1543
aVnr
p1544
aVnr
p1545
aVnr
p1546
aVnr
p1547
aV46
p1548
aVnr
p1549
aV17
p1550
aV41
p1551
aVnr
p1552
aVnr
p1553
aV26
p1554
aV16
p1555
aV29
p1556
aVnr
p1557
aVnr
p1558
aVnr
p1559
aVnr
p1560
aV17
p1561
aV33
p1562
aVnr
p1563
aVnr
p1564
aVnr
p1565
aV27
p1566
aVnr
p1567
aVnr
p1568
aVnr
p1569
aVnr
p1570
aVnr
p1571
aVnr
p1572
aV21
p1573
aV33
p1574
aVnr
p1575
aVnr
p1576
aVnr
p1577
aV41
p1578
aV32
p1579
aa(lp1580
V02-11-2016
p1581
aV21
p1582
aV27
p1583
aV12
p1584
aVnr
p1585
aV24
p1586
aV22
p1587
aVnr
p1588
aVnr
p1589
aVnr
p1590
aVnr
p1591
aV46
p1592
aVnr
p1593
aV17
p1594
aV41
p1595
aVnr
p1596
aVnr
p1597
aV26
p1598
aV16
p1599
aV29
p1600
aVnr
p1601
aVnr
p1602
aVnr
p1603
aVnr
p1604
aV17
p1605
aV33
p1606
aVnr
p1607
aVnr
p1608
aVnr
p1609
aV27
p1610
aVnr
p1611
aVnr
p1612
aVnr
p1613
aVnr
p1614
aVnr
p1615
aVnr
p1616
aV21
p1617
aV33
p1618
aVnr
p1619
aVnr
p1620
aVnr
p1621
aV41
p1622
aV32
p1623
aa(lp1624
V02-11-2016
p1625
aV21
p1626
aV27
p1627
aV12
p1628
aVnr
p1629
aV24
p1630
aV22
p1631
aVnr
p1632
aVnr
p1633
aVnr
p1634
aVnr
p1635
aV46
p1636
aVnr
p1637
aV17
p1638
aV41
p1639
aVnr
p1640
aVnr
p1641
aV26
p1642
aV16
p1643
aV29
p1644
aVnr
p1645
aVnr
p1646
aVnr
p1647
aVnr
p1648
aV17
p1649
aV33
p1650
aVnr
p1651
aVnr
p1652
aVnr
p1653
aV27
p1654
aVnr
p1655
aVnr
p1656
aVnr
p1657
aVnr
p1658
aVnr
p1659
aVnr
p1660
aV21
p1661
aV33
p1662
aVnr
p1663
aVnr
p1664
aVnr
p1665
aV41
p1666
aV32
p1667
aa(lp1668
V02-11-2016
p1669
aV21
p1670
aV27
p1671
aV12
p1672
aVnr
p1673
aV24
p1674
aV22
p1675
aVnr
p1676
aVnr
p1677
aVnr
p1678
aVnr
p1679
aV46
p1680
aVnr
p1681
aV17
p1682
aV41
p1683
aVnr
p1684
aVnr
p1685
aV26
p1686
aV16
p1687
aV29
p1688
aVnr
p1689
aVnr
p1690
aVnr
p1691
aVnr
p1692
aV17
p1693
aV33
p1694
aVnr
p1695
aVnr
p1696
aVnr
p1697
aV27
p1698
aVnr
p1699
aVnr
p1700
aVnr
p1701
aVnr
p1702
aVnr
p1703
aVnr
p1704
aV21
p1705
aV33
p1706
aVnr
p1707
aVnr
p1708
aVnr
p1709
aV41
p1710
aV32
p1711
aa(lp1712
V02-11-2016
p1713
aV21
p1714
aV27
p1715
aV12
p1716
aVnr
p1717
aV24
p1718
aV22
p1719
aVnr
p1720
aVnr
p1721
aVnr
p1722
aVnr
p1723
aV46
p1724
aVnr
p1725
aV17
p1726
aV41
p1727
aVnr
p1728
aVnr
p1729
aV26
p1730
aV16
p1731
aV29
p1732
aVnr
p1733
aVnr
p1734
aVnr
p1735
aVnr
p1736
aV17
p1737
aV33
p1738
aVnr
p1739
aVnr
p1740
aVnr
p1741
aV27
p1742
aVnr
p1743
aVnr
p1744
aVnr
p1745
aVnr
p1746
aVnr
p1747
aVnr
p1748
aV21
p1749
aV33
p1750
aVnr
p1751
aVnr
p1752
aVnr
p1753
aV41
p1754
aV32
p1755
aa(lp1756
V02-11-2016
p1757
aV21
p1758
aV27
p1759
aV12
p1760
aVnr
p1761
aV24
p1762
aV22
p1763
aVnr
p1764
aVnr
p1765
aVnr
p1766
aVnr
p1767
aV46
p1768
aVnr
p1769
aV17
p1770
aV41
p1771
aVnr
p1772
aVnr
p1773
aV26
p1774
aV16
p1775
aV29
p1776
aVnr
p1777
aVnr
p1778
aVnr
p1779
aVnr
p1780
aV17
p1781
aV33
p1782
aVnr
p1783
aVnr
p1784
aVnr
p1785
aV27
p1786
aVnr
p1787
aVnr
p1788
aVnr
p1789
aVnr
p1790
aVnr
p1791
aVnr
p1792
aV21
p1793
aV33
p1794
aVnr
p1795
aVnr
p1796
aVnr
p1797
aV41
p1798
aV32
p1799
aa(lp1800
V02-11-2016
p1801
aV22
p1802
aV23
p1803
aV8
aVnr
p1804
aV31
p1805
aV19
p1806
aVnr
p1807
aVnr
p1808
aVnr
p1809
aVnr
p1810
aV11
p1811
aVnr
p1812
aV11
p1813
aV40
p1814
aVnr
p1815
aVnr
p1816
aV22
p1817
aV9
aV12
p1818
aVnr
p1819
aVnr
p1820
aVnr
p1821
aVnr
p1822
aVnr
p1823
aV43
p1824
aVnr
p1825
aVnr
p1826
aVnr
p1827
aV31
p1828
aVnr
p1829
aVnr
p1830
aVnr
p1831
aV36
p1832
aVnr
p1833
aVnr
p1834
aV21
p1835
aV32
p1836
aVnr
p1837
aVnr
p1838
aVnr
p1839
aV44
p1840
aV51
p1841
aa(lp1842
V02-11-2016
p1843
aV22
p1844
aV23
p1845
aV8
aVnr
p1846
aV31
p1847
aV19
p1848
aVnr
p1849
aVnr
p1850
aVnr
p1851
aVnr
p1852
aV11
p1853
aVnr
p1854
aV11
p1855
aV40
p1856
aVnr
p1857
aVnr
p1858
aV22
p1859
aV9
aV12
p1860
aVnr
p1861
aVnr
p1862
aVnr
p1863
aVnr
p1864
aVnr
p1865
aV43
p1866
aVnr
p1867
aVnr
p1868
aVnr
p1869
aV31
p1870
aVnr
p1871
aVnr
p1872
aVnr
p1873
aV36
p1874
aVnr
p1875
aVnr
p1876
aV21
p1877
aV32
p1878
aVnr
p1879
aVnr
p1880
aVnr
p1881
aV44
p1882
aV51
p1883
aa(lp1884
V02-11-2016
p1885
aV22
p1886
aV23
p1887
aV8
aVnr
p1888
aV31
p1889
aV19
p1890
aVnr
p1891
aVnr
p1892
aVnr
p1893
aVnr
p1894
aV11
p1895
aVnr
p1896
aV11
p1897
aV40
p1898
aVnr
p1899
aVnr
p1900
aV22
p1901
aV9
aV12
p1902
aVnr
p1903
aVnr
p1904
aVnr
p1905
aVnr
p1906
aVnr
p1907
aV43
p1908
aVnr
p1909
aVnr
p1910
aVnr
p1911
aV31
p1912
aVnr
p1913
aVnr
p1914
aVnr
p1915
aV36
p1916
aVnr
p1917
aVnr
p1918
aV21
p1919
aV32
p1920
aVnr
p1921
aVnr
p1922
aVnr
p1923
aV44
p1924
aV51
p1925
aasS'no'
p1926
(lp1927
(lp1928
V02-11-2016
p1929
aV21
p1930
aV4
aV0
aVnr
p1931
aV13
p1932
aVnr
p1933
aVnr
p1934
aVnr
p1935
aV0
aVnr
p1936
aV16
p1937
aVnr
p1938
aV15
p1939
aV2
aV4
aVnr
p1940
aVnr
p1941
aV3
aVnr
p1942
aV3
aVnr
p1943
aVnr
p1944
aVnr
p1945
aVnr
p1946
aV4
aVnr
p1947
aV13
p1948
aV3
aVnr
p1949
aV19
p1950
aVnr
p1951
aV6
aVnr
p1952
aVnr
p1953
aV1
aVnr
p1954
aVnr
p1955
aV7
aV40
p1956
aVnr
p1957
aV5
aV3
aV5
aV55
p1958
aa(lp1959
V02-11-2016
p1960
aV21
p1961
aV4
aV0
aVnr
p1962
aV13
p1963
aVnr
p1964
aVnr
p1965
aVnr
p1966
aV0
aVnr
p1967
aV16
p1968
aVnr
p1969
aV15
p1970
aV2
aV4
aVnr
p1971
aVnr
p1972
aV3
aVnr
p1973
aV3
aVnr
p1974
aVnr
p1975
aVnr
p1976
aVnr
p1977
aV4
aVnr
p1978
aV13
p1979
aV3
aVnr
p1980
aV19
p1981
aVnr
p1982
aV6
aVnr
p1983
aVnr
p1984
aV1
aVnr
p1985
aVnr
p1986
aV7
aV40
p1987
aVnr
p1988
aV5
aV3
aV5
aV55
p1989
aa(lp1990
V02-11-2016
p1991
aV21
p1992
aV4
aV0
aVnr
p1993
aV13
p1994
aVnr
p1995
aVnr
p1996
aVnr
p1997
aV0
aVnr
p1998
aV16
p1999
aVnr
p2000
aV15
p2001
aV2
aV4
aVnr
p2002
aVnr
p2003
aV3
aVnr
p2004
aV3
aVnr
p2005
aVnr
p2006
aVnr
p2007
aVnr
p2008
aV4
aVnr
p2009
aV13
p2010
aV3
aVnr
p2011
aV19
p2012
aVnr
p2013
aV6
aVnr
p2014
aVnr
p2015
aV1
aVnr
p2016
aVnr
p2017
aV7
aV40
p2018
aVnr
p2019
aV5
aV3
aV5
aV55
p2020
aa(lp2021
V02-11-2016
p2022
aV21
p2023
aV4
aV0
aVnr
p2024
aV13
p2025
aVnr
p2026
aVnr
p2027
aVnr
p2028
aV0
aVnr
p2029
aV16
p2030
aVnr
p2031
aV15
p2032
aV2
aV4
aVnr
p2033
aVnr
p2034
aV3
aVnr
p2035
aV3
aVnr
p2036
aVnr
p2037
aVnr
p2038
aVnr
p2039
aV4
aVnr
p2040
aV13
p2041
aV3
aVnr
p2042
aV19
p2043
aVnr
p2044
aV6
aVnr
p2045
aVnr
p2046
aV1
aVnr
p2047
aVnr
p2048
aV7
aV40
p2049
aVnr
p2050
aV5
aV3
aV5
aV55
p2051
aa(lp2052
V02-11-2016
p2053
aV21
p2054
aV4
aV0
aVnr
p2055
aV13
p2056
aVnr
p2057
aVnr
p2058
aVnr
p2059
aV0
aVnr
p2060
aV16
p2061
aVnr
p2062
aV15
p2063
aV2
aV4
aVnr
p2064
aVnr
p2065
aV3
aVnr
p2066
aV3
aVnr
p2067
aVnr
p2068
aVnr
p2069
aVnr
p2070
aV4
aVnr
p2071
aV13
p2072
aV3
aVnr
p2073
aV19
p2074
aVnr
p2075
aV6
aVnr
p2076
aVnr
p2077
aV1
aVnr
p2078
aVnr
p2079
aV7
aV40
p2080
aVnr
p2081
aV5
aV3
aV5
aV55
p2082
aa(lp2083
V02-11-2016
p2084
aV21
p2085
aV4
aV0
aVnr
p2086
aV13
p2087
aVnr
p2088
aVnr
p2089
aVnr
p2090
aV0
aVnr
p2091
aV16
p2092
aVnr
p2093
aV15
p2094
aV2
aV4
aVnr
p2095
aVnr
p2096
aV3
aVnr
p2097
aV3
aVnr
p2098
aVnr
p2099
aVnr
p2100
aVnr
p2101
aV4
aVnr
p2102
aV13
p2103
aV3
aVnr
p2104
aV19
p2105
aVnr
p2106
aV6
aVnr
p2107
aVnr
p2108
aV1
aVnr
p2109
aVnr
p2110
aV7
aV40
p2111
aVnr
p2112
aV5
aV3
aV5
aV55
p2113
aa(lp2114
V02-11-2016
p2115
aV21
p2116
aV4
aV0
aVnr
p2117
aV13
p2118
aVnr
p2119
aVnr
p2120
aVnr
p2121
aV0
aVnr
p2122
aV16
p2123
aVnr
p2124
aV15
p2125
aV2
aV4
aVnr
p2126
aVnr
p2127
aV3
aVnr
p2128
aV3
aVnr
p2129
aVnr
p2130
aVnr
p2131
aVnr
p2132
aV4
aVnr
p2133
aV13
p2134
aV3
aVnr
p2135
aV19
p2136
aVnr
p2137
aV6
aVnr
p2138
aVnr
p2139
aV1
aVnr
p2140
aVnr
p2141
aV7
aV40
p2142
aVnr
p2143
aV5
aV3
aV5
aV55
p2144
aa(lp2145
V02-11-2016
p2146
aV21
p2147
aV4
aV0
aVnr
p2148
aV13
p2149
aVnr
p2150
aVnr
p2151
aVnr
p2152
aV0
aVnr
p2153
aV16
p2154
aVnr
p2155
aV15
p2156
aV2
aV4
aVnr
p2157
aVnr
p2158
aV3
aVnr
p2159
aV3
aVnr
p2160
aVnr
p2161
aVnr
p2162
aVnr
p2163
aV4
aVnr
p2164
aV13
p2165
aV3
aVnr
p2166
aV19
p2167
aVnr
p2168
aV6
aVnr
p2169
aVnr
p2170
aV1
aVnr
p2171
aVnr
p2172
aV7
aV40
p2173
aVnr
p2174
aV5
aV3
aV5
aV55
p2175
aa(lp2176
V02-11-2016
p2177
aV22
p2178
aV7
aV1
aVnr
p2179
aV22
p2180
aVnr
p2181
aVnr
p2182
aVnr
p2183
aV4
aVnr
p2184
aV17
p2185
aVnr
p2186
aV12
p2187
aV4
aV2
aVnr
p2188
aVnr
p2189
aV6
aVnr
p2190
aV6
aVnr
p2191
aVnr
p2192
aVnr
p2193
aVnr
p2194
aVnr
p2195
aVnr
p2196
aV9
aV4
aVnr
p2197
aV17
p2198
aVnr
p2199
aV9
aVnr
p2200
aVnr
p2201
aV1
aVnr
p2202
aVnr
p2203
aV11
p2204
aV28
p2205
aVnr
p2206
aV2
aV4
aV7
aV37
p2207
aa(lp2208
V02-11-2016
p2209
aV22
p2210
aV7
aV1
aVnr
p2211
aV22
p2212
aVnr
p2213
aVnr
p2214
aVnr
p2215
aV4
aVnr
p2216
aV17
p2217
aVnr
p2218
aV12
p2219
aV4
aV2
aVnr
p2220
aVnr
p2221
aV6
aVnr
p2222
aV6
aVnr
p2223
aVnr
p2224
aVnr
p2225
aVnr
p2226
aVnr
p2227
aVnr
p2228
aV9
aV4
aVnr
p2229
aV17
p2230
aVnr
p2231
aV9
aVnr
p2232
aVnr
p2233
aV1
aVnr
p2234
aVnr
p2235
aV11
p2236
aV28
p2237
aVnr
p2238
aV2
aV4
aV7
aV37
p2239
aa(lp2240
V02-11-2016
p2241
aV22
p2242
aV7
aV1
aVnr
p2243
aV22
p2244
aVnr
p2245
aVnr
p2246
aVnr
p2247
aV4
aVnr
p2248
aV17
p2249
aVnr
p2250
aV12
p2251
aV4
aV2
aVnr
p2252
aVnr
p2253
aV6
aVnr
p2254
aV6
aVnr
p2255
aVnr
p2256
aVnr
p2257
aVnr
p2258
aVnr
p2259
aVnr
p2260
aV9
aV4
aVnr
p2261
aV17
p2262
aVnr
p2263
aV9
aVnr
p2264
aVnr
p2265
aV1
aVnr
p2266
aVnr
p2267
aV11
p2268
aV28
p2269
aVnr
p2270
aV2
aV4
aV7
aV37
p2271
aasS'o3'
p2272
(lp2273
(lp2274
V02-11-2016
p2275
aV21
p2276
aV15
p2277
aV24
p2278
aV15
p2279
aV5
aVnr
p2280
aV13
p2281
aVnr
p2282
aV16
p2283
aVnr
p2284
aV4
aV17
p2285
aV12
p2286
aV21
p2287
aV15
p2288
aVnr
p2289
aVnr
p2290
aV17
p2291
aV24
p2292
aV12
p2293
aVnr
p2294
aV3
aVnr
p2295
aVnr
p2296
aV21
p2297
aV27
p2298
aV5
aV15
p2299
aVnr
p2300
aV4
aVnr
p2301
aV8
aVnr
p2302
aVnr
p2303
aV28
p2304
aVnr
p2305
aVnr
p2306
aV15
p2307
aV1
aVnr
p2308
aV7
aV16
p2309
aV10
p2310
aV4
aa(lp2311
V02-11-2016
p2312
aV21
p2313
aV15
p2314
aV24
p2315
aV15
p2316
aV5
aVnr
p2317
aV13
p2318
aVnr
p2319
aV16
p2320
aVnr
p2321
aV4
aV17
p2322
aV12
p2323
aV21
p2324
aV15
p2325
aVnr
p2326
aVnr
p2327
aV17
p2328
aV24
p2329
aV12
p2330
aVnr
p2331
aV3
aVnr
p2332
aVnr
p2333
aV21
p2334
aV27
p2335
aV5
aV15
p2336
aVnr
p2337
aV4
aVnr
p2338
aV8
aVnr
p2339
aVnr
p2340
aV28
p2341
aVnr
p2342
aVnr
p2343
aV15
p2344
aV1
aVnr
p2345
aV7
aV16
p2346
aV10
p2347
aV4
aa(lp2348
V02-11-2016
p2349
aV21
p2350
aV15
p2351
aV24
p2352
aV15
p2353
aV5
aVnr
p2354
aV13
p2355
aVnr
p2356
aV16
p2357
aVnr
p2358
aV4
aV17
p2359
aV12
p2360
aV21
p2361
aV15
p2362
aVnr
p2363
aVnr
p2364
aV17
p2365
aV24
p2366
aV12
p2367
aVnr
p2368
aV3
aVnr
p2369
aVnr
p2370
aV21
p2371
aV27
p2372
aV5
aV15
p2373
aVnr
p2374
aV4
aVnr
p2375
aV8
aVnr
p2376
aVnr
p2377
aV28
p2378
aVnr
p2379
aVnr
p2380
aV15
p2381
aV1
aVnr
p2382
aV7
aV16
p2383
aV10
p2384
aV4
aa(lp2385
V02-11-2016
p2386
aV21
p2387
aV15
p2388
aV24
p2389
aV15
p2390
aV5
aVnr
p2391
aV13
p2392
aVnr
p2393
aV16
p2394
aVnr
p2395
aV4
aV17
p2396
aV12
p2397
aV21
p2398
aV15
p2399
aVnr
p2400
aVnr
p2401
aV17
p2402
aV24
p2403
aV12
p2404
aVnr
p2405
aV3
aVnr
p2406
aVnr
p2407
aV21
p2408
aV27
p2409
aV5
aV15
p2410
aVnr
p2411
aV4
aVnr
p2412
aV8
aVnr
p2413
aVnr
p2414
aV28
p2415
aVnr
p2416
aVnr
p2417
aV15
p2418
aV1
aVnr
p2419
aV7
aV16
p2420
aV10
p2421
aV4
aa(lp2422
V02-11-2016
p2423
aV21
p2424
aV15
p2425
aV24
p2426
aV15
p2427
aV5
aVnr
p2428
aV13
p2429
aVnr
p2430
aV16
p2431
aVnr
p2432
aV4
aV17
p2433
aV12
p2434
aV21
p2435
aV15
p2436
aVnr
p2437
aVnr
p2438
aV17
p2439
aV24
p2440
aV12
p2441
aVnr
p2442
aV3
aVnr
p2443
aVnr
p2444
aV21
p2445
aV27
p2446
aV5
aV15
p2447
aVnr
p2448
aV4
aVnr
p2449
aV8
aVnr
p2450
aVnr
p2451
aV28
p2452
aVnr
p2453
aVnr
p2454
aV15
p2455
aV1
aVnr
p2456
aV7
aV16
p2457
aV10
p2458
aV4
aa(lp2459
V02-11-2016
p2460
aV21
p2461
aV15
p2462
aV24
p2463
aV15
p2464
aV5
aVnr
p2465
aV13
p2466
aVnr
p2467
aV16
p2468
aVnr
p2469
aV4
aV17
p2470
aV12
p2471
aV21
p2472
aV15
p2473
aVnr
p2474
aVnr
p2475
aV17
p2476
aV24
p2477
aV12
p2478
aVnr
p2479
aV3
aVnr
p2480
aVnr
p2481
aV21
p2482
aV27
p2483
aV5
aV15
p2484
aVnr
p2485
aV4
aVnr
p2486
aV8
aVnr
p2487
aVnr
p2488
aV28
p2489
aVnr
p2490
aVnr
p2491
aV15
p2492
aV1
aVnr
p2493
aV7
aV16
p2494
aV10
p2495
aV4
aa(lp2496
V02-11-2016
p2497
aV21
p2498
aV15
p2499
aV24
p2500
aV15
p2501
aV5
aVnr
p2502
aV13
p2503
aVnr
p2504
aV16
p2505
aVnr
p2506
aV4
aV17
p2507
aV12
p2508
aV21
p2509
aV15
p2510
aVnr
p2511
aVnr
p2512
aV17
p2513
aV24
p2514
aV12
p2515
aVnr
p2516
aV3
aVnr
p2517
aVnr
p2518
aV21
p2519
aV27
p2520
aV5
aV15
p2521
aVnr
p2522
aV4
aVnr
p2523
aV8
aVnr
p2524
aVnr
p2525
aV28
p2526
aVnr
p2527
aVnr
p2528
aV15
p2529
aV1
aVnr
p2530
aV7
aV16
p2531
aV10
p2532
aV4
aa(lp2533
V02-11-2016
p2534
aV21
p2535
aV15
p2536
aV24
p2537
aV15
p2538
aV5
aVnr
p2539
aV13
p2540
aVnr
p2541
aV16
p2542
aVnr
p2543
aV4
aV17
p2544
aV12
p2545
aV21
p2546
aV15
p2547
aVnr
p2548
aVnr
p2549
aV17
p2550
aV24
p2551
aV12
p2552
aVnr
p2553
aV3
aVnr
p2554
aVnr
p2555
aV21
p2556
aV27
p2557
aV5
aV15
p2558
aVnr
p2559
aV4
aVnr
p2560
aV8
aVnr
p2561
aVnr
p2562
aV28
p2563
aVnr
p2564
aVnr
p2565
aV15
p2566
aV1
aVnr
p2567
aV7
aV16
p2568
aV10
p2569
aV4
aa(lp2570
V02-11-2016
p2571
aV22
p2572
aV5
aV20
p2573
aV10
p2574
aV4
aVnr
p2575
aV6
aVnr
p2576
aV6
aVnr
p2577
aV3
aV12
p2578
aV7
aV13
p2579
aV17
p2580
aVnr
p2581
aVnr
p2582
aV9
aV19
p2583
aV8
aVnr
p2584
aV2
aV1
aVnr
p2585
aVnr
p2586
aV26
p2587
aV7
aV7
aVnr
p2588
aV1
aVnr
p2589
aVnr
p2590
aVnr
p2591
aVnr
p2592
aV26
p2593
aVnr
p2594
aVnr
p2595
aV10
p2596
aV1
aVnr
p2597
aV10
p2598
aV13
p2599
aV5
aV4
aa(lp2600
V02-11-2016
p2601
aV22
p2602
aV5
aV20
p2603
aV10
p2604
aV4
aVnr
p2605
aV6
aVnr
p2606
aV6
aVnr
p2607
aV3
aV12
p2608
aV7
aV13
p2609
aV17
p2610
aVnr
p2611
aVnr
p2612
aV9
aV19
p2613
aV8
aVnr
p2614
aV2
aV1
aVnr
p2615
aVnr
p2616
aV26
p2617
aV7
aV7
aVnr
p2618
aV1
aVnr
p2619
aVnr
p2620
aVnr
p2621
aVnr
p2622
aV26
p2623
aVnr
p2624
aVnr
p2625
aV10
p2626
aV1
aVnr
p2627
aV10
p2628
aV13
p2629
aV5
aV4
aa(lp2630
V02-11-2016
p2631
aV22
p2632
aV5
aV20
p2633
aV10
p2634
aV4
aVnr
p2635
aV6
aVnr
p2636
aV6
aVnr
p2637
aV3
aV12
p2638
aV7
aV13
p2639
aV17
p2640
aVnr
p2641
aVnr
p2642
aV9
aV19
p2643
aV8
aVnr
p2644
aV2
aV1
aVnr
p2645
aVnr
p2646
aV26
p2647
aV7
aV7
aVnr
p2648
aV1
aVnr
p2649
aVnr
p2650
aVnr
p2651
aVnr
p2652
aV26
p2653
aVnr
p2654
aVnr
p2655
aV10
p2656
aV1
aVnr
p2657
aV10
p2658
aV13
p2659
aV5
aV4
aasS'wsp'
p2660
(lp2661
(lp2662
V02-11-2016
p2663
aV21
p2664
aVnr
p2665
aV7
aV3
aVnr
p2666
aV4
aVnr
p2667
aVnr
p2668
aV5
aV2
aVnr
p2669
aV5
aV4
aVnr
p2670
aVnr
p2671
aV4
aVnr
p2672
aVnr
p2673
aVnr
p2674
aVnr
p2675
aVnr
p2676
aV5
aV7
aVnr
p2677
aV6
aV5
aVnr
p2678
aV1
aV7
aVnr
p2679
aVnr
p2680
aVnr
p2681
aVnr
p2682
aV8
aVnr
p2683
aV4
aVnr
p2684
aVnr
p2685
aV4
aV6
aV4
aV6
aa(lp2686
V02-11-2016
p2687
aV21
p2688
aVnr
p2689
aV7
aV3
aVnr
p2690
aV4
aVnr
p2691
aVnr
p2692
aV5
aV2
aVnr
p2693
aV5
aV4
aVnr
p2694
aVnr
p2695
aV4
aVnr
p2696
aVnr
p2697
aVnr
p2698
aVnr
p2699
aVnr
p2700
aV5
aV7
aVnr
p2701
aV6
aV5
aVnr
p2702
aV1
aV7
aVnr
p2703
aVnr
p2704
aVnr
p2705
aVnr
p2706
aV8
aVnr
p2707
aV4
aVnr
p2708
aVnr
p2709
aV4
aV6
aV4
aV6
aa(lp2710
V02-11-2016
p2711
aV21
p2712
aVnr
p2713
aV7
aV3
aVnr
p2714
aV4
aVnr
p2715
aVnr
p2716
aV5
aV2
aVnr
p2717
aV5
aV4
aVnr
p2718
aVnr
p2719
aV4
aVnr
p2720
aVnr
p2721
aVnr
p2722
aVnr
p2723
aVnr
p2724
aV5
aV7
aVnr
p2725
aV6
aV5
aVnr
p2726
aV1
aV7
aVnr
p2727
aVnr
p2728
aVnr
p2729
aVnr
p2730
aV8
aVnr
p2731
aV4
aVnr
p2732
aVnr
p2733
aV4
aV6
aV4
aV6
aa(lp2734
V02-11-2016
p2735
aV21
p2736
aVnr
p2737
aV7
aV3
aVnr
p2738
aV4
aVnr
p2739
aVnr
p2740
aV5
aV2
aVnr
p2741
aV5
aV4
aVnr
p2742
aVnr
p2743
aV4
aVnr
p2744
aVnr
p2745
aVnr
p2746
aVnr
p2747
aVnr
p2748
aV5
aV7
aVnr
p2749
aV6
aV5
aVnr
p2750
aV1
aV7
aVnr
p2751
aVnr
p2752
aVnr
p2753
aVnr
p2754
aV8
aVnr
p2755
aV4
aVnr
p2756
aVnr
p2757
aV4
aV6
aV4
aV6
aa(lp2758
V02-11-2016
p2759
aV21
p2760
aVnr
p2761
aV7
aV3
aVnr
p2762
aV4
aVnr
p2763
aVnr
p2764
aV5
aV2
aVnr
p2765
aV5
aV4
aVnr
p2766
aVnr
p2767
aV4
aVnr
p2768
aVnr
p2769
aVnr
p2770
aVnr
p2771
aVnr
p2772
aV5
aV7
aVnr
p2773
aV6
aV5
aVnr
p2774
aV1
aV7
aVnr
p2775
aVnr
p2776
aVnr
p2777
aVnr
p2778
aV8
aVnr
p2779
aV4
aVnr
p2780
aVnr
p2781
aV4
aV6
aV4
aV6
aa(lp2782
V02-11-2016
p2783
aV21
p2784
aVnr
p2785
aV7
aV3
aVnr
p2786
aV4
aVnr
p2787
aVnr
p2788
aV5
aV2
aVnr
p2789
aV5
aV4
aVnr
p2790
aVnr
p2791
aV4
aVnr
p2792
aVnr
p2793
aVnr
p2794
aVnr
p2795
aVnr
p2796
aV5
aV7
aVnr
p2797
aV6
aV5
aVnr
p2798
aV1
aV7
aVnr
p2799
aVnr
p2800
aVnr
p2801
aVnr
p2802
aV8
aVnr
p2803
aV4
aVnr
p2804
aVnr
p2805
aV4
aV6
aV4
aV6
aa(lp2806
V02-11-2016
p2807
aV21
p2808
aVnr
p2809
aV7
aV3
aVnr
p2810
aV4
aVnr
p2811
aVnr
p2812
aV5
aV2
aVnr
p2813
aV5
aV4
aVnr
p2814
aVnr
p2815
aV4
aVnr
p2816
aVnr
p2817
aVnr
p2818
aVnr
p2819
aVnr
p2820
aV5
aV7
aVnr
p2821
aV6
aV5
aVnr
p2822
aV1
aV7
aVnr
p2823
aVnr
p2824
aVnr
p2825
aVnr
p2826
aV8
aVnr
p2827
aV4
aVnr
p2828
aVnr
p2829
aV4
aV6
aV4
aV6
aa(lp2830
V02-11-2016
p2831
aV21
p2832
aVnr
p2833
aV7
aV3
aVnr
p2834
aV4
aVnr
p2835
aVnr
p2836
aV5
aV2
aVnr
p2837
aV5
aV4
aVnr
p2838
aVnr
p2839
aV4
aVnr
p2840
aVnr
p2841
aVnr
p2842
aVnr
p2843
aVnr
p2844
aV5
aV7
aVnr
p2845
aV6
aV5
aVnr
p2846
aV1
aV7
aVnr
p2847
aVnr
p2848
aVnr
p2849
aVnr
p2850
aV8
aVnr
p2851
aV4
aVnr
p2852
aVnr
p2853
aV4
aV6
aV4
aV6
aa(lp2854
V02-11-2016
p2855
aV22
p2856
aVnr
p2857
aV5
aV3
aVnr
p2858
aV4
aVnr
p2859
aVnr
p2860
aV4
aV1
aVnr
p2861
aV4
aV2
aVnr
p2862
aVnr
p2863
aV2
aVnr
p2864
aVnr
p2865
aVnr
p2866
aVnr
p2867
aVnr
p2868
aV5
aVnr
p2869
aVnr
p2870
aV7
aV4
aVnr
p2871
aV3
aV7
aVnr
p2872
aVnr
p2873
aVnr
p2874
aVnr
p2875
aV6
aVnr
p2876
aV4
aVnr
p2877
aVnr
p2878
aV3
aV5
aV3
aV8
aa(lp2879
V02-11-2016
p2880
aV22
p2881
aVnr
p2882
aV5
aV3
aVnr
p2883
aV4
aVnr
p2884
aVnr
p2885
aV4
aV1
aVnr
p2886
aV4
aV2
aVnr
p2887
aVnr
p2888
aV2
aVnr
p2889
aVnr
p2890
aVnr
p2891
aVnr
p2892
aVnr
p2893
aV5
aVnr
p2894
aVnr
p2895
aV7
aV4
aVnr
p2896
aV3
aV7
aVnr
p2897
aVnr
p2898
aVnr
p2899
aVnr
p2900
aV6
aVnr
p2901
aV4
aVnr
p2902
aVnr
p2903
aV3
aV5
aV3
aV8
aa(lp2904
V02-11-2016
p2905
aV22
p2906
aVnr
p2907
aV5
aV3
aVnr
p2908
aV4
aVnr
p2909
aVnr
p2910
aV4
aV1
aVnr
p2911
aV4
aV2
aVnr
p2912
aVnr
p2913
aV2
aVnr
p2914
aVnr
p2915
aVnr
p2916
aVnr
p2917
aVnr
p2918
aV5
aVnr
p2919
aVnr
p2920
aV7
aV4
aVnr
p2921
aV3
aV7
aVnr
p2922
aVnr
p2923
aVnr
p2924
aVnr
p2925
aV6
aVnr
p2926
aV4
aVnr
p2927
aVnr
p2928
aV3
aV5
aV3
aV8
aasS'wdr'
p2929
(lp2930
(lp2931
V02-11-2016
p2932
aV21
p2933
aVnr
p2934
aV223
p2935
aV89
p2936
aVnr
p2937
aV265
p2938
aVnr
p2939
aVnr
p2940
aVnr
p2941
aV165
p2942
aV210
p2943
aVnr
p2944
aV263
p2945
aV355
p2946
aVnr
p2947
aVnr
p2948
aV219
p2949
aVnr
p2950
aVnr
p2951
aVnr
p2952
aVnr
p2953
aVnr
p2954
aV214
p2955
aV259
p2956
aVnr
p2957
aV216
p2958
aV239
p2959
aVnr
p2960
aV121
p2961
aV233
p2962
aVnr
p2963
aVnr
p2964
aVnr
p2965
aVnr
p2966
aV252
p2967
aVnr
p2968
aV258
p2969
aVnr
p2970
aVnr
p2971
aV154
p2972
aV237
p2973
aV336
p2974
aV243
p2975
aa(lp2976
V02-11-2016
p2977
aV21
p2978
aVnr
p2979
aV223
p2980
aV89
p2981
aVnr
p2982
aV265
p2983
aVnr
p2984
aVnr
p2985
aVnr
p2986
aV165
p2987
aV210
p2988
aVnr
p2989
aV263
p2990
aV355
p2991
aVnr
p2992
aVnr
p2993
aV219
p2994
aVnr
p2995
aVnr
p2996
aVnr
p2997
aVnr
p2998
aVnr
p2999
aV214
p3000
aV259
p3001
aVnr
p3002
aV216
p3003
aV239
p3004
aVnr
p3005
aV121
p3006
aV233
p3007
aVnr
p3008
aVnr
p3009
aVnr
p3010
aVnr
p3011
aV252
p3012
aVnr
p3013
aV258
p3014
aVnr
p3015
aVnr
p3016
aV154
p3017
aV237
p3018
aV336
p3019
aV243
p3020
aa(lp3021
V02-11-2016
p3022
aV21
p3023
aVnr
p3024
aV223
p3025
aV89
p3026
aVnr
p3027
aV265
p3028
aVnr
p3029
aVnr
p3030
aVnr
p3031
aV165
p3032
aV210
p3033
aVnr
p3034
aV263
p3035
aV355
p3036
aVnr
p3037
aVnr
p3038
aV219
p3039
aVnr
p3040
aVnr
p3041
aVnr
p3042
aVnr
p3043
aVnr
p3044
aV214
p3045
aV259
p3046
aVnr
p3047
aV216
p3048
aV239
p3049
aVnr
p3050
aV121
p3051
aV233
p3052
aVnr
p3053
aVnr
p3054
aVnr
p3055
aVnr
p3056
aV252
p3057
aVnr
p3058
aV258
p3059
aVnr
p3060
aVnr
p3061
aV154
p3062
aV237
p3063
aV336
p3064
aV243
p3065
aa(lp3066
V02-11-2016
p3067
aV21
p3068
aVnr
p3069
aV223
p3070
aV89
p3071
aVnr
p3072
aV265
p3073
aVnr
p3074
aVnr
p3075
aVnr
p3076
aV165
p3077
aV210
p3078
aVnr
p3079
aV263
p3080
aV355
p3081
aVnr
p3082
aVnr
p3083
aV219
p3084
aVnr
p3085
aVnr
p3086
aVnr
p3087
aVnr
p3088
aVnr
p3089
aV214
p3090
aV259
p3091
aVnr
p3092
aV216
p3093
aV239
p3094
aVnr
p3095
aV121
p3096
aV233
p3097
aVnr
p3098
aVnr
p3099
aVnr
p3100
aVnr
p3101
aV252
p3102
aVnr
p3103
aV258
p3104
aVnr
p3105
aVnr
p3106
aV154
p3107
aV237
p3108
aV336
p3109
aV243
p3110
aa(lp3111
V02-11-2016
p3112
aV21
p3113
aVnr
p3114
aV223
p3115
aV89
p3116
aVnr
p3117
aV265
p3118
aVnr
p3119
aVnr
p3120
aVnr
p3121
aV165
p3122
aV210
p3123
aVnr
p3124
aV263
p3125
aV355
p3126
aVnr
p3127
aVnr
p3128
aV219
p3129
aVnr
p3130
aVnr
p3131
aVnr
p3132
aVnr
p3133
aVnr
p3134
aV214
p3135
aV259
p3136
aVnr
p3137
aV216
p3138
aV239
p3139
aVnr
p3140
aV121
p3141
aV233
p3142
aVnr
p3143
aVnr
p3144
aVnr
p3145
aVnr
p3146
aV252
p3147
aVnr
p3148
aV258
p3149
aVnr
p3150
aVnr
p3151
aV154
p3152
aV237
p3153
aV336
p3154
aV243
p3155
aa(lp3156
V02-11-2016
p3157
aV21
p3158
aVnr
p3159
aV223
p3160
aV89
p3161
aVnr
p3162
aV265
p3163
aVnr
p3164
aVnr
p3165
aVnr
p3166
aV165
p3167
aV210
p3168
aVnr
p3169
aV263
p3170
aV355
p3171
aVnr
p3172
aVnr
p3173
aV219
p3174
aVnr
p3175
aVnr
p3176
aVnr
p3177
aVnr
p3178
aVnr
p3179
aV214
p3180
aV259
p3181
aVnr
p3182
aV216
p3183
aV239
p3184
aVnr
p3185
aV121
p3186
aV233
p3187
aVnr
p3188
aVnr
p3189
aVnr
p3190
aVnr
p3191
aV252
p3192
aVnr
p3193
aV258
p3194
aVnr
p3195
aVnr
p3196
aV154
p3197
aV237
p3198
aV336
p3199
aV243
p3200
aa(lp3201
V02-11-2016
p3202
aV21
p3203
aVnr
p3204
aV223
p3205
aV89
p3206
aVnr
p3207
aV265
p3208
aVnr
p3209
aVnr
p3210
aVnr
p3211
aV165
p3212
aV210
p3213
aVnr
p3214
aV263
p3215
aV355
p3216
aVnr
p3217
aVnr
p3218
aV219
p3219
aVnr
p3220
aVnr
p3221
aVnr
p3222
aVnr
p3223
aVnr
p3224
aV214
p3225
aV259
p3226
aVnr
p3227
aV216
p3228
aV239
p3229
aVnr
p3230
aV121
p3231
aV233
p3232
aVnr
p3233
aVnr
p3234
aVnr
p3235
aVnr
p3236
aV252
p3237
aVnr
p3238
aV258
p3239
aVnr
p3240
aVnr
p3241
aV154
p3242
aV237
p3243
aV336
p3244
aV243
p3245
aa(lp3246
V02-11-2016
p3247
aV21
p3248
aVnr
p3249
aV223
p3250
aV89
p3251
aVnr
p3252
aV265
p3253
aVnr
p3254
aVnr
p3255
aVnr
p3256
aV165
p3257
aV210
p3258
aVnr
p3259
aV263
p3260
aV355
p3261
aVnr
p3262
aVnr
p3263
aV219
p3264
aVnr
p3265
aVnr
p3266
aVnr
p3267
aVnr
p3268
aVnr
p3269
aV214
p3270
aV259
p3271
aVnr
p3272
aV216
p3273
aV239
p3274
aVnr
p3275
aV121
p3276
aV233
p3277
aVnr
p3278
aVnr
p3279
aVnr
p3280
aVnr
p3281
aV252
p3282
aVnr
p3283
aV258
p3284
aVnr
p3285
aVnr
p3286
aV154
p3287
aV237
p3288
aV336
p3289
aV243
p3290
aa(lp3291
V02-11-2016
p3292
aV22
p3293
aVnr
p3294
aV207
p3295
aV292
p3296
aVnr
p3297
aV198
p3298
aVnr
p3299
aVnr
p3300
aVnr
p3301
aV156
p3302
aV338
p3303
aVnr
p3304
aV237
p3305
aV320
p3306
aVnr
p3307
aVnr
p3308
aV221
p3309
aVnr
p3310
aVnr
p3311
aVnr
p3312
aVnr
p3313
aVnr
p3314
aV227
p3315
aVnr
p3316
aVnr
p3317
aV219
p3318
aV184
p3319
aVnr
p3320
aV219
p3321
aV225
p3322
aVnr
p3323
aVnr
p3324
aVnr
p3325
aVnr
p3326
aV233
p3327
aVnr
p3328
aV235
p3329
aVnr
p3330
aVnr
p3331
aV234
p3332
aV229
p3333
aV261
p3334
aV236
p3335
aa(lp3336
V02-11-2016
p3337
aV22
p3338
aVnr
p3339
aV207
p3340
aV292
p3341
aVnr
p3342
aV198
p3343
aVnr
p3344
aVnr
p3345
aVnr
p3346
aV156
p3347
aV338
p3348
aVnr
p3349
aV237
p3350
aV320
p3351
aVnr
p3352
aVnr
p3353
aV221
p3354
aVnr
p3355
aVnr
p3356
aVnr
p3357
aVnr
p3358
aVnr
p3359
aV227
p3360
aVnr
p3361
aVnr
p3362
aV219
p3363
aV184
p3364
aVnr
p3365
aV219
p3366
aV225
p3367
aVnr
p3368
aVnr
p3369
aVnr
p3370
aVnr
p3371
aV233
p3372
aVnr
p3373
aV235
p3374
aVnr
p3375
aVnr
p3376
aV234
p3377
aV229
p3378
aV261
p3379
aV236
p3380
aa(lp3381
V02-11-2016
p3382
aV22
p3383
aVnr
p3384
aV207
p3385
aV292
p3386
aVnr
p3387
aV198
p3388
aVnr
p3389
aVnr
p3390
aVnr
p3391
aV156
p3392
aV338
p3393
aVnr
p3394
aV237
p3395
aV320
p3396
aVnr
p3397
aVnr
p3398
aV221
p3399
aVnr
p3400
aVnr
p3401
aVnr
p3402
aVnr
p3403
aVnr
p3404
aV227
p3405
aVnr
p3406
aVnr
p3407
aV219
p3408
aV184
p3409
aVnr
p3410
aV219
p3411
aV225
p3412
aVnr
p3413
aVnr
p3414
aVnr
p3415
aVnr
p3416
aV233
p3417
aVnr
p3418
aV235
p3419
aVnr
p3420
aVnr
p3421
aV234
p3422
aV229
p3423
aV261
p3424
aV236
p3425
aasS'so2'
p3426
(lp3427
(lp3428
V02-11-2016
p3429
aV21
p3430
aV1
aV1
aVnr
p3431
aVnr
p3432
aV1
aVnr
p3433
aV4
aVnr
p3434
aV2
aVnr
p3435
aV2
aV1
aVnr
p3436
aV3
aV2
aVnr
p3437
aVnr
p3438
aV3
aV1
aV4
aVnr
p3439
aV3
aVnr
p3440
aVnr
p3441
aVnr
p3442
aV2
aV2
aV3
aV2
aVnr
p3443
aV3
aVnr
p3444
aV5
aVnr
p3445
aVnr
p3446
aV2
aVnr
p3447
aVnr
p3448
aV4
aV3
aVnr
p3449
aVnr
p3450
aV4
aVnr
p3451
aV1
aV4
aa(lp3452
V02-11-2016
p3453
aV21
p3454
aV1
aV1
aVnr
p3455
aVnr
p3456
aV1
aVnr
p3457
aV4
aVnr
p3458
aV2
aVnr
p3459
aV2
aV1
aVnr
p3460
aV3
aV2
aVnr
p3461
aVnr
p3462
aV3
aV1
aV4
aVnr
p3463
aV3
aVnr
p3464
aVnr
p3465
aVnr
p3466
aV2
aV2
aV3
aV2
aVnr
p3467
aV3
aVnr
p3468
aV5
aVnr
p3469
aVnr
p3470
aV2
aVnr
p3471
aVnr
p3472
aV4
aV3
aVnr
p3473
aVnr
p3474
aV4
aVnr
p3475
aV1
aV4
aa(lp3476
V02-11-2016
p3477
aV21
p3478
aV1
aV1
aVnr
p3479
aVnr
p3480
aV1
aVnr
p3481
aV4
aVnr
p3482
aV2
aVnr
p3483
aV2
aV1
aVnr
p3484
aV3
aV2
aVnr
p3485
aVnr
p3486
aV3
aV1
aV4
aVnr
p3487
aV3
aVnr
p3488
aVnr
p3489
aVnr
p3490
aV2
aV2
aV3
aV2
aVnr
p3491
aV3
aVnr
p3492
aV5
aVnr
p3493
aVnr
p3494
aV2
aVnr
p3495
aVnr
p3496
aV4
aV3
aVnr
p3497
aVnr
p3498
aV4
aVnr
p3499
aV1
aV4
aa(lp3500
V02-11-2016
p3501
aV21
p3502
aV1
aV1
aVnr
p3503
aVnr
p3504
aV1
aVnr
p3505
aV4
aVnr
p3506
aV2
aVnr
p3507
aV2
aV1
aVnr
p3508
aV3
aV2
aVnr
p3509
aVnr
p3510
aV3
aV1
aV4
aVnr
p3511
aV3
aVnr
p3512
aVnr
p3513
aVnr
p3514
aV2
aV2
aV3
aV2
aVnr
p3515
aV3
aVnr
p3516
aV5
aVnr
p3517
aVnr
p3518
aV2
aVnr
p3519
aVnr
p3520
aV4
aV3
aVnr
p3521
aVnr
p3522
aV4
aVnr
p3523
aV1
aV4
aa(lp3524
V02-11-2016
p3525
aV21
p3526
aV1
aV1
aVnr
p3527
aVnr
p3528
aV1
aVnr
p3529
aV4
aVnr
p3530
aV2
aVnr
p3531
aV2
aV1
aVnr
p3532
aV3
aV2
aVnr
p3533
aVnr
p3534
aV3
aV1
aV4
aVnr
p3535
aV3
aVnr
p3536
aVnr
p3537
aVnr
p3538
aV2
aV2
aV3
aV2
aVnr
p3539
aV3
aVnr
p3540
aV5
aVnr
p3541
aVnr
p3542
aV2
aVnr
p3543
aVnr
p3544
aV4
aV3
aVnr
p3545
aVnr
p3546
aV4
aVnr
p3547
aV1
aV4
aa(lp3548
V02-11-2016
p3549
aV21
p3550
aV1
aV1
aVnr
p3551
aVnr
p3552
aV1
aVnr
p3553
aV4
aVnr
p3554
aV2
aVnr
p3555
aV2
aV1
aVnr
p3556
aV3
aV2
aVnr
p3557
aVnr
p3558
aV3
aV1
aV4
aVnr
p3559
aV3
aVnr
p3560
aVnr
p3561
aVnr
p3562
aV2
aV2
aV3
aV2
aVnr
p3563
aV3
aVnr
p3564
aV5
aVnr
p3565
aVnr
p3566
aV2
aVnr
p3567
aVnr
p3568
aV4
aV3
aVnr
p3569
aVnr
p3570
aV4
aVnr
p3571
aV1
aV4
aa(lp3572
V02-11-2016
p3573
aV21
p3574
aV1
aV1
aVnr
p3575
aVnr
p3576
aV1
aVnr
p3577
aV4
aVnr
p3578
aV2
aVnr
p3579
aV2
aV1
aVnr
p3580
aV3
aV2
aVnr
p3581
aVnr
p3582
aV3
aV1
aV4
aVnr
p3583
aV3
aVnr
p3584
aVnr
p3585
aVnr
p3586
aV2
aV2
aV3
aV2
aVnr
p3587
aV3
aVnr
p3588
aV5
aVnr
p3589
aVnr
p3590
aV2
aVnr
p3591
aVnr
p3592
aV4
aV3
aVnr
p3593
aVnr
p3594
aV4
aVnr
p3595
aV1
aV4
aa(lp3596
V02-11-2016
p3597
aV21
p3598
aV1
aV1
aVnr
p3599
aVnr
p3600
aV1
aVnr
p3601
aV4
aVnr
p3602
aV2
aVnr
p3603
aV2
aV1
aVnr
p3604
aV3
aV2
aVnr
p3605
aVnr
p3606
aV3
aV1
aV4
aVnr
p3607
aV3
aVnr
p3608
aVnr
p3609
aVnr
p3610
aV2
aV2
aV3
aV2
aVnr
p3611
aV3
aVnr
p3612
aV5
aVnr
p3613
aVnr
p3614
aV2
aVnr
p3615
aVnr
p3616
aV4
aV3
aVnr
p3617
aVnr
p3618
aV4
aVnr
p3619
aV1
aV4
aa(lp3620
V02-11-2016
p3621
aV22
p3622
aV1
aV2
aVnr
p3623
aVnr
p3624
aV1
aVnr
p3625
aV2
aVnr
p3626
aV1
aVnr
p3627
aV2
aV1
aVnr
p3628
aV3
aV1
aVnr
p3629
aVnr
p3630
aV2
aV1
aV2
aVnr
p3631
aV2
aV3
aVnr
p3632
aVnr
p3633
aVnr
p3634
aV2
aV2
aV2
aVnr
p3635
aV5
aVnr
p3636
aV4
aVnr
p3637
aVnr
p3638
aV3
aVnr
p3639
aVnr
p3640
aV4
aV3
aVnr
p3641
aVnr
p3642
aV2
aVnr
p3643
aV1
aV5
aa(lp3644
V02-11-2016
p3645
aV22
p3646
aV1
aV2
aVnr
p3647
aVnr
p3648
aV1
aVnr
p3649
aV2
aVnr
p3650
aV1
aVnr
p3651
aV2
aV1
aVnr
p3652
aV3
aV1
aVnr
p3653
aVnr
p3654
aV2
aV1
aV2
aVnr
p3655
aV2
aV3
aVnr
p3656
aVnr
p3657
aVnr
p3658
aV2
aV2
aV2
aVnr
p3659
aV5
aVnr
p3660
aV4
aVnr
p3661
aVnr
p3662
aV3
aVnr
p3663
aVnr
p3664
aV4
aV3
aVnr
p3665
aVnr
p3666
aV2
aVnr
p3667
aV1
aV5
aa(lp3668
V02-11-2016
p3669
aV22
p3670
aV1
aV2
aVnr
p3671
aVnr
p3672
aV1
aVnr
p3673
aV2
aVnr
p3674
aV1
aVnr
p3675
aV2
aV1
aVnr
p3676
aV3
aV1
aVnr
p3677
aVnr
p3678
aV2
aV1
aV2
aVnr
p3679
aV2
aV3
aVnr
p3680
aVnr
p3681
aVnr
p3682
aV2
aV2
aV2
aVnr
p3683
aV5
aVnr
p3684
aV4
aVnr
p3685
aVnr
p3686
aV3
aVnr
p3687
aVnr
p3688
aV4
aV3
aVnr
p3689
aVnr
p3690
aV2
aVnr
p3691
aV1
aV5
aasS'nox'
p3692
(lp3693
(lp3694
V02-11-2016
p3695
aV21
p3696
aV19
p3697
aV6
aVnr
p3698
aV39
p3699
aVnr
p3700
aVnr
p3701
aVnr
p3702
aV14
p3703
aVnr
p3704
aV38
p3705
aVnr
p3706
aV41
p3707
aV16
p3708
aV17
p3709
aVnr
p3710
aVnr
p3711
aV24
p3712
aVnr
p3713
aV29
p3714
aVnr
p3715
aVnr
p3716
aVnr
p3717
aVnr
p3718
aV18
p3719
aVnr
p3720
aV48
p3721
aV20
p3722
aVnr
p3723
aV46
p3724
aVnr
p3725
aV39
p3726
aVnr
p3727
aVnr
p3728
aV9
aVnr
p3729
aVnr
p3730
aV29
p3731
aV74
p3732
aVnr
p3733
aV31
p3734
aV32
p3735
aV22
p3736
aV91
p3737
aa(lp3738
V02-11-2016
p3739
aV21
p3740
aV19
p3741
aV6
aVnr
p3742
aV39
p3743
aVnr
p3744
aVnr
p3745
aVnr
p3746
aV14
p3747
aVnr
p3748
aV38
p3749
aVnr
p3750
aV41
p3751
aV16
p3752
aV17
p3753
aVnr
p3754
aVnr
p3755
aV24
p3756
aVnr
p3757
aV29
p3758
aVnr
p3759
aVnr
p3760
aVnr
p3761
aVnr
p3762
aV18
p3763
aVnr
p3764
aV48
p3765
aV20
p3766
aVnr
p3767
aV46
p3768
aVnr
p3769
aV39
p3770
aVnr
p3771
aVnr
p3772
aV9
aVnr
p3773
aVnr
p3774
aV29
p3775
aV74
p3776
aVnr
p3777
aV31
p3778
aV32
p3779
aV22
p3780
aV91
p3781
aa(lp3782
V02-11-2016
p3783
aV21
p3784
aV19
p3785
aV6
aVnr
p3786
aV39
p3787
aVnr
p3788
aVnr
p3789
aVnr
p3790
aV14
p3791
aVnr
p3792
aV38
p3793
aVnr
p3794
aV41
p3795
aV16
p3796
aV17
p3797
aVnr
p3798
aVnr
p3799
aV24
p3800
aVnr
p3801
aV29
p3802
aVnr
p3803
aVnr
p3804
aVnr
p3805
aVnr
p3806
aV18
p3807
aVnr
p3808
aV48
p3809
aV20
p3810
aVnr
p3811
aV46
p3812
aVnr
p3813
aV39
p3814
aVnr
p3815
aVnr
p3816
aV9
aVnr
p3817
aVnr
p3818
aV29
p3819
aV74
p3820
aVnr
p3821
aV31
p3822
aV32
p3823
aV22
p3824
aV91
p3825
aa(lp3826
V02-11-2016
p3827
aV21
p3828
aV19
p3829
aV6
aVnr
p3830
aV39
p3831
aVnr
p3832
aVnr
p3833
aVnr
p3834
aV14
p3835
aVnr
p3836
aV38
p3837
aVnr
p3838
aV41
p3839
aV16
p3840
aV17
p3841
aVnr
p3842
aVnr
p3843
aV24
p3844
aVnr
p3845
aV29
p3846
aVnr
p3847
aVnr
p3848
aVnr
p3849
aVnr
p3850
aV18
p3851
aVnr
p3852
aV48
p3853
aV20
p3854
aVnr
p3855
aV46
p3856
aVnr
p3857
aV39
p3858
aVnr
p3859
aVnr
p3860
aV9
aVnr
p3861
aVnr
p3862
aV29
p3863
aV74
p3864
aVnr
p3865
aV31
p3866
aV32
p3867
aV22
p3868
aV91
p3869
aa(lp3870
V02-11-2016
p3871
aV21
p3872
aV19
p3873
aV6
aVnr
p3874
aV39
p3875
aVnr
p3876
aVnr
p3877
aVnr
p3878
aV14
p3879
aVnr
p3880
aV38
p3881
aVnr
p3882
aV41
p3883
aV16
p3884
aV17
p3885
aVnr
p3886
aVnr
p3887
aV24
p3888
aVnr
p3889
aV29
p3890
aVnr
p3891
aVnr
p3892
aVnr
p3893
aVnr
p3894
aV18
p3895
aVnr
p3896
aV48
p3897
aV20
p3898
aVnr
p3899
aV46
p3900
aVnr
p3901
aV39
p3902
aVnr
p3903
aVnr
p3904
aV9
aVnr
p3905
aVnr
p3906
aV29
p3907
aV74
p3908
aVnr
p3909
aV31
p3910
aV32
p3911
aV22
p3912
aV91
p3913
aa(lp3914
V02-11-2016
p3915
aV21
p3916
aV19
p3917
aV6
aVnr
p3918
aV39
p3919
aVnr
p3920
aVnr
p3921
aVnr
p3922
aV14
p3923
aVnr
p3924
aV38
p3925
aVnr
p3926
aV41
p3927
aV16
p3928
aV17
p3929
aVnr
p3930
aVnr
p3931
aV24
p3932
aVnr
p3933
aV29
p3934
aVnr
p3935
aVnr
p3936
aVnr
p3937
aVnr
p3938
aV18
p3939
aVnr
p3940
aV48
p3941
aV20
p3942
aVnr
p3943
aV46
p3944
aVnr
p3945
aV39
p3946
aVnr
p3947
aVnr
p3948
aV9
aVnr
p3949
aVnr
p3950
aV29
p3951
aV74
p3952
aVnr
p3953
aV31
p3954
aV32
p3955
aV22
p3956
aV91
p3957
aa(lp3958
V02-11-2016
p3959
aV21
p3960
aV19
p3961
aV6
aVnr
p3962
aV39
p3963
aVnr
p3964
aVnr
p3965
aVnr
p3966
aV14
p3967
aVnr
p3968
aV38
p3969
aVnr
p3970
aV41
p3971
aV16
p3972
aV17
p3973
aVnr
p3974
aVnr
p3975
aV24
p3976
aVnr
p3977
aV29
p3978
aVnr
p3979
aVnr
p3980
aVnr
p3981
aVnr
p3982
aV18
p3983
aVnr
p3984
aV48
p3985
aV20
p3986
aVnr
p3987
aV46
p3988
aVnr
p3989
aV39
p3990
aVnr
p3991
aVnr
p3992
aV9
aVnr
p3993
aVnr
p3994
aV29
p3995
aV74
p3996
aVnr
p3997
aV31
p3998
aV32
p3999
aV22
p4000
aV91
p4001
aa(lp4002
V02-11-2016
p4003
aV21
p4004
aV19
p4005
aV6
aVnr
p4006
aV39
p4007
aVnr
p4008
aVnr
p4009
aVnr
p4010
aV14
p4011
aVnr
p4012
aV38
p4013
aVnr
p4014
aV41
p4015
aV16
p4016
aV17
p4017
aVnr
p4018
aVnr
p4019
aV24
p4020
aVnr
p4021
aV29
p4022
aVnr
p4023
aVnr
p4024
aVnr
p4025
aVnr
p4026
aV18
p4027
aVnr
p4028
aV48
p4029
aV20
p4030
aVnr
p4031
aV46
p4032
aVnr
p4033
aV39
p4034
aVnr
p4035
aVnr
p4036
aV9
aVnr
p4037
aVnr
p4038
aV29
p4039
aV74
p4040
aVnr
p4041
aV31
p4042
aV32
p4043
aV22
p4044
aV91
p4045
aa(lp4046
V02-11-2016
p4047
aV22
p4048
aV28
p4049
aV9
aVnr
p4050
aV47
p4051
aVnr
p4052
aVnr
p4053
aVnr
p4054
aV25
p4055
aVnr
p4056
aV44
p4057
aVnr
p4058
aV38
p4059
aV24
p4060
aV11
p4061
aVnr
p4062
aVnr
p4063
aV33
p4064
aVnr
p4065
aV33
p4066
aVnr
p4067
aVnr
p4068
aVnr
p4069
aVnr
p4070
aVnr
p4071
aVnr
p4072
aV40
p4073
aV24
p4074
aVnr
p4075
aV53
p4076
aVnr
p4077
aV42
p4078
aVnr
p4079
aVnr
p4080
aV9
aVnr
p4081
aVnr
p4082
aV36
p4083
aV60
p4084
aVnr
p4085
aV17
p4086
aV29
p4087
aV28
p4088
aV72
p4089
aa(lp4090
V02-11-2016
p4091
aV22
p4092
aV28
p4093
aV9
aVnr
p4094
aV47
p4095
aVnr
p4096
aVnr
p4097
aVnr
p4098
aV25
p4099
aVnr
p4100
aV44
p4101
aVnr
p4102
aV38
p4103
aV24
p4104
aV11
p4105
aVnr
p4106
aVnr
p4107
aV33
p4108
aVnr
p4109
aV33
p4110
aVnr
p4111
aVnr
p4112
aVnr
p4113
aVnr
p4114
aVnr
p4115
aVnr
p4116
aV40
p4117
aV24
p4118
aVnr
p4119
aV53
p4120
aVnr
p4121
aV42
p4122
aVnr
p4123
aVnr
p4124
aV9
aVnr
p4125
aVnr
p4126
aV36
p4127
aV60
p4128
aVnr
p4129
aV17
p4130
aV29
p4131
aV28
p4132
aV72
p4133
aa(lp4134
V02-11-2016
p4135
aV22
p4136
aV28
p4137
aV9
aVnr
p4138
aV47
p4139
aVnr
p4140
aVnr
p4141
aVnr
p4142
aV25
p4143
aVnr
p4144
aV44
p4145
aVnr
p4146
aV38
p4147
aV24
p4148
aV11
p4149
aVnr
p4150
aVnr
p4151
aV33
p4152
aVnr
p4153
aV33
p4154
aVnr
p4155
aVnr
p4156
aVnr
p4157
aVnr
p4158
aVnr
p4159
aVnr
p4160
aV40
p4161
aV24
p4162
aVnr
p4163
aV53
p4164
aVnr
p4165
aV42
p4166
aVnr
p4167
aVnr
p4168
aV9
aVnr
p4169
aVnr
p4170
aV36
p4171
aV60
p4172
aVnr
p4173
aV17
p4174
aV29
p4175
aV28
p4176
aV72
p4177
aasS'rh'
p4178
(lp4179
(lp4180
V02-11-2016
p4181
aV21
p4182
aVnr
p4183
aV68
p4184
aV91
p4185
aVnr
p4186
aV69
p4187
aVnr
p4188
aVnr
p4189
aVnr
p4190
aV80
p4191
aV87
p4192
aVnr
p4193
aV81
p4194
aV69
p4195
aVnr
p4196
aVnr
p4197
aV68
p4198
aVnr
p4199
aVnr
p4200
aVnr
p4201
aVnr
p4202
aVnr
p4203
aV72
p4204
aV73
p4205
aVnr
p4206
aV66
p4207
aV68
p4208
aVnr
p4209
aV48
p4210
aV77
p4211
aVnr
p4212
aVnr
p4213
aVnr
p4214
aVnr
p4215
aV75
p4216
aVnr
p4217
aV72
p4218
aVnr
p4219
aVnr
p4220
aV73
p4221
aV66
p4222
aV63
p4223
aV62
p4224
aa(lp4225
V02-11-2016
p4226
aV21
p4227
aVnr
p4228
aV68
p4229
aV91
p4230
aVnr
p4231
aV69
p4232
aVnr
p4233
aVnr
p4234
aVnr
p4235
aV80
p4236
aV87
p4237
aVnr
p4238
aV81
p4239
aV69
p4240
aVnr
p4241
aVnr
p4242
aV68
p4243
aVnr
p4244
aVnr
p4245
aVnr
p4246
aVnr
p4247
aVnr
p4248
aV72
p4249
aV73
p4250
aVnr
p4251
aV66
p4252
aV68
p4253
aVnr
p4254
aV48
p4255
aV77
p4256
aVnr
p4257
aVnr
p4258
aVnr
p4259
aVnr
p4260
aV75
p4261
aVnr
p4262
aV72
p4263
aVnr
p4264
aVnr
p4265
aV73
p4266
aV66
p4267
aV63
p4268
aV62
p4269
aa(lp4270
V02-11-2016
p4271
aV21
p4272
aVnr
p4273
aV68
p4274
aV91
p4275
aVnr
p4276
aV69
p4277
aVnr
p4278
aVnr
p4279
aVnr
p4280
aV80
p4281
aV87
p4282
aVnr
p4283
aV81
p4284
aV69
p4285
aVnr
p4286
aVnr
p4287
aV68
p4288
aVnr
p4289
aVnr
p4290
aVnr
p4291
aVnr
p4292
aVnr
p4293
aV72
p4294
aV73
p4295
aVnr
p4296
aV66
p4297
aV68
p4298
aVnr
p4299
aV48
p4300
aV77
p4301
aVnr
p4302
aVnr
p4303
aVnr
p4304
aVnr
p4305
aV75
p4306
aVnr
p4307
aV72
p4308
aVnr
p4309
aVnr
p4310
aV73
p4311
aV66
p4312
aV63
p4313
aV62
p4314
aa(lp4315
V02-11-2016
p4316
aV21
p4317
aVnr
p4318
aV68
p4319
aV91
p4320
aVnr
p4321
aV69
p4322
aVnr
p4323
aVnr
p4324
aVnr
p4325
aV80
p4326
aV87
p4327
aVnr
p4328
aV81
p4329
aV69
p4330
aVnr
p4331
aVnr
p4332
aV68
p4333
aVnr
p4334
aVnr
p4335
aVnr
p4336
aVnr
p4337
aVnr
p4338
aV72
p4339
aV73
p4340
aVnr
p4341
aV66
p4342
aV68
p4343
aVnr
p4344
aV48
p4345
aV77
p4346
aVnr
p4347
aVnr
p4348
aVnr
p4349
aVnr
p4350
aV75
p4351
aVnr
p4352
aV72
p4353
aVnr
p4354
aVnr
p4355
aV73
p4356
aV66
p4357
aV63
p4358
aV62
p4359
aa(lp4360
V02-11-2016
p4361
aV21
p4362
aVnr
p4363
aV68
p4364
aV91
p4365
aVnr
p4366
aV69
p4367
aVnr
p4368
aVnr
p4369
aVnr
p4370
aV80
p4371
aV87
p4372
aVnr
p4373
aV81
p4374
aV69
p4375
aVnr
p4376
aVnr
p4377
aV68
p4378
aVnr
p4379
aVnr
p4380
aVnr
p4381
aVnr
p4382
aVnr
p4383
aV72
p4384
aV73
p4385
aVnr
p4386
aV66
p4387
aV68
p4388
aVnr
p4389
aV48
p4390
aV77
p4391
aVnr
p4392
aVnr
p4393
aVnr
p4394
aVnr
p4395
aV75
p4396
aVnr
p4397
aV72
p4398
aVnr
p4399
aVnr
p4400
aV73
p4401
aV66
p4402
aV63
p4403
aV62
p4404
aa(lp4405
V02-11-2016
p4406
aV21
p4407
aVnr
p4408
aV68
p4409
aV91
p4410
aVnr
p4411
aV69
p4412
aVnr
p4413
aVnr
p4414
aVnr
p4415
aV80
p4416
aV87
p4417
aVnr
p4418
aV81
p4419
aV69
p4420
aVnr
p4421
aVnr
p4422
aV68
p4423
aVnr
p4424
aVnr
p4425
aVnr
p4426
aVnr
p4427
aVnr
p4428
aV72
p4429
aV73
p4430
aVnr
p4431
aV66
p4432
aV68
p4433
aVnr
p4434
aV48
p4435
aV77
p4436
aVnr
p4437
aVnr
p4438
aVnr
p4439
aVnr
p4440
aV75
p4441
aVnr
p4442
aV72
p4443
aVnr
p4444
aVnr
p4445
aV73
p4446
aV66
p4447
aV63
p4448
aV62
p4449
aa(lp4450
V02-11-2016
p4451
aV21
p4452
aVnr
p4453
aV68
p4454
aV91
p4455
aVnr
p4456
aV69
p4457
aVnr
p4458
aVnr
p4459
aVnr
p4460
aV80
p4461
aV87
p4462
aVnr
p4463
aV81
p4464
aV69
p4465
aVnr
p4466
aVnr
p4467
aV68
p4468
aVnr
p4469
aVnr
p4470
aVnr
p4471
aVnr
p4472
aVnr
p4473
aV72
p4474
aV73
p4475
aVnr
p4476
aV66
p4477
aV68
p4478
aVnr
p4479
aV48
p4480
aV77
p4481
aVnr
p4482
aVnr
p4483
aVnr
p4484
aVnr
p4485
aV75
p4486
aVnr
p4487
aV72
p4488
aVnr
p4489
aVnr
p4490
aV73
p4491
aV66
p4492
aV63
p4493
aV62
p4494
aa(lp4495
V02-11-2016
p4496
aV21
p4497
aVnr
p4498
aV68
p4499
aV91
p4500
aVnr
p4501
aV69
p4502
aVnr
p4503
aVnr
p4504
aVnr
p4505
aV80
p4506
aV87
p4507
aVnr
p4508
aV81
p4509
aV69
p4510
aVnr
p4511
aVnr
p4512
aV68
p4513
aVnr
p4514
aVnr
p4515
aVnr
p4516
aVnr
p4517
aVnr
p4518
aV72
p4519
aV73
p4520
aVnr
p4521
aV66
p4522
aV68
p4523
aVnr
p4524
aV48
p4525
aV77
p4526
aVnr
p4527
aVnr
p4528
aVnr
p4529
aVnr
p4530
aV75
p4531
aVnr
p4532
aV72
p4533
aVnr
p4534
aVnr
p4535
aV73
p4536
aV66
p4537
aV63
p4538
aV62
p4539
aa(lp4540
V02-11-2016
p4541
aV22
p4542
aVnr
p4543
aV67
p4544
aV94
p4545
aVnr
p4546
aV73
p4547
aVnr
p4548
aVnr
p4549
aVnr
p4550
aV81
p4551
aV88
p4552
aVnr
p4553
aV79
p4554
aV75
p4555
aVnr
p4556
aVnr
p4557
aV66
p4558
aVnr
p4559
aVnr
p4560
aVnr
p4561
aVnr
p4562
aVnr
p4563
aV72
p4564
aVnr
p4565
aVnr
p4566
aV69
p4567
aV76
p4568
aVnr
p4569
aV55
p4570
aV76
p4571
aVnr
p4572
aVnr
p4573
aVnr
p4574
aVnr
p4575
aV78
p4576
aVnr
p4577
aV72
p4578
aVnr
p4579
aVnr
p4580
aV83
p4581
aV78
p4582
aV71
p4583
aV65
p4584
aa(lp4585
V02-11-2016
p4586
aV22
p4587
aVnr
p4588
aV67
p4589
aV94
p4590
aVnr
p4591
aV73
p4592
aVnr
p4593
aVnr
p4594
aVnr
p4595
aV81
p4596
aV88
p4597
aVnr
p4598
aV79
p4599
aV75
p4600
aVnr
p4601
aVnr
p4602
aV66
p4603
aVnr
p4604
aVnr
p4605
aVnr
p4606
aVnr
p4607
aVnr
p4608
aV72
p4609
aVnr
p4610
aVnr
p4611
aV69
p4612
aV76
p4613
aVnr
p4614
aV55
p4615
aV76
p4616
aVnr
p4617
aVnr
p4618
aVnr
p4619
aVnr
p4620
aV78
p4621
aVnr
p4622
aV72
p4623
aVnr
p4624
aVnr
p4625
aV83
p4626
aV78
p4627
aV71
p4628
aV65
p4629
aa(lp4630
V02-11-2016
p4631
aV22
p4632
aVnr
p4633
aV67
p4634
aV94
p4635
aVnr
p4636
aV73
p4637
aVnr
p4638
aVnr
p4639
aVnr
p4640
aV81
p4641
aV88
p4642
aVnr
p4643
aV79
p4644
aV75
p4645
aVnr
p4646
aVnr
p4647
aV66
p4648
aVnr
p4649
aVnr
p4650
aVnr
p4651
aVnr
p4652
aVnr
p4653
aV72
p4654
aVnr
p4655
aVnr
p4656
aV69
p4657
aV76
p4658
aVnr
p4659
aV55
p4660
aV76
p4661
aVnr
p4662
aVnr
p4663
aVnr
p4664
aVnr
p4665
aV78
p4666
aVnr
p4667
aV72
p4668
aVnr
p4669
aVnr
p4670
aV83
p4671
aV78
p4672
aV71
p4673
aV65
p4674
aasS'no2'
p4675
(lp4676
(lp4677
V02-11-2016
p4678
aV21
p4679
aV14
p4680
aV5
aVnr
p4681
aV26
p4682
aVnr
p4683
aVnr
p4684
aVnr
p4685
aV14
p4686
aVnr
p4687
aV22
p4688
aVnr
p4689
aV26
p4690
aV14
p4691
aV13
p4692
aVnr
p4693
aVnr
p4694
aV21
p4695
aV26
p4696
aVnr
p4697
aVnr
p4698
aVnr
p4699
aVnr
p4700
aV14
p4701
aVnr
p4702
aV35
p4703
aV17
p4704
aVnr
p4705
aV27
p4706
aVnr
p4707
aV33
p4708
aVnr
p4709
aVnr
p4710
aV8
aVnr
p4711
aVnr
p4712
aV22
p4713
aV34
p4714
aVnr
p4715
aV26
p4716
aV28
p4717
aV17
p4718
aV36
p4719
aa(lp4720
V02-11-2016
p4721
aV21
p4722
aV14
p4723
aV5
aVnr
p4724
aV26
p4725
aVnr
p4726
aVnr
p4727
aVnr
p4728
aV14
p4729
aVnr
p4730
aV22
p4731
aVnr
p4732
aV26
p4733
aV14
p4734
aV13
p4735
aVnr
p4736
aVnr
p4737
aV21
p4738
aV26
p4739
aVnr
p4740
aVnr
p4741
aVnr
p4742
aVnr
p4743
aV14
p4744
aVnr
p4745
aV35
p4746
aV17
p4747
aVnr
p4748
aV27
p4749
aVnr
p4750
aV33
p4751
aVnr
p4752
aVnr
p4753
aV8
aVnr
p4754
aVnr
p4755
aV22
p4756
aV34
p4757
aVnr
p4758
aV26
p4759
aV28
p4760
aV17
p4761
aV36
p4762
aa(lp4763
V02-11-2016
p4764
aV21
p4765
aV14
p4766
aV5
aVnr
p4767
aV26
p4768
aVnr
p4769
aVnr
p4770
aVnr
p4771
aV14
p4772
aVnr
p4773
aV22
p4774
aVnr
p4775
aV26
p4776
aV14
p4777
aV13
p4778
aVnr
p4779
aVnr
p4780
aV21
p4781
aV26
p4782
aVnr
p4783
aVnr
p4784
aVnr
p4785
aVnr
p4786
aV14
p4787
aVnr
p4788
aV35
p4789
aV17
p4790
aVnr
p4791
aV27
p4792
aVnr
p4793
aV33
p4794
aVnr
p4795
aVnr
p4796
aV8
aVnr
p4797
aVnr
p4798
aV22
p4799
aV34
p4800
aVnr
p4801
aV26
p4802
aV28
p4803
aV17
p4804
aV36
p4805
aa(lp4806
V02-11-2016
p4807
aV21
p4808
aV14
p4809
aV5
aVnr
p4810
aV26
p4811
aVnr
p4812
aVnr
p4813
aVnr
p4814
aV14
p4815
aVnr
p4816
aV22
p4817
aVnr
p4818
aV26
p4819
aV14
p4820
aV13
p4821
aVnr
p4822
aVnr
p4823
aV21
p4824
aV26
p4825
aVnr
p4826
aVnr
p4827
aVnr
p4828
aVnr
p4829
aV14
p4830
aVnr
p4831
aV35
p4832
aV17
p4833
aVnr
p4834
aV27
p4835
aVnr
p4836
aV33
p4837
aVnr
p4838
aVnr
p4839
aV8
aVnr
p4840
aVnr
p4841
aV22
p4842
aV34
p4843
aVnr
p4844
aV26
p4845
aV28
p4846
aV17
p4847
aV36
p4848
aa(lp4849
V02-11-2016
p4850
aV21
p4851
aV14
p4852
aV5
aVnr
p4853
aV26
p4854
aVnr
p4855
aVnr
p4856
aVnr
p4857
aV14
p4858
aVnr
p4859
aV22
p4860
aVnr
p4861
aV26
p4862
aV14
p4863
aV13
p4864
aVnr
p4865
aVnr
p4866
aV21
p4867
aV26
p4868
aVnr
p4869
aVnr
p4870
aVnr
p4871
aVnr
p4872
aV14
p4873
aVnr
p4874
aV35
p4875
aV17
p4876
aVnr
p4877
aV27
p4878
aVnr
p4879
aV33
p4880
aVnr
p4881
aVnr
p4882
aV8
aVnr
p4883
aVnr
p4884
aV22
p4885
aV34
p4886
aVnr
p4887
aV26
p4888
aV28
p4889
aV17
p4890
aV36
p4891
aa(lp4892
V02-11-2016
p4893
aV21
p4894
aV14
p4895
aV5
aVnr
p4896
aV26
p4897
aVnr
p4898
aVnr
p4899
aVnr
p4900
aV14
p4901
aVnr
p4902
aV22
p4903
aVnr
p4904
aV26
p4905
aV14
p4906
aV13
p4907
aVnr
p4908
aVnr
p4909
aV21
p4910
aV26
p4911
aVnr
p4912
aVnr
p4913
aVnr
p4914
aVnr
p4915
aV14
p4916
aVnr
p4917
aV35
p4918
aV17
p4919
aVnr
p4920
aV27
p4921
aVnr
p4922
aV33
p4923
aVnr
p4924
aVnr
p4925
aV8
aVnr
p4926
aVnr
p4927
aV22
p4928
aV34
p4929
aVnr
p4930
aV26
p4931
aV28
p4932
aV17
p4933
aV36
p4934
aa(lp4935
V02-11-2016
p4936
aV21
p4937
aV14
p4938
aV5
aVnr
p4939
aV26
p4940
aVnr
p4941
aVnr
p4942
aVnr
p4943
aV14
p4944
aVnr
p4945
aV22
p4946
aVnr
p4947
aV26
p4948
aV14
p4949
aV13
p4950
aVnr
p4951
aVnr
p4952
aV21
p4953
aV26
p4954
aVnr
p4955
aVnr
p4956
aVnr
p4957
aVnr
p4958
aV14
p4959
aVnr
p4960
aV35
p4961
aV17
p4962
aVnr
p4963
aV27
p4964
aVnr
p4965
aV33
p4966
aVnr
p4967
aVnr
p4968
aV8
aVnr
p4969
aVnr
p4970
aV22
p4971
aV34
p4972
aVnr
p4973
aV26
p4974
aV28
p4975
aV17
p4976
aV36
p4977
aa(lp4978
V02-11-2016
p4979
aV21
p4980
aV14
p4981
aV5
aVnr
p4982
aV26
p4983
aVnr
p4984
aVnr
p4985
aVnr
p4986
aV14
p4987
aVnr
p4988
aV22
p4989
aVnr
p4990
aV26
p4991
aV14
p4992
aV13
p4993
aVnr
p4994
aVnr
p4995
aV21
p4996
aV26
p4997
aVnr
p4998
aVnr
p4999
aVnr
p5000
aVnr
p5001
aV14
p5002
aVnr
p5003
aV35
p5004
aV17
p5005
aVnr
p5006
aV27
p5007
aVnr
p5008
aV33
p5009
aVnr
p5010
aVnr
p5011
aV8
aVnr
p5012
aVnr
p5013
aV22
p5014
aV34
p5015
aVnr
p5016
aV26
p5017
aV28
p5018
aV17
p5019
aV36
p5020
aa(lp5021
V02-11-2016
p5022
aV22
p5023
aV21
p5024
aV8
aVnr
p5025
aV25
p5026
aVnr
p5027
aVnr
p5028
aVnr
p5029
aV20
p5030
aVnr
p5031
aV27
p5032
aVnr
p5033
aV26
p5034
aV20
p5035
aV9
aVnr
p5036
aVnr
p5037
aV27
p5038
aV27
p5039
aVnr
p5040
aVnr
p5041
aVnr
p5042
aVnr
p5043
aVnr
p5044
aVnr
p5045
aV31
p5046
aV20
p5047
aVnr
p5048
aV36
p5049
aVnr
p5050
aVnr
p5051
aVnr
p5052
aVnr
p5053
aV8
aVnr
p5054
aVnr
p5055
aV25
p5056
aV32
p5057
aVnr
p5058
aV16
p5059
aV25
p5060
aV21
p5061
aV36
p5062
aa(lp5063
V02-11-2016
p5064
aV22
p5065
aV21
p5066
aV8
aVnr
p5067
aV25
p5068
aVnr
p5069
aVnr
p5070
aVnr
p5071
aV20
p5072
aVnr
p5073
aV27
p5074
aVnr
p5075
aV26
p5076
aV20
p5077
aV9
aVnr
p5078
aVnr
p5079
aV27
p5080
aV27
p5081
aVnr
p5082
aVnr
p5083
aVnr
p5084
aVnr
p5085
aVnr
p5086
aVnr
p5087
aV31
p5088
aV20
p5089
aVnr
p5090
aV36
p5091
aVnr
p5092
aVnr
p5093
aVnr
p5094
aVnr
p5095
aV8
aVnr
p5096
aVnr
p5097
aV25
p5098
aV32
p5099
aVnr
p5100
aV16
p5101
aV25
p5102
aV21
p5103
aV36
p5104
aa(lp5105
V02-11-2016
p5106
aV22
p5107
aV21
p5108
aV8
aVnr
p5109
aV25
p5110
aVnr
p5111
aVnr
p5112
aVnr
p5113
aV20
p5114
aVnr
p5115
aV27
p5116
aVnr
p5117
aV26
p5118
aV20
p5119
aV9
aVnr
p5120
aVnr
p5121
aV27
p5122
aV27
p5123
aVnr
p5124
aVnr
p5125
aVnr
p5126
aVnr
p5127
aVnr
p5128
aVnr
p5129
aV31
p5130
aV20
p5131
aVnr
p5132
aV36
p5133
aVnr
p5134
aVnr
p5135
aVnr
p5136
aVnr
p5137
aV8
aVnr
p5138
aVnr
p5139
aV25
p5140
aV32
p5141
aVnr
p5142
aV16
p5143
aV25
p5144
aV21
p5145
aV36
p5146
aas.