(dp1
S'tmp'
p2
(lp3
(lp4
V02-11-2016
p5
aV21
p6
aVnr
p7
aV14
p8
aV10
p9
aVnr
p10
aV16
p11
aVnr
p12
aVnr
p13
aVnr
p14
aV15
p15
aV14
p16
aVnr
p17
aV12
p18
aV16
p19
aVnr
p20
aVnr
p21
aV16
p22
aVnr
p23
aVnr
p24
aVnr
p25
aVnr
p26
aVnr
p27
aV16
p28
aV15
p29
aVnr
p30
aV17
p31
aV16
p32
aVnr
p33
aV19
p34
aV13
p35
aVnr
p36
aVnr
p37
aVnr
p38
aVnr
p39
aV15
p40
aVnr
p41
aV15
p42
aVnr
p43
aVnr
p44
aV17
p45
aV17
p46
aV18
p47
aV17
p48
aa(lp49
V02-11-2016
p50
aV21
p51
aVnr
p52
aV14
p53
aV10
p54
aVnr
p55
aV16
p56
aVnr
p57
aVnr
p58
aVnr
p59
aV15
p60
aV14
p61
aVnr
p62
aV12
p63
aV16
p64
aVnr
p65
aVnr
p66
aV16
p67
aVnr
p68
aVnr
p69
aVnr
p70
aVnr
p71
aVnr
p72
aV16
p73
aV15
p74
aVnr
p75
aV17
p76
aV16
p77
aVnr
p78
aV19
p79
aV13
p80
aVnr
p81
aVnr
p82
aVnr
p83
aVnr
p84
aV15
p85
aVnr
p86
aV15
p87
aVnr
p88
aVnr
p89
aV17
p90
aV17
p91
aV18
p92
aV17
p93
aa(lp94
V02-11-2016
p95
aV21
p96
aVnr
p97
aV14
p98
aV10
p99
aVnr
p100
aV16
p101
aVnr
p102
aVnr
p103
aVnr
p104
aV15
p105
aV14
p106
aVnr
p107
aV12
p108
aV16
p109
aVnr
p110
aVnr
p111
aV16
p112
aVnr
p113
aVnr
p114
aVnr
p115
aVnr
p116
aVnr
p117
aV16
p118
aV15
p119
aVnr
p120
aV17
p121
aV16
p122
aVnr
p123
aV19
p124
aV13
p125
aVnr
p126
aVnr
p127
aVnr
p128
aVnr
p129
aV15
p130
aVnr
p131
aV15
p132
aVnr
p133
aVnr
p134
aV17
p135
aV17
p136
aV18
p137
aV17
p138
aa(lp139
V02-11-2016
p140
aV21
p141
aVnr
p142
aV14
p143
aV10
p144
aVnr
p145
aV16
p146
aVnr
p147
aVnr
p148
aVnr
p149
aV15
p150
aV14
p151
aVnr
p152
aV12
p153
aV16
p154
aVnr
p155
aVnr
p156
aV16
p157
aVnr
p158
aVnr
p159
aVnr
p160
aVnr
p161
aVnr
p162
aV16
p163
aV15
p164
aVnr
p165
aV17
p166
aV16
p167
aVnr
p168
aV19
p169
aV13
p170
aVnr
p171
aVnr
p172
aVnr
p173
aVnr
p174
aV15
p175
aVnr
p176
aV15
p177
aVnr
p178
aVnr
p179
aV17
p180
aV17
p181
aV18
p182
aV17
p183
aa(lp184
V02-11-2016
p185
aV21
p186
aVnr
p187
aV14
p188
aV10
p189
aVnr
p190
aV16
p191
aVnr
p192
aVnr
p193
aVnr
p194
aV15
p195
aV14
p196
aVnr
p197
aV12
p198
aV16
p199
aVnr
p200
aVnr
p201
aV16
p202
aVnr
p203
aVnr
p204
aVnr
p205
aVnr
p206
aVnr
p207
aV16
p208
aV15
p209
aVnr
p210
aV17
p211
aV16
p212
aVnr
p213
aV19
p214
aV13
p215
aVnr
p216
aVnr
p217
aVnr
p218
aVnr
p219
aV15
p220
aVnr
p221
aV15
p222
aVnr
p223
aVnr
p224
aV17
p225
aV17
p226
aV18
p227
aV17
p228
aa(lp229
V02-11-2016
p230
aV21
p231
aVnr
p232
aV14
p233
aV10
p234
aVnr
p235
aV16
p236
aVnr
p237
aVnr
p238
aVnr
p239
aV15
p240
aV14
p241
aVnr
p242
aV12
p243
aV16
p244
aVnr
p245
aVnr
p246
aV16
p247
aVnr
p248
aVnr
p249
aVnr
p250
aVnr
p251
aVnr
p252
aV16
p253
aV15
p254
aVnr
p255
aV17
p256
aV16
p257
aVnr
p258
aV19
p259
aV13
p260
aVnr
p261
aVnr
p262
aVnr
p263
aVnr
p264
aV15
p265
aVnr
p266
aV15
p267
aVnr
p268
aVnr
p269
aV17
p270
aV17
p271
aV18
p272
aV17
p273
aa(lp274
V02-11-2016
p275
aV21
p276
aVnr
p277
aV14
p278
aV10
p279
aVnr
p280
aV16
p281
aVnr
p282
aVnr
p283
aVnr
p284
aV15
p285
aV14
p286
aVnr
p287
aV12
p288
aV16
p289
aVnr
p290
aVnr
p291
aV16
p292
aVnr
p293
aVnr
p294
aVnr
p295
aVnr
p296
aVnr
p297
aV16
p298
aV15
p299
aVnr
p300
aV17
p301
aV16
p302
aVnr
p303
aV19
p304
aV13
p305
aVnr
p306
aVnr
p307
aVnr
p308
aVnr
p309
aV15
p310
aVnr
p311
aV15
p312
aVnr
p313
aVnr
p314
aV17
p315
aV17
p316
aV18
p317
aV17
p318
aa(lp319
V02-11-2016
p320
aV21
p321
aVnr
p322
aV14
p323
aV10
p324
aVnr
p325
aV16
p326
aVnr
p327
aVnr
p328
aVnr
p329
aV15
p330
aV14
p331
aVnr
p332
aV12
p333
aV16
p334
aVnr
p335
aVnr
p336
aV16
p337
aVnr
p338
aVnr
p339
aVnr
p340
aVnr
p341
aVnr
p342
aV16
p343
aV15
p344
aVnr
p345
aV17
p346
aV16
p347
aVnr
p348
aV19
p349
aV13
p350
aVnr
p351
aVnr
p352
aVnr
p353
aVnr
p354
aV15
p355
aVnr
p356
aV15
p357
aVnr
p358
aVnr
p359
aV17
p360
aV17
p361
aV18
p362
aV17
p363
aa(lp364
V02-11-2016
p365
aV22
p366
aVnr
p367
aV15
p368
aV10
p369
aVnr
p370
aV16
p371
aVnr
p372
aVnr
p373
aVnr
p374
aV15
p375
aV14
p376
aVnr
p377
aV12
p378
aV15
p379
aVnr
p380
aVnr
p381
aV16
p382
aVnr
p383
aVnr
p384
aVnr
p385
aVnr
p386
aVnr
p387
aV16
p388
aVnr
p389
aVnr
p390
aV16
p391
aV15
p392
aVnr
p393
aV18
p394
aV13
p395
aVnr
p396
aVnr
p397
aVnr
p398
aVnr
p399
aV14
p400
aVnr
p401
aV14
p402
aVnr
p403
aVnr
p404
aV15
p405
aV15
p406
aV17
p407
aV16
p408
aa(lp409
V02-11-2016
p410
aV22
p411
aVnr
p412
aV15
p413
aV10
p414
aVnr
p415
aV16
p416
aVnr
p417
aVnr
p418
aVnr
p419
aV15
p420
aV14
p421
aVnr
p422
aV12
p423
aV15
p424
aVnr
p425
aVnr
p426
aV16
p427
aVnr
p428
aVnr
p429
aVnr
p430
aVnr
p431
aVnr
p432
aV16
p433
aVnr
p434
aVnr
p435
aV16
p436
aV15
p437
aVnr
p438
aV18
p439
aV13
p440
aVnr
p441
aVnr
p442
aVnr
p443
aVnr
p444
aV14
p445
aVnr
p446
aV14
p447
aVnr
p448
aVnr
p449
aV15
p450
aV15
p451
aV17
p452
aV16
p453
aa(lp454
V02-11-2016
p455
aV22
p456
aVnr
p457
aV15
p458
aV10
p459
aVnr
p460
aV16
p461
aVnr
p462
aVnr
p463
aVnr
p464
aV15
p465
aV14
p466
aVnr
p467
aV12
p468
aV15
p469
aVnr
p470
aVnr
p471
aV16
p472
aVnr
p473
aVnr
p474
aVnr
p475
aVnr
p476
aVnr
p477
aV16
p478
aVnr
p479
aVnr
p480
aV16
p481
aV15
p482
aVnr
p483
aV18
p484
aV13
p485
aVnr
p486
aVnr
p487
aVnr
p488
aVnr
p489
aV14
p490
aVnr
p491
aV14
p492
aVnr
p493
aVnr
p494
aV15
p495
aV15
p496
aV17
p497
aV16
p498
aa(lp499
V02-11-2016
p500
aV23
p501
aVnr
p502
aV14
p503
aV9
aVnr
p504
aV16
p505
aVnr
p506
aVnr
p507
aVnr
p508
aV15
p509
aV14
p510
aVnr
p511
aV12
p512
aV14
p513
aVnr
p514
aVnr
p515
aV16
p516
aVnr
p517
aVnr
p518
aVnr
p519
aVnr
p520
aVnr
p521
aV16
p522
aV16
p523
aVnr
p524
aV16
p525
aV15
p526
aVnr
p527
aV17
p528
aV13
p529
aVnr
p530
aVnr
p531
aVnr
p532
aVnr
p533
aV15
p534
aVnr
p535
aV14
p536
aVnr
p537
aVnr
p538
aV16
p539
aV16
p540
aV16
p541
aV15
p542
aa(lp543
V02-11-2016
p544
aV23
p545
aVnr
p546
aV14
p547
aV9
aVnr
p548
aV16
p549
aVnr
p550
aVnr
p551
aVnr
p552
aV15
p553
aV14
p554
aVnr
p555
aV12
p556
aV14
p557
aVnr
p558
aVnr
p559
aV16
p560
aVnr
p561
aVnr
p562
aVnr
p563
aVnr
p564
aVnr
p565
aV16
p566
aV16
p567
aVnr
p568
aV16
p569
aV15
p570
aVnr
p571
aV17
p572
aV13
p573
aVnr
p574
aVnr
p575
aVnr
p576
aVnr
p577
aV15
p578
aVnr
p579
aV14
p580
aVnr
p581
aVnr
p582
aV16
p583
aV16
p584
aV16
p585
aV15
p586
aa(lp587
V02-11-2016
p588
aV23
p589
aVnr
p590
aV14
p591
aV9
aVnr
p592
aV16
p593
aVnr
p594
aVnr
p595
aVnr
p596
aV15
p597
aV14
p598
aVnr
p599
aV12
p600
aV14
p601
aVnr
p602
aVnr
p603
aV16
p604
aVnr
p605
aVnr
p606
aVnr
p607
aVnr
p608
aVnr
p609
aV16
p610
aV16
p611
aVnr
p612
aV16
p613
aV15
p614
aVnr
p615
aV17
p616
aV13
p617
aVnr
p618
aVnr
p619
aVnr
p620
aVnr
p621
aV15
p622
aVnr
p623
aV14
p624
aVnr
p625
aVnr
p626
aV16
p627
aV16
p628
aV16
p629
aV15
p630
aa(lp631
V02-11-2016
p632
aV23
p633
aVnr
p634
aV14
p635
aV9
aVnr
p636
aV16
p637
aVnr
p638
aVnr
p639
aVnr
p640
aV15
p641
aV14
p642
aVnr
p643
aV12
p644
aV14
p645
aVnr
p646
aVnr
p647
aV16
p648
aVnr
p649
aVnr
p650
aVnr
p651
aVnr
p652
aVnr
p653
aV16
p654
aV16
p655
aVnr
p656
aV16
p657
aV15
p658
aVnr
p659
aV17
p660
aV13
p661
aVnr
p662
aVnr
p663
aVnr
p664
aVnr
p665
aV15
p666
aVnr
p667
aV14
p668
aVnr
p669
aVnr
p670
aV16
p671
aV16
p672
aV16
p673
aV15
p674
aa(lp675
V02-11-2016
p676
aV24
p677
aVnr
p678
aV14
p679
aV8
aVnr
p680
aV15
p681
aVnr
p682
aVnr
p683
aVnr
p684
aV14
p685
aV13
p686
aVnr
p687
aV12
p688
aV14
p689
aVnr
p690
aVnr
p691
aV16
p692
aVnr
p693
aVnr
p694
aVnr
p695
aVnr
p696
aVnr
p697
aV16
p698
aV15
p699
aVnr
p700
aV16
p701
aV14
p702
aVnr
p703
aV17
p704
aV13
p705
aVnr
p706
aVnr
p707
aVnr
p708
aVnr
p709
aV14
p710
aVnr
p711
aV15
p712
aVnr
p713
aVnr
p714
aV15
p715
aV16
p716
aV16
p717
aV16
p718
aa(lp719
V05-11-2016
p720
aV8
aVnr
p721
aV12
p722
aV8
aVnr
p723
aV14
p724
aVnr
p725
aVnr
p726
aVnr
p727
aV12
p728
aV13
p729
aVnr
p730
aV10
p731
aV13
p732
aV13
p733
aVnr
p734
aV14
p735
aVnr
p736
aVnr
p737
aVnr
p738
aVnr
p739
aVnr
p740
aV14
p741
aV14
p742
aVnr
p743
aV14
p744
aV14
p745
aVnr
p746
aV15
p747
aV11
p748
aVnr
p749
aVnr
p750
aVnr
p751
aVnr
p752
aV13
p753
aVnr
p754
aV13
p755
aVnr
p756
aVnr
p757
aV15
p758
aV14
p759
aV13
p760
aV14
p761
aa(lp762
V05-11-2016
p763
aV9
aVnr
p764
aV13
p765
aV8
aVnr
p766
aV14
p767
aVnr
p768
aVnr
p769
aVnr
p770
aV13
p771
aV14
p772
aVnr
p773
aV10
p774
aV14
p775
aV14
p776
aVnr
p777
aV14
p778
aVnr
p779
aVnr
p780
aVnr
p781
aVnr
p782
aVnr
p783
aV14
p784
aV14
p785
aVnr
p786
aV14
p787
aV14
p788
aVnr
p789
aV16
p790
aV12
p791
aVnr
p792
aVnr
p793
aVnr
p794
aVnr
p795
aV14
p796
aVnr
p797
aV14
p798
aVnr
p799
aVnr
p800
aV15
p801
aV15
p802
aV14
p803
aV15
p804
aa(lp805
V07-11-2016
p806
aV8
aVnr
p807
aV13
p808
aV6
aVnr
p809
aV14
p810
aVnr
p811
aVnr
p812
aVnr
p813
aV9
aV11
p814
aVnr
p815
aV11
p816
aV7
aV9
aVnr
p817
aV15
p818
aVnr
p819
aVnr
p820
aVnr
p821
aVnr
p822
aVnr
p823
aV13
p824
aV14
p825
aVnr
p826
aV12
p827
aV13
p828
aVnr
p829
aV13
p830
aV12
p831
aVnr
p832
aVnr
p833
aVnr
p834
aVnr
p835
aV13
p836
aVnr
p837
aV12
p838
aVnr
p839
aVnr
p840
aV14
p841
aV13
p842
aV11
p843
aV13
p844
aa(lp845
V08-11-2016
p846
aV12
p847
aVnr
p848
aV16
p849
aV13
p850
aVnr
p851
aV19
p852
aVnr
p853
aVnr
p854
aVnr
p855
aV19
p856
aVnr
p857
aVnr
p858
aV15
p859
aV18
p860
aV22
p861
aVnr
p862
aV19
p863
aVnr
p864
aVnr
p865
aVnr
p866
aVnr
p867
aVnr
p868
aV19
p869
aV18
p870
aVnr
p871
aV17
p872
aV18
p873
aVnr
p874
aV20
p875
aV16
p876
aVnr
p877
aVnr
p878
aVnr
p879
aVnr
p880
aV19
p881
aVnr
p882
aV18
p883
aVnr
p884
aVnr
p885
aV19
p886
aV19
p887
aV18
p888
aV19
p889
aa(lp890
V09-11-2016
p891
aV12
p892
aV15
p893
aV12
p894
aV10
p895
aVnr
p896
aV15
p897
aVnr
p898
aVnr
p899
aVnr
p900
aV17
p901
aVnr
p902
aVnr
p903
aV11
p904
aV13
p905
aV16
p906
aV16
p907
aV15
p908
aVnr
p909
aVnr
p910
aVnr
p911
aVnr
p912
aVnr
p913
aV15
p914
aV15
p915
aV11
p916
aV15
p917
aV14
p918
aVnr
p919
aV17
p920
aV12
p921
aVnr
p922
aVnr
p923
aVnr
p924
aVnr
p925
aV15
p926
aVnr
p927
aV15
p928
aVnr
p929
aVnr
p930
aV15
p931
aV15
p932
aV15
p933
aV16
p934
aa(lp935
V09-11-2016
p936
aV13
p937
aV15
p938
aV13
p939
aV11
p940
aVnr
p941
aV16
p942
aVnr
p943
aVnr
p944
aVnr
p945
aV17
p946
aVnr
p947
aVnr
p948
aV11
p949
aV14
p950
aV18
p951
aV17
p952
aV17
p953
aVnr
p954
aVnr
p955
aVnr
p956
aVnr
p957
aVnr
p958
aV16
p959
aV15
p960
aV12
p961
aV16
p962
aV15
p963
aVnr
p964
aV17
p965
aV13
p966
aVnr
p967
aVnr
p968
aVnr
p969
aVnr
p970
aV17
p971
aVnr
p972
aV15
p973
aVnr
p974
aVnr
p975
aV16
p976
aV16
p977
aV15
p978
aV15
p979
aa(lp980
V09-11-2016
p981
aV14
p982
aV16
p983
aV13
p984
aV10
p985
aVnr
p986
aV15
p987
aVnr
p988
aVnr
p989
aVnr
p990
aV17
p991
aVnr
p992
aVnr
p993
aV11
p994
aV14
p995
aV16
p996
aV16
p997
aV16
p998
aVnr
p999
aVnr
p1000
aVnr
p1001
aVnr
p1002
aVnr
p1003
aV16
p1004
aV16
p1005
aV12
p1006
aV16
p1007
aV14
p1008
aVnr
p1009
aV18
p1010
aV13
p1011
aVnr
p1012
aVnr
p1013
aVnr
p1014
aVnr
p1015
aV17
p1016
aVnr
p1017
aV15
p1018
aVnr
p1019
aVnr
p1020
aV17
p1021
aV16
p1022
aV16
p1023
aV15
p1024
aasS'co'
p1025
(lp1026
(lp1027
V02-11-2016
p1028
aV21
p1029
aV0.1
p1030
aV0.2
p1031
aVnr
p1032
aVnr
p1033
aV0.5
p1034
aVnr
p1035
aV0.6
p1036
aVnr
p1037
aV0.4
p1038
aVnr
p1039
aV0.8
p1040
aV0.6
p1041
aVnr
p1042
aV0.5
p1043
aVnr
p1044
aVnr
p1045
aVnr
p1046
aVnr
p1047
aVnr
p1048
aV0.0
p1049
aV0.7
p1050
aVnr
p1051
aVnr
p1052
aVnr
p1053
aVnr
p1054
aV0.5
p1055
aV0.6
p1056
aV0.7
p1057
aV0.5
p1058
aVnr
p1059
aV0.9
p1060
aVnr
p1061
aV0.7
p1062
aVnr
p1063
aVnr
p1064
aV0.2
p1065
aVnr
p1066
aVnr
p1067
aV0.6
p1068
aV0.5
p1069
aVnr
p1070
aV0.7
p1071
aV0.6
p1072
aVnr
p1073
aV0.4
p1074
aV1.2
p1075
aa(lp1076
V02-11-2016
p1077
aV21
p1078
aV0.1
p1079
aV0.2
p1080
aVnr
p1081
aVnr
p1082
aV0.5
p1083
aVnr
p1084
aV0.6
p1085
aVnr
p1086
aV0.4
p1087
aVnr
p1088
aV0.8
p1089
aV0.6
p1090
aVnr
p1091
aV0.5
p1092
aVnr
p1093
aVnr
p1094
aVnr
p1095
aVnr
p1096
aVnr
p1097
aV0.0
p1098
aV0.7
p1099
aVnr
p1100
aVnr
p1101
aVnr
p1102
aVnr
p1103
aV0.5
p1104
aV0.6
p1105
aV0.7
p1106
aV0.5
p1107
aVnr
p1108
aV0.9
p1109
aVnr
p1110
aV0.7
p1111
aVnr
p1112
aVnr
p1113
aV0.2
p1114
aVnr
p1115
aVnr
p1116
aV0.6
p1117
aV0.5
p1118
aVnr
p1119
aV0.7
p1120
aV0.6
p1121
aVnr
p1122
aV0.4
p1123
aV1.2
p1124
aa(lp1125
V02-11-2016
p1126
aV21
p1127
aV0.1
p1128
aV0.2
p1129
aVnr
p1130
aVnr
p1131
aV0.5
p1132
aVnr
p1133
aV0.6
p1134
aVnr
p1135
aV0.4
p1136
aVnr
p1137
aV0.8
p1138
aV0.6
p1139
aVnr
p1140
aV0.5
p1141
aVnr
p1142
aVnr
p1143
aVnr
p1144
aVnr
p1145
aVnr
p1146
aV0.0
p1147
aV0.7
p1148
aVnr
p1149
aVnr
p1150
aVnr
p1151
aVnr
p1152
aV0.5
p1153
aV0.6
p1154
aV0.7
p1155
aV0.5
p1156
aVnr
p1157
aV0.9
p1158
aVnr
p1159
aV0.7
p1160
aVnr
p1161
aVnr
p1162
aV0.2
p1163
aVnr
p1164
aVnr
p1165
aV0.6
p1166
aV0.5
p1167
aVnr
p1168
aV0.7
p1169
aV0.6
p1170
aVnr
p1171
aV0.4
p1172
aV1.2
p1173
aa(lp1174
V02-11-2016
p1175
aV21
p1176
aV0.1
p1177
aV0.2
p1178
aVnr
p1179
aVnr
p1180
aV0.5
p1181
aVnr
p1182
aV0.6
p1183
aVnr
p1184
aV0.4
p1185
aVnr
p1186
aV0.8
p1187
aV0.6
p1188
aVnr
p1189
aV0.5
p1190
aVnr
p1191
aVnr
p1192
aVnr
p1193
aVnr
p1194
aVnr
p1195
aV0.0
p1196
aV0.7
p1197
aVnr
p1198
aVnr
p1199
aVnr
p1200
aVnr
p1201
aV0.5
p1202
aV0.6
p1203
aV0.7
p1204
aV0.5
p1205
aVnr
p1206
aV0.9
p1207
aVnr
p1208
aV0.7
p1209
aVnr
p1210
aVnr
p1211
aV0.2
p1212
aVnr
p1213
aVnr
p1214
aV0.6
p1215
aV0.5
p1216
aVnr
p1217
aV0.7
p1218
aV0.6
p1219
aVnr
p1220
aV0.4
p1221
aV1.2
p1222
aa(lp1223
V02-11-2016
p1224
aV21
p1225
aV0.1
p1226
aV0.2
p1227
aVnr
p1228
aVnr
p1229
aV0.5
p1230
aVnr
p1231
aV0.6
p1232
aVnr
p1233
aV0.4
p1234
aVnr
p1235
aV0.8
p1236
aV0.6
p1237
aVnr
p1238
aV0.5
p1239
aVnr
p1240
aVnr
p1241
aVnr
p1242
aVnr
p1243
aVnr
p1244
aV0.0
p1245
aV0.7
p1246
aVnr
p1247
aVnr
p1248
aVnr
p1249
aVnr
p1250
aV0.5
p1251
aV0.6
p1252
aV0.7
p1253
aV0.5
p1254
aVnr
p1255
aV0.9
p1256
aVnr
p1257
aV0.7
p1258
aVnr
p1259
aVnr
p1260
aV0.2
p1261
aVnr
p1262
aVnr
p1263
aV0.6
p1264
aV0.5
p1265
aVnr
p1266
aV0.7
p1267
aV0.6
p1268
aVnr
p1269
aV0.4
p1270
aV1.2
p1271
aa(lp1272
V02-11-2016
p1273
aV21
p1274
aV0.1
p1275
aV0.2
p1276
aVnr
p1277
aVnr
p1278
aV0.5
p1279
aVnr
p1280
aV0.6
p1281
aVnr
p1282
aV0.4
p1283
aVnr
p1284
aV0.8
p1285
aV0.6
p1286
aVnr
p1287
aV0.5
p1288
aVnr
p1289
aVnr
p1290
aVnr
p1291
aVnr
p1292
aVnr
p1293
aV0.0
p1294
aV0.7
p1295
aVnr
p1296
aVnr
p1297
aVnr
p1298
aVnr
p1299
aV0.5
p1300
aV0.6
p1301
aV0.7
p1302
aV0.5
p1303
aVnr
p1304
aV0.9
p1305
aVnr
p1306
aV0.7
p1307
aVnr
p1308
aVnr
p1309
aV0.2
p1310
aVnr
p1311
aVnr
p1312
aV0.6
p1313
aV0.5
p1314
aVnr
p1315
aV0.7
p1316
aV0.6
p1317
aVnr
p1318
aV0.4
p1319
aV1.2
p1320
aa(lp1321
V02-11-2016
p1322
aV21
p1323
aV0.1
p1324
aV0.2
p1325
aVnr
p1326
aVnr
p1327
aV0.5
p1328
aVnr
p1329
aV0.6
p1330
aVnr
p1331
aV0.4
p1332
aVnr
p1333
aV0.8
p1334
aV0.6
p1335
aVnr
p1336
aV0.5
p1337
aVnr
p1338
aVnr
p1339
aVnr
p1340
aVnr
p1341
aVnr
p1342
aV0.0
p1343
aV0.7
p1344
aVnr
p1345
aVnr
p1346
aVnr
p1347
aVnr
p1348
aV0.5
p1349
aV0.6
p1350
aV0.7
p1351
aV0.5
p1352
aVnr
p1353
aV0.9
p1354
aVnr
p1355
aV0.7
p1356
aVnr
p1357
aVnr
p1358
aV0.2
p1359
aVnr
p1360
aVnr
p1361
aV0.6
p1362
aV0.5
p1363
aVnr
p1364
aV0.7
p1365
aV0.6
p1366
aVnr
p1367
aV0.4
p1368
aV1.2
p1369
aa(lp1370
V02-11-2016
p1371
aV21
p1372
aV0.1
p1373
aV0.2
p1374
aVnr
p1375
aVnr
p1376
aV0.5
p1377
aVnr
p1378
aV0.6
p1379
aVnr
p1380
aV0.4
p1381
aVnr
p1382
aV0.8
p1383
aV0.6
p1384
aVnr
p1385
aV0.5
p1386
aVnr
p1387
aVnr
p1388
aVnr
p1389
aVnr
p1390
aVnr
p1391
aV0.0
p1392
aV0.7
p1393
aVnr
p1394
aVnr
p1395
aVnr
p1396
aVnr
p1397
aV0.5
p1398
aV0.6
p1399
aV0.7
p1400
aV0.5
p1401
aVnr
p1402
aV0.9
p1403
aVnr
p1404
aV0.7
p1405
aVnr
p1406
aVnr
p1407
aV0.2
p1408
aVnr
p1409
aVnr
p1410
aV0.6
p1411
aV0.5
p1412
aVnr
p1413
aV0.7
p1414
aV0.6
p1415
aVnr
p1416
aV0.4
p1417
aV1.2
p1418
aa(lp1419
V02-11-2016
p1420
aV22
p1421
aV0.3
p1422
aV0.2
p1423
aVnr
p1424
aVnr
p1425
aV0.6
p1426
aVnr
p1427
aV0.7
p1428
aVnr
p1429
aV0.6
p1430
aVnr
p1431
aV0.9
p1432
aV0.6
p1433
aVnr
p1434
aV0.5
p1435
aVnr
p1436
aVnr
p1437
aVnr
p1438
aVnr
p1439
aVnr
p1440
aV0.1
p1441
aV0.8
p1442
aVnr
p1443
aVnr
p1444
aV0.8
p1445
aVnr
p1446
aVnr
p1447
aV0.5
p1448
aV0.5
p1449
aV0.5
p1450
aVnr
p1451
aV0.9
p1452
aVnr
p1453
aVnr
p1454
aVnr
p1455
aVnr
p1456
aV0.2
p1457
aVnr
p1458
aVnr
p1459
aV0.6
p1460
aV0.4
p1461
aVnr
p1462
aV0.5
p1463
aV0.6
p1464
aVnr
p1465
aV0.5
p1466
aV1.0
p1467
aa(lp1468
V02-11-2016
p1469
aV22
p1470
aV0.3
p1471
aV0.2
p1472
aVnr
p1473
aVnr
p1474
aV0.6
p1475
aVnr
p1476
aV0.7
p1477
aVnr
p1478
aV0.6
p1479
aVnr
p1480
aV0.9
p1481
aV0.6
p1482
aVnr
p1483
aV0.5
p1484
aVnr
p1485
aVnr
p1486
aVnr
p1487
aVnr
p1488
aVnr
p1489
aV0.1
p1490
aV0.8
p1491
aVnr
p1492
aVnr
p1493
aV0.8
p1494
aVnr
p1495
aVnr
p1496
aV0.5
p1497
aV0.5
p1498
aV0.5
p1499
aVnr
p1500
aV0.9
p1501
aVnr
p1502
aVnr
p1503
aVnr
p1504
aVnr
p1505
aV0.2
p1506
aVnr
p1507
aVnr
p1508
aV0.6
p1509
aV0.4
p1510
aVnr
p1511
aV0.5
p1512
aV0.6
p1513
aVnr
p1514
aV0.5
p1515
aV1.0
p1516
aa(lp1517
V02-11-2016
p1518
aV22
p1519
aV0.3
p1520
aV0.2
p1521
aVnr
p1522
aVnr
p1523
aV0.6
p1524
aVnr
p1525
aV0.7
p1526
aVnr
p1527
aV0.6
p1528
aVnr
p1529
aV0.9
p1530
aV0.6
p1531
aVnr
p1532
aV0.5
p1533
aVnr
p1534
aVnr
p1535
aVnr
p1536
aVnr
p1537
aVnr
p1538
aV0.1
p1539
aV0.8
p1540
aVnr
p1541
aVnr
p1542
aV0.8
p1543
aVnr
p1544
aVnr
p1545
aV0.5
p1546
aV0.5
p1547
aV0.5
p1548
aVnr
p1549
aV0.9
p1550
aVnr
p1551
aVnr
p1552
aVnr
p1553
aVnr
p1554
aV0.2
p1555
aVnr
p1556
aVnr
p1557
aV0.6
p1558
aV0.4
p1559
aVnr
p1560
aV0.5
p1561
aV0.6
p1562
aVnr
p1563
aV0.5
p1564
aV1.0
p1565
aa(lp1566
V02-11-2016
p1567
aV23
p1568
aV0.5
p1569
aV0.2
p1570
aVnr
p1571
aVnr
p1572
aV0.7
p1573
aVnr
p1574
aV0.9
p1575
aVnr
p1576
aV0.6
p1577
aVnr
p1578
aV0.8
p1579
aV1.0
p1580
aVnr
p1581
aV0.6
p1582
aVnr
p1583
aVnr
p1584
aVnr
p1585
aVnr
p1586
aVnr
p1587
aV0.1
p1588
aV1.0
p1589
aVnr
p1590
aVnr
p1591
aV0.7
p1592
aVnr
p1593
aV0.7
p1594
aV0.2
p1595
aV0.6
p1596
aV0.4
p1597
aVnr
p1598
aV0.9
p1599
aVnr
p1600
aV0.7
p1601
aVnr
p1602
aVnr
p1603
aV0.3
p1604
aVnr
p1605
aVnr
p1606
aV0.6
p1607
aV0.4
p1608
aVnr
p1609
aV0.8
p1610
aV0.8
p1611
aVnr
p1612
aV0.5
p1613
aV1.1
p1614
aa(lp1615
V02-11-2016
p1616
aV23
p1617
aV0.5
p1618
aV0.2
p1619
aVnr
p1620
aVnr
p1621
aV0.7
p1622
aVnr
p1623
aV0.9
p1624
aVnr
p1625
aV0.6
p1626
aVnr
p1627
aV0.8
p1628
aV1.0
p1629
aVnr
p1630
aV0.6
p1631
aVnr
p1632
aVnr
p1633
aVnr
p1634
aVnr
p1635
aVnr
p1636
aV0.1
p1637
aV1.0
p1638
aVnr
p1639
aVnr
p1640
aV0.7
p1641
aVnr
p1642
aV0.7
p1643
aV0.2
p1644
aV0.6
p1645
aV0.4
p1646
aVnr
p1647
aV0.9
p1648
aVnr
p1649
aV0.7
p1650
aVnr
p1651
aVnr
p1652
aV0.3
p1653
aVnr
p1654
aVnr
p1655
aV0.6
p1656
aV0.4
p1657
aVnr
p1658
aV0.8
p1659
aV0.8
p1660
aVnr
p1661
aV0.5
p1662
aV1.1
p1663
aa(lp1664
V02-11-2016
p1665
aV23
p1666
aV0.5
p1667
aV0.2
p1668
aVnr
p1669
aVnr
p1670
aV0.7
p1671
aVnr
p1672
aV0.9
p1673
aVnr
p1674
aV0.6
p1675
aVnr
p1676
aV0.8
p1677
aV1.0
p1678
aVnr
p1679
aV0.6
p1680
aVnr
p1681
aVnr
p1682
aVnr
p1683
aVnr
p1684
aVnr
p1685
aV0.1
p1686
aV1.0
p1687
aVnr
p1688
aVnr
p1689
aV0.7
p1690
aVnr
p1691
aV0.7
p1692
aV0.2
p1693
aV0.6
p1694
aV0.4
p1695
aVnr
p1696
aV0.9
p1697
aVnr
p1698
aV0.7
p1699
aVnr
p1700
aVnr
p1701
aV0.3
p1702
aVnr
p1703
aVnr
p1704
aV0.6
p1705
aV0.4
p1706
aVnr
p1707
aV0.8
p1708
aV0.8
p1709
aVnr
p1710
aV0.5
p1711
aV1.1
p1712
aa(lp1713
V02-11-2016
p1714
aV23
p1715
aV0.5
p1716
aV0.2
p1717
aVnr
p1718
aVnr
p1719
aV0.7
p1720
aVnr
p1721
aV0.9
p1722
aVnr
p1723
aV0.6
p1724
aVnr
p1725
aV0.8
p1726
aV1.0
p1727
aVnr
p1728
aV0.6
p1729
aVnr
p1730
aVnr
p1731
aVnr
p1732
aVnr
p1733
aVnr
p1734
aV0.1
p1735
aV1.0
p1736
aVnr
p1737
aVnr
p1738
aV0.7
p1739
aVnr
p1740
aV0.7
p1741
aV0.2
p1742
aV0.6
p1743
aV0.4
p1744
aVnr
p1745
aV0.9
p1746
aVnr
p1747
aV0.7
p1748
aVnr
p1749
aVnr
p1750
aV0.3
p1751
aVnr
p1752
aVnr
p1753
aV0.6
p1754
aV0.4
p1755
aVnr
p1756
aV0.8
p1757
aV0.8
p1758
aVnr
p1759
aV0.5
p1760
aV1.1
p1761
aa(lp1762
V02-11-2016
p1763
aV24
p1764
aV0.5
p1765
aV0.3
p1766
aVnr
p1767
aVnr
p1768
aV0.4
p1769
aVnr
p1770
aV1.0
p1771
aVnr
p1772
aV0.6
p1773
aVnr
p1774
aV0.7
p1775
aV0.9
p1776
aVnr
p1777
aV0.6
p1778
aVnr
p1779
aVnr
p1780
aVnr
p1781
aVnr
p1782
aVnr
p1783
aV0.1
p1784
aV1.3
p1785
aVnr
p1786
aVnr
p1787
aV0.7
p1788
aVnr
p1789
aV0.7
p1790
aV0.3
p1791
aV0.6
p1792
aV0.5
p1793
aVnr
p1794
aV0.9
p1795
aVnr
p1796
aV0.8
p1797
aVnr
p1798
aVnr
p1799
aV0.5
p1800
aVnr
p1801
aVnr
p1802
aV0.9
p1803
aV0.3
p1804
aVnr
p1805
aV0.8
p1806
aV0.9
p1807
aVnr
p1808
aV0.6
p1809
aV1.2
p1810
aa(lp1811
V05-11-2016
p1812
aV8
aVnr
p1813
aV0.4
p1814
aVnr
p1815
aVnr
p1816
aV0.4
p1817
aVnr
p1818
aV0.6
p1819
aV0.7
p1820
aV0.5
p1821
aVnr
p1822
aV0.4
p1823
aV0.7
p1824
aVnr
p1825
aV0.4
p1826
aVnr
p1827
aV0.3
p1828
aVnr
p1829
aV0.2
p1830
aVnr
p1831
aV0.0
p1832
aV0.7
p1833
aVnr
p1834
aVnr
p1835
aVnr
p1836
aV1.2
p1837
aV0.6
p1838
aV0.3
p1839
aV0.4
p1840
aV0.5
p1841
aVnr
p1842
aV0.6
p1843
aVnr
p1844
aV0.6
p1845
aVnr
p1846
aVnr
p1847
aV0.4
p1848
aVnr
p1849
aVnr
p1850
aV0.7
p1851
aV0.0
p1852
aVnr
p1853
aV0.3
p1854
aV0.6
p1855
aVnr
p1856
aV0.3
p1857
aV0.5
p1858
aa(lp1859
V05-11-2016
p1860
aV9
aVnr
p1861
aV0.3
p1862
aVnr
p1863
aVnr
p1864
aV0.2
p1865
aVnr
p1866
aV0.5
p1867
aV0.6
p1868
aV0.4
p1869
aVnr
p1870
aV0.3
p1871
aV0.5
p1872
aVnr
p1873
aV0.4
p1874
aVnr
p1875
aV0.2
p1876
aVnr
p1877
aV0.2
p1878
aVnr
p1879
aV0.0
p1880
aV0.7
p1881
aVnr
p1882
aVnr
p1883
aV0.5
p1884
aV1.0
p1885
aV0.5
p1886
aV0.3
p1887
aV0.3
p1888
aV0.4
p1889
aVnr
p1890
aV0.7
p1891
aVnr
p1892
aV0.6
p1893
aVnr
p1894
aVnr
p1895
aV0.4
p1896
aVnr
p1897
aVnr
p1898
aV0.7
p1899
aV0.1
p1900
aVnr
p1901
aV0.3
p1902
aV0.6
p1903
aVnr
p1904
aV0.3
p1905
aV0.6
p1906
aa(lp1907
V07-11-2016
p1908
aV8
aV0.7
p1909
aV0.6
p1910
aVnr
p1911
aVnr
p1912
aV1.9
p1913
aVnr
p1914
aV1.7
p1915
aV2.5
p1916
aV1.4
p1917
aVnr
p1918
aV2.1
p1919
aV2.3
p1920
aVnr
p1921
aV1.4
p1922
aVnr
p1923
aV3.1
p1924
aVnr
p1925
aV1.6
p1926
aVnr
p1927
aV0.0
p1928
aV2.3
p1929
aVnr
p1930
aVnr
p1931
aV2.3
p1932
aV2.2
p1933
aV2.0
p1934
aV0.5
p1935
aV1.1
p1936
aV1.2
p1937
aVnr
p1938
aV2.0
p1939
aVnr
p1940
aV2.5
p1941
aVnr
p1942
aVnr
p1943
aV1.1
p1944
aVnr
p1945
aVnr
p1946
aV2.3
p1947
aV1.8
p1948
aVnr
p1949
aV1.3
p1950
aV1.2
p1951
aVnr
p1952
aV1.2
p1953
aV3.4
p1954
aa(lp1955
V08-11-2016
p1956
aV12
p1957
aV0.2
p1958
aV0.9
p1959
aVnr
p1960
aVnr
p1961
aV0.3
p1962
aVnr
p1963
aV1.1
p1964
aV0.8
p1965
aV1.4
p1966
aVnr
p1967
aV0.4
p1968
aV0.8
p1969
aVnr
p1970
aV1.1
p1971
aVnr
p1972
aV0.8
p1973
aVnr
p1974
aV0.4
p1975
aVnr
p1976
aV0.3
p1977
aV1.3
p1978
aVnr
p1979
aVnr
p1980
aV1.0
p1981
aV1.1
p1982
aV1.2
p1983
aV0.5
p1984
aV0.4
p1985
aV1.2
p1986
aVnr
p1987
aV1.1
p1988
aVnr
p1989
aV1.0
p1990
aVnr
p1991
aVnr
p1992
aV0.6
p1993
aVnr
p1994
aVnr
p1995
aV0.8
p1996
aV0.3
p1997
aVnr
p1998
aV0.9
p1999
aV0.7
p2000
aVnr
p2001
aV0.4
p2002
aV1.4
p2003
aa(lp2004
V09-11-2016
p2005
aV12
p2006
aV0.2
p2007
aV0.8
p2008
aVnr
p2009
aVnr
p2010
aV0.3
p2011
aVnr
p2012
aV0.8
p2013
aV0.7
p2014
aV0.9
p2015
aVnr
p2016
aV0.4
p2017
aVnr
p2018
aVnr
p2019
aV0.7
p2020
aVnr
p2021
aV0.6
p2022
aVnr
p2023
aV0.1
p2024
aVnr
p2025
aV0.3
p2026
aV1.2
p2027
aVnr
p2028
aVnr
p2029
aVnr
p2030
aV1.0
p2031
aV0.9
p2032
aV0.5
p2033
aV0.5
p2034
aV0.8
p2035
aVnr
p2036
aV0.6
p2037
aVnr
p2038
aV0.9
p2039
aVnr
p2040
aVnr
p2041
aV0.6
p2042
aVnr
p2043
aVnr
p2044
aV0.8
p2045
aV0.1
p2046
aVnr
p2047
aV0.7
p2048
aV0.9
p2049
aVnr
p2050
aV0.2
p2051
aV0.7
p2052
aa(lp2053
V09-11-2016
p2054
aV13
p2055
aV0.2
p2056
aV0.6
p2057
aVnr
p2058
aVnr
p2059
aV0.3
p2060
aVnr
p2061
aV0.8
p2062
aV0.7
p2063
aV0.9
p2064
aVnr
p2065
aV0.4
p2066
aVnr
p2067
aVnr
p2068
aV0.8
p2069
aVnr
p2070
aV0.7
p2071
aVnr
p2072
aV0.1
p2073
aVnr
p2074
aV0.3
p2075
aV1.1
p2076
aVnr
p2077
aVnr
p2078
aV0.8
p2079
aV0.9
p2080
aV0.8
p2081
aV0.6
p2082
aV0.4
p2083
aV0.8
p2084
aVnr
p2085
aVnr
p2086
aVnr
p2087
aV0.8
p2088
aVnr
p2089
aVnr
p2090
aV0.7
p2091
aVnr
p2092
aVnr
p2093
aV0.8
p2094
aV0.1
p2095
aVnr
p2096
aV0.7
p2097
aV0.9
p2098
aVnr
p2099
aV0.3
p2100
aV0.8
p2101
aa(lp2102
V09-11-2016
p2103
aV14
p2104
aV0.2
p2105
aV0.8
p2106
aVnr
p2107
aVnr
p2108
aV0.3
p2109
aVnr
p2110
aV1.0
p2111
aV0.8
p2112
aV0.9
p2113
aVnr
p2114
aV0.3
p2115
aVnr
p2116
aVnr
p2117
aV0.9
p2118
aVnr
p2119
aV0.7
p2120
aVnr
p2121
aV0.1
p2122
aVnr
p2123
aV0.4
p2124
aV1.1
p2125
aVnr
p2126
aVnr
p2127
aV0.9
p2128
aV0.8
p2129
aV0.9
p2130
aV0.6
p2131
aV0.5
p2132
aV0.9
p2133
aVnr
p2134
aVnr
p2135
aVnr
p2136
aV0.8
p2137
aVnr
p2138
aVnr
p2139
aV0.7
p2140
aVnr
p2141
aVnr
p2142
aV0.7
p2143
aV0.2
p2144
aVnr
p2145
aV0.7
p2146
aV1.0
p2147
aVnr
p2148
aV0.3
p2149
aV0.8
p2150
aasS'pm2'
p2151
(lp2152
(lp2153
V02-11-2016
p2154
aV21
p2155
aVnr
p2156
aV9
aV3
aVnr
p2157
aV17
p2158
aVnr
p2159
aV11
p2160
aVnr
p2161
aVnr
p2162
aV23
p2163
aVnr
p2164
aVnr
p2165
aVnr
p2166
aVnr
p2167
aV21
p2168
aV14
p2169
aVnr
p2170
aVnr
p2171
aVnr
p2172
aVnr
p2173
aV13
p2174
aV28
p2175
aVnr
p2176
aVnr
p2177
aV12
p2178
aVnr
p2179
aVnr
p2180
aVnr
p2181
aVnr
p2182
aVnr
p2183
aV13
p2184
aVnr
p2185
aVnr
p2186
aV22
p2187
aVnr
p2188
aVnr
p2189
aV7
aa(lp2190
V02-11-2016
p2191
aV21
p2192
aVnr
p2193
aV9
aV3
aVnr
p2194
aV17
p2195
aVnr
p2196
aV11
p2197
aVnr
p2198
aVnr
p2199
aV23
p2200
aVnr
p2201
aVnr
p2202
aVnr
p2203
aVnr
p2204
aV21
p2205
aV14
p2206
aVnr
p2207
aVnr
p2208
aVnr
p2209
aVnr
p2210
aV13
p2211
aV28
p2212
aVnr
p2213
aVnr
p2214
aV12
p2215
aVnr
p2216
aVnr
p2217
aVnr
p2218
aVnr
p2219
aVnr
p2220
aV13
p2221
aVnr
p2222
aVnr
p2223
aV22
p2224
aVnr
p2225
aVnr
p2226
aV7
aa(lp2227
V02-11-2016
p2228
aV21
p2229
aVnr
p2230
aV9
aV3
aVnr
p2231
aV17
p2232
aVnr
p2233
aV11
p2234
aVnr
p2235
aVnr
p2236
aV23
p2237
aVnr
p2238
aVnr
p2239
aVnr
p2240
aVnr
p2241
aV21
p2242
aV14
p2243
aVnr
p2244
aVnr
p2245
aVnr
p2246
aVnr
p2247
aV13
p2248
aV28
p2249
aVnr
p2250
aVnr
p2251
aV12
p2252
aVnr
p2253
aVnr
p2254
aVnr
p2255
aVnr
p2256
aVnr
p2257
aV13
p2258
aVnr
p2259
aVnr
p2260
aV22
p2261
aVnr
p2262
aVnr
p2263
aV7
aa(lp2264
V02-11-2016
p2265
aV21
p2266
aVnr
p2267
aV9
aV3
aVnr
p2268
aV17
p2269
aVnr
p2270
aV11
p2271
aVnr
p2272
aVnr
p2273
aV23
p2274
aVnr
p2275
aVnr
p2276
aVnr
p2277
aVnr
p2278
aV21
p2279
aV14
p2280
aVnr
p2281
aVnr
p2282
aVnr
p2283
aVnr
p2284
aV13
p2285
aV28
p2286
aVnr
p2287
aVnr
p2288
aV12
p2289
aVnr
p2290
aVnr
p2291
aVnr
p2292
aVnr
p2293
aVnr
p2294
aV13
p2295
aVnr
p2296
aVnr
p2297
aV22
p2298
aVnr
p2299
aVnr
p2300
aV7
aa(lp2301
V02-11-2016
p2302
aV21
p2303
aVnr
p2304
aV9
aV3
aVnr
p2305
aV17
p2306
aVnr
p2307
aV11
p2308
aVnr
p2309
aVnr
p2310
aV23
p2311
aVnr
p2312
aVnr
p2313
aVnr
p2314
aVnr
p2315
aV21
p2316
aV14
p2317
aVnr
p2318
aVnr
p2319
aVnr
p2320
aVnr
p2321
aV13
p2322
aV28
p2323
aVnr
p2324
aVnr
p2325
aV12
p2326
aVnr
p2327
aVnr
p2328
aVnr
p2329
aVnr
p2330
aVnr
p2331
aV13
p2332
aVnr
p2333
aVnr
p2334
aV22
p2335
aVnr
p2336
aVnr
p2337
aV7
aa(lp2338
V02-11-2016
p2339
aV21
p2340
aVnr
p2341
aV9
aV3
aVnr
p2342
aV17
p2343
aVnr
p2344
aV11
p2345
aVnr
p2346
aVnr
p2347
aV23
p2348
aVnr
p2349
aVnr
p2350
aVnr
p2351
aVnr
p2352
aV21
p2353
aV14
p2354
aVnr
p2355
aVnr
p2356
aVnr
p2357
aVnr
p2358
aV13
p2359
aV28
p2360
aVnr
p2361
aVnr
p2362
aV12
p2363
aVnr
p2364
aVnr
p2365
aVnr
p2366
aVnr
p2367
aVnr
p2368
aV13
p2369
aVnr
p2370
aVnr
p2371
aV22
p2372
aVnr
p2373
aVnr
p2374
aV7
aa(lp2375
V02-11-2016
p2376
aV21
p2377
aVnr
p2378
aV9
aV3
aVnr
p2379
aV17
p2380
aVnr
p2381
aV11
p2382
aVnr
p2383
aVnr
p2384
aV23
p2385
aVnr
p2386
aVnr
p2387
aVnr
p2388
aVnr
p2389
aV21
p2390
aV14
p2391
aVnr
p2392
aVnr
p2393
aVnr
p2394
aVnr
p2395
aV13
p2396
aV28
p2397
aVnr
p2398
aVnr
p2399
aV12
p2400
aVnr
p2401
aVnr
p2402
aVnr
p2403
aVnr
p2404
aVnr
p2405
aV13
p2406
aVnr
p2407
aVnr
p2408
aV22
p2409
aVnr
p2410
aVnr
p2411
aV7
aa(lp2412
V02-11-2016
p2413
aV21
p2414
aVnr
p2415
aV9
aV3
aVnr
p2416
aV17
p2417
aVnr
p2418
aV11
p2419
aVnr
p2420
aVnr
p2421
aV23
p2422
aVnr
p2423
aVnr
p2424
aVnr
p2425
aVnr
p2426
aV21
p2427
aV14
p2428
aVnr
p2429
aVnr
p2430
aVnr
p2431
aVnr
p2432
aV13
p2433
aV28
p2434
aVnr
p2435
aVnr
p2436
aV12
p2437
aVnr
p2438
aVnr
p2439
aVnr
p2440
aVnr
p2441
aVnr
p2442
aV13
p2443
aVnr
p2444
aVnr
p2445
aV22
p2446
aVnr
p2447
aVnr
p2448
aV7
aa(lp2449
V02-11-2016
p2450
aV22
p2451
aVnr
p2452
aV5
aV6
aVnr
p2453
aV15
p2454
aVnr
p2455
aV6
aVnr
p2456
aVnr
p2457
aV20
p2458
aVnr
p2459
aVnr
p2460
aVnr
p2461
aVnr
p2462
aV21
p2463
aV7
aVnr
p2464
aVnr
p2465
aVnr
p2466
aVnr
p2467
aVnr
p2468
aV39
p2469
aVnr
p2470
aVnr
p2471
aV15
p2472
aVnr
p2473
aVnr
p2474
aVnr
p2475
aVnr
p2476
aVnr
p2477
aV15
p2478
aVnr
p2479
aVnr
p2480
aV18
p2481
aVnr
p2482
aVnr
p2483
aV20
p2484
aa(lp2485
V02-11-2016
p2486
aV22
p2487
aVnr
p2488
aV5
aV6
aVnr
p2489
aV15
p2490
aVnr
p2491
aV6
aVnr
p2492
aVnr
p2493
aV20
p2494
aVnr
p2495
aVnr
p2496
aVnr
p2497
aVnr
p2498
aV21
p2499
aV7
aVnr
p2500
aVnr
p2501
aVnr
p2502
aVnr
p2503
aVnr
p2504
aV39
p2505
aVnr
p2506
aVnr
p2507
aV15
p2508
aVnr
p2509
aVnr
p2510
aVnr
p2511
aVnr
p2512
aVnr
p2513
aV15
p2514
aVnr
p2515
aVnr
p2516
aV18
p2517
aVnr
p2518
aVnr
p2519
aV20
p2520
aa(lp2521
V02-11-2016
p2522
aV22
p2523
aVnr
p2524
aV5
aV6
aVnr
p2525
aV15
p2526
aVnr
p2527
aV6
aVnr
p2528
aVnr
p2529
aV20
p2530
aVnr
p2531
aVnr
p2532
aVnr
p2533
aVnr
p2534
aV21
p2535
aV7
aVnr
p2536
aVnr
p2537
aVnr
p2538
aVnr
p2539
aVnr
p2540
aV39
p2541
aVnr
p2542
aVnr
p2543
aV15
p2544
aVnr
p2545
aVnr
p2546
aVnr
p2547
aVnr
p2548
aVnr
p2549
aV15
p2550
aVnr
p2551
aVnr
p2552
aV18
p2553
aVnr
p2554
aVnr
p2555
aV20
p2556
aa(lp2557
V02-11-2016
p2558
aV23
p2559
aVnr
p2560
aV2
aV4
aVnr
p2561
aV12
p2562
aVnr
p2563
aV8
aVnr
p2564
aVnr
p2565
aV17
p2566
aVnr
p2567
aVnr
p2568
aVnr
p2569
aVnr
p2570
aV17
p2571
aV7
aVnr
p2572
aVnr
p2573
aVnr
p2574
aVnr
p2575
aV9
aV30
p2576
aVnr
p2577
aVnr
p2578
aV20
p2579
aVnr
p2580
aVnr
p2581
aVnr
p2582
aVnr
p2583
aVnr
p2584
aV14
p2585
aVnr
p2586
aVnr
p2587
aV21
p2588
aVnr
p2589
aVnr
p2590
aV21
p2591
aa(lp2592
V02-11-2016
p2593
aV23
p2594
aVnr
p2595
aV2
aV4
aVnr
p2596
aV12
p2597
aVnr
p2598
aV8
aVnr
p2599
aVnr
p2600
aV17
p2601
aVnr
p2602
aVnr
p2603
aVnr
p2604
aVnr
p2605
aV17
p2606
aV7
aVnr
p2607
aVnr
p2608
aVnr
p2609
aVnr
p2610
aV9
aV30
p2611
aVnr
p2612
aVnr
p2613
aV20
p2614
aVnr
p2615
aVnr
p2616
aVnr
p2617
aVnr
p2618
aVnr
p2619
aV14
p2620
aVnr
p2621
aVnr
p2622
aV21
p2623
aVnr
p2624
aVnr
p2625
aV21
p2626
aa(lp2627
V02-11-2016
p2628
aV23
p2629
aVnr
p2630
aV2
aV4
aVnr
p2631
aV12
p2632
aVnr
p2633
aV8
aVnr
p2634
aVnr
p2635
aV17
p2636
aVnr
p2637
aVnr
p2638
aVnr
p2639
aVnr
p2640
aV17
p2641
aV7
aVnr
p2642
aVnr
p2643
aVnr
p2644
aVnr
p2645
aV9
aV30
p2646
aVnr
p2647
aVnr
p2648
aV20
p2649
aVnr
p2650
aVnr
p2651
aVnr
p2652
aVnr
p2653
aVnr
p2654
aV14
p2655
aVnr
p2656
aVnr
p2657
aV21
p2658
aVnr
p2659
aVnr
p2660
aV21
p2661
aa(lp2662
V02-11-2016
p2663
aV23
p2664
aVnr
p2665
aV2
aV4
aVnr
p2666
aV12
p2667
aVnr
p2668
aV8
aVnr
p2669
aVnr
p2670
aV17
p2671
aVnr
p2672
aVnr
p2673
aVnr
p2674
aVnr
p2675
aV17
p2676
aV7
aVnr
p2677
aVnr
p2678
aVnr
p2679
aVnr
p2680
aV9
aV30
p2681
aVnr
p2682
aVnr
p2683
aV20
p2684
aVnr
p2685
aVnr
p2686
aVnr
p2687
aVnr
p2688
aVnr
p2689
aV14
p2690
aVnr
p2691
aVnr
p2692
aV21
p2693
aVnr
p2694
aVnr
p2695
aV21
p2696
aa(lp2697
V02-11-2016
p2698
aV24
p2699
aVnr
p2700
aV6
aV1
aVnr
p2701
aV11
p2702
aVnr
p2703
aV10
p2704
aVnr
p2705
aVnr
p2706
aV16
p2707
aVnr
p2708
aVnr
p2709
aVnr
p2710
aVnr
p2711
aV16
p2712
aV8
aVnr
p2713
aVnr
p2714
aVnr
p2715
aVnr
p2716
aV7
aV9
aVnr
p2717
aVnr
p2718
aV20
p2719
aVnr
p2720
aVnr
p2721
aVnr
p2722
aVnr
p2723
aVnr
p2724
aV17
p2725
aVnr
p2726
aVnr
p2727
aV5
aVnr
p2728
aVnr
p2729
aV14
p2730
aa(lp2731
V05-11-2016
p2732
aV8
aVnr
p2733
aV7
aV6
aVnr
p2734
aV7
aV17
p2735
aV9
aVnr
p2736
aVnr
p2737
aV7
aVnr
p2738
aVnr
p2739
aVnr
p2740
aVnr
p2741
aV14
p2742
aV4
aVnr
p2743
aVnr
p2744
aVnr
p2745
aV7
aV12
p2746
aV7
aV3
aVnr
p2747
aV5
aVnr
p2748
aVnr
p2749
aVnr
p2750
aVnr
p2751
aVnr
p2752
aV5
aVnr
p2753
aVnr
p2754
aV3
aVnr
p2755
aVnr
p2756
aV6
aa(lp2757
V05-11-2016
p2758
aV9
aVnr
p2759
aV8
aV4
aVnr
p2760
aV11
p2761
aV13
p2762
aV8
aVnr
p2763
aVnr
p2764
aV13
p2765
aVnr
p2766
aVnr
p2767
aVnr
p2768
aVnr
p2769
aV15
p2770
aV2
aVnr
p2771
aVnr
p2772
aVnr
p2773
aV30
p2774
aV8
aV8
aV7
aVnr
p2775
aV6
aVnr
p2776
aVnr
p2777
aVnr
p2778
aVnr
p2779
aVnr
p2780
aVnr
p2781
aVnr
p2782
aVnr
p2783
aV7
aVnr
p2784
aVnr
p2785
aV9
aa(lp2786
V07-11-2016
p2787
aV8
aVnr
p2788
aV7
aV8
aVnr
p2789
aV16
p2790
aVnr
p2791
aV10
p2792
aVnr
p2793
aVnr
p2794
aV18
p2795
aVnr
p2796
aVnr
p2797
aVnr
p2798
aVnr
p2799
aV24
p2800
aV18
p2801
aVnr
p2802
aVnr
p2803
aVnr
p2804
aV7
aV33
p2805
aV14
p2806
aV17
p2807
aVnr
p2808
aV24
p2809
aVnr
p2810
aVnr
p2811
aVnr
p2812
aVnr
p2813
aVnr
p2814
aV10
p2815
aVnr
p2816
aVnr
p2817
aV20
p2818
aVnr
p2819
aVnr
p2820
aV33
p2821
aa(lp2822
V08-11-2016
p2823
aV12
p2824
aVnr
p2825
aV52
p2826
aV36
p2827
aVnr
p2828
aV61
p2829
aV51
p2830
aV48
p2831
aVnr
p2832
aVnr
p2833
aV67
p2834
aVnr
p2835
aVnr
p2836
aVnr
p2837
aVnr
p2838
aV51
p2839
aV10
p2840
aVnr
p2841
aVnr
p2842
aVnr
p2843
aV53
p2844
aV44
p2845
aV34
p2846
aV35
p2847
aVnr
p2848
aV44
p2849
aVnr
p2850
aVnr
p2851
aVnr
p2852
aVnr
p2853
aVnr
p2854
aV41
p2855
aVnr
p2856
aVnr
p2857
aV43
p2858
aVnr
p2859
aVnr
p2860
aV61
p2861
aa(lp2862
V09-11-2016
p2863
aV12
p2864
aVnr
p2865
aV16
p2866
aV12
p2867
aVnr
p2868
aV24
p2869
aVnr
p2870
aV23
p2871
aVnr
p2872
aVnr
p2873
aV25
p2874
aVnr
p2875
aVnr
p2876
aVnr
p2877
aVnr
p2878
aV24
p2879
aV11
p2880
aVnr
p2881
aVnr
p2882
aVnr
p2883
aV31
p2884
aV23
p2885
aV13
p2886
aV8
aVnr
p2887
aV18
p2888
aVnr
p2889
aVnr
p2890
aVnr
p2891
aVnr
p2892
aVnr
p2893
aV6
aVnr
p2894
aVnr
p2895
aV23
p2896
aVnr
p2897
aVnr
p2898
aV12
p2899
aa(lp2900
V09-11-2016
p2901
aV13
p2902
aVnr
p2903
aV26
p2904
aV10
p2905
aVnr
p2906
aV24
p2907
aVnr
p2908
aV18
p2909
aVnr
p2910
aVnr
p2911
aV27
p2912
aVnr
p2913
aVnr
p2914
aVnr
p2915
aVnr
p2916
aV21
p2917
aV13
p2918
aVnr
p2919
aVnr
p2920
aVnr
p2921
aV29
p2922
aV21
p2923
aV22
p2924
aV8
aVnr
p2925
aV10
p2926
aVnr
p2927
aVnr
p2928
aVnr
p2929
aVnr
p2930
aVnr
p2931
aV22
p2932
aVnr
p2933
aVnr
p2934
aV30
p2935
aVnr
p2936
aVnr
p2937
aV21
p2938
aa(lp2939
V09-11-2016
p2940
aV14
p2941
aVnr
p2942
aV23
p2943
aV23
p2944
aVnr
p2945
aV28
p2946
aVnr
p2947
aV21
p2948
aVnr
p2949
aVnr
p2950
aV29
p2951
aVnr
p2952
aVnr
p2953
aVnr
p2954
aVnr
p2955
aV27
p2956
aV21
p2957
aVnr
p2958
aVnr
p2959
aVnr
p2960
aV32
p2961
aV26
p2962
aV25
p2963
aV9
aVnr
p2964
aV11
p2965
aVnr
p2966
aVnr
p2967
aVnr
p2968
aVnr
p2969
aVnr
p2970
aV22
p2971
aVnr
p2972
aVnr
p2973
aV14
p2974
aVnr
p2975
aVnr
p2976
aV14
p2977
aasS'pm10'
p2978
(lp2979
(lp2980
V02-11-2016
p2981
aV21
p2982
aV27
p2983
aV12
p2984
aVnr
p2985
aV24
p2986
aV22
p2987
aVnr
p2988
aVnr
p2989
aVnr
p2990
aVnr
p2991
aV46
p2992
aVnr
p2993
aV17
p2994
aV41
p2995
aVnr
p2996
aVnr
p2997
aV26
p2998
aV16
p2999
aV29
p3000
aVnr
p3001
aVnr
p3002
aVnr
p3003
aVnr
p3004
aV17
p3005
aV33
p3006
aVnr
p3007
aVnr
p3008
aVnr
p3009
aV27
p3010
aVnr
p3011
aVnr
p3012
aVnr
p3013
aVnr
p3014
aVnr
p3015
aVnr
p3016
aV21
p3017
aV33
p3018
aVnr
p3019
aVnr
p3020
aVnr
p3021
aV41
p3022
aV32
p3023
aa(lp3024
V02-11-2016
p3025
aV21
p3026
aV27
p3027
aV12
p3028
aVnr
p3029
aV24
p3030
aV22
p3031
aVnr
p3032
aVnr
p3033
aVnr
p3034
aVnr
p3035
aV46
p3036
aVnr
p3037
aV17
p3038
aV41
p3039
aVnr
p3040
aVnr
p3041
aV26
p3042
aV16
p3043
aV29
p3044
aVnr
p3045
aVnr
p3046
aVnr
p3047
aVnr
p3048
aV17
p3049
aV33
p3050
aVnr
p3051
aVnr
p3052
aVnr
p3053
aV27
p3054
aVnr
p3055
aVnr
p3056
aVnr
p3057
aVnr
p3058
aVnr
p3059
aVnr
p3060
aV21
p3061
aV33
p3062
aVnr
p3063
aVnr
p3064
aVnr
p3065
aV41
p3066
aV32
p3067
aa(lp3068
V02-11-2016
p3069
aV21
p3070
aV27
p3071
aV12
p3072
aVnr
p3073
aV24
p3074
aV22
p3075
aVnr
p3076
aVnr
p3077
aVnr
p3078
aVnr
p3079
aV46
p3080
aVnr
p3081
aV17
p3082
aV41
p3083
aVnr
p3084
aVnr
p3085
aV26
p3086
aV16
p3087
aV29
p3088
aVnr
p3089
aVnr
p3090
aVnr
p3091
aVnr
p3092
aV17
p3093
aV33
p3094
aVnr
p3095
aVnr
p3096
aVnr
p3097
aV27
p3098
aVnr
p3099
aVnr
p3100
aVnr
p3101
aVnr
p3102
aVnr
p3103
aVnr
p3104
aV21
p3105
aV33
p3106
aVnr
p3107
aVnr
p3108
aVnr
p3109
aV41
p3110
aV32
p3111
aa(lp3112
V02-11-2016
p3113
aV21
p3114
aV27
p3115
aV12
p3116
aVnr
p3117
aV24
p3118
aV22
p3119
aVnr
p3120
aVnr
p3121
aVnr
p3122
aVnr
p3123
aV46
p3124
aVnr
p3125
aV17
p3126
aV41
p3127
aVnr
p3128
aVnr
p3129
aV26
p3130
aV16
p3131
aV29
p3132
aVnr
p3133
aVnr
p3134
aVnr
p3135
aVnr
p3136
aV17
p3137
aV33
p3138
aVnr
p3139
aVnr
p3140
aVnr
p3141
aV27
p3142
aVnr
p3143
aVnr
p3144
aVnr
p3145
aVnr
p3146
aVnr
p3147
aVnr
p3148
aV21
p3149
aV33
p3150
aVnr
p3151
aVnr
p3152
aVnr
p3153
aV41
p3154
aV32
p3155
aa(lp3156
V02-11-2016
p3157
aV21
p3158
aV27
p3159
aV12
p3160
aVnr
p3161
aV24
p3162
aV22
p3163
aVnr
p3164
aVnr
p3165
aVnr
p3166
aVnr
p3167
aV46
p3168
aVnr
p3169
aV17
p3170
aV41
p3171
aVnr
p3172
aVnr
p3173
aV26
p3174
aV16
p3175
aV29
p3176
aVnr
p3177
aVnr
p3178
aVnr
p3179
aVnr
p3180
aV17
p3181
aV33
p3182
aVnr
p3183
aVnr
p3184
aVnr
p3185
aV27
p3186
aVnr
p3187
aVnr
p3188
aVnr
p3189
aVnr
p3190
aVnr
p3191
aVnr
p3192
aV21
p3193
aV33
p3194
aVnr
p3195
aVnr
p3196
aVnr
p3197
aV41
p3198
aV32
p3199
aa(lp3200
V02-11-2016
p3201
aV21
p3202
aV27
p3203
aV12
p3204
aVnr
p3205
aV24
p3206
aV22
p3207
aVnr
p3208
aVnr
p3209
aVnr
p3210
aVnr
p3211
aV46
p3212
aVnr
p3213
aV17
p3214
aV41
p3215
aVnr
p3216
aVnr
p3217
aV26
p3218
aV16
p3219
aV29
p3220
aVnr
p3221
aVnr
p3222
aVnr
p3223
aVnr
p3224
aV17
p3225
aV33
p3226
aVnr
p3227
aVnr
p3228
aVnr
p3229
aV27
p3230
aVnr
p3231
aVnr
p3232
aVnr
p3233
aVnr
p3234
aVnr
p3235
aVnr
p3236
aV21
p3237
aV33
p3238
aVnr
p3239
aVnr
p3240
aVnr
p3241
aV41
p3242
aV32
p3243
aa(lp3244
V02-11-2016
p3245
aV21
p3246
aV27
p3247
aV12
p3248
aVnr
p3249
aV24
p3250
aV22
p3251
aVnr
p3252
aVnr
p3253
aVnr
p3254
aVnr
p3255
aV46
p3256
aVnr
p3257
aV17
p3258
aV41
p3259
aVnr
p3260
aVnr
p3261
aV26
p3262
aV16
p3263
aV29
p3264
aVnr
p3265
aVnr
p3266
aVnr
p3267
aVnr
p3268
aV17
p3269
aV33
p3270
aVnr
p3271
aVnr
p3272
aVnr
p3273
aV27
p3274
aVnr
p3275
aVnr
p3276
aVnr
p3277
aVnr
p3278
aVnr
p3279
aVnr
p3280
aV21
p3281
aV33
p3282
aVnr
p3283
aVnr
p3284
aVnr
p3285
aV41
p3286
aV32
p3287
aa(lp3288
V02-11-2016
p3289
aV21
p3290
aV27
p3291
aV12
p3292
aVnr
p3293
aV24
p3294
aV22
p3295
aVnr
p3296
aVnr
p3297
aVnr
p3298
aVnr
p3299
aV46
p3300
aVnr
p3301
aV17
p3302
aV41
p3303
aVnr
p3304
aVnr
p3305
aV26
p3306
aV16
p3307
aV29
p3308
aVnr
p3309
aVnr
p3310
aVnr
p3311
aVnr
p3312
aV17
p3313
aV33
p3314
aVnr
p3315
aVnr
p3316
aVnr
p3317
aV27
p3318
aVnr
p3319
aVnr
p3320
aVnr
p3321
aVnr
p3322
aVnr
p3323
aVnr
p3324
aV21
p3325
aV33
p3326
aVnr
p3327
aVnr
p3328
aVnr
p3329
aV41
p3330
aV32
p3331
aa(lp3332
V02-11-2016
p3333
aV22
p3334
aV23
p3335
aV8
aVnr
p3336
aV31
p3337
aV19
p3338
aVnr
p3339
aVnr
p3340
aVnr
p3341
aVnr
p3342
aV11
p3343
aVnr
p3344
aV11
p3345
aV40
p3346
aVnr
p3347
aVnr
p3348
aV22
p3349
aV9
aV12
p3350
aVnr
p3351
aVnr
p3352
aVnr
p3353
aVnr
p3354
aVnr
p3355
aV43
p3356
aVnr
p3357
aVnr
p3358
aVnr
p3359
aV31
p3360
aVnr
p3361
aVnr
p3362
aVnr
p3363
aV36
p3364
aVnr
p3365
aVnr
p3366
aV21
p3367
aV32
p3368
aVnr
p3369
aVnr
p3370
aVnr
p3371
aV44
p3372
aV51
p3373
aa(lp3374
V02-11-2016
p3375
aV22
p3376
aV23
p3377
aV8
aVnr
p3378
aV31
p3379
aV19
p3380
aVnr
p3381
aVnr
p3382
aVnr
p3383
aVnr
p3384
aV11
p3385
aVnr
p3386
aV11
p3387
aV40
p3388
aVnr
p3389
aVnr
p3390
aV22
p3391
aV9
aV12
p3392
aVnr
p3393
aVnr
p3394
aVnr
p3395
aVnr
p3396
aVnr
p3397
aV43
p3398
aVnr
p3399
aVnr
p3400
aVnr
p3401
aV31
p3402
aVnr
p3403
aVnr
p3404
aVnr
p3405
aV36
p3406
aVnr
p3407
aVnr
p3408
aV21
p3409
aV32
p3410
aVnr
p3411
aVnr
p3412
aVnr
p3413
aV44
p3414
aV51
p3415
aa(lp3416
V02-11-2016
p3417
aV22
p3418
aV23
p3419
aV8
aVnr
p3420
aV31
p3421
aV19
p3422
aVnr
p3423
aVnr
p3424
aVnr
p3425
aVnr
p3426
aV11
p3427
aVnr
p3428
aV11
p3429
aV40
p3430
aVnr
p3431
aVnr
p3432
aV22
p3433
aV9
aV12
p3434
aVnr
p3435
aVnr
p3436
aVnr
p3437
aVnr
p3438
aVnr
p3439
aV43
p3440
aVnr
p3441
aVnr
p3442
aVnr
p3443
aV31
p3444
aVnr
p3445
aVnr
p3446
aVnr
p3447
aV36
p3448
aVnr
p3449
aVnr
p3450
aV21
p3451
aV32
p3452
aVnr
p3453
aVnr
p3454
aVnr
p3455
aV44
p3456
aV51
p3457
aa(lp3458
V02-11-2016
p3459
aV23
p3460
aV22
p3461
aV5
aVnr
p3462
aV33
p3463
aV17
p3464
aVnr
p3465
aVnr
p3466
aVnr
p3467
aVnr
p3468
aV9
aVnr
p3469
aV5
aV36
p3470
aVnr
p3471
aVnr
p3472
aV25
p3473
aV9
aV17
p3474
aVnr
p3475
aVnr
p3476
aVnr
p3477
aVnr
p3478
aV14
p3479
aV34
p3480
aVnr
p3481
aVnr
p3482
aVnr
p3483
aV34
p3484
aVnr
p3485
aVnr
p3486
aVnr
p3487
aVnr
p3488
aVnr
p3489
aVnr
p3490
aV22
p3491
aV32
p3492
aVnr
p3493
aVnr
p3494
aVnr
p3495
aV38
p3496
aV39
p3497
aa(lp3498
V02-11-2016
p3499
aV23
p3500
aV22
p3501
aV5
aVnr
p3502
aV33
p3503
aV17
p3504
aVnr
p3505
aVnr
p3506
aVnr
p3507
aVnr
p3508
aV9
aVnr
p3509
aV5
aV36
p3510
aVnr
p3511
aVnr
p3512
aV25
p3513
aV9
aV17
p3514
aVnr
p3515
aVnr
p3516
aVnr
p3517
aVnr
p3518
aV14
p3519
aV34
p3520
aVnr
p3521
aVnr
p3522
aVnr
p3523
aV34
p3524
aVnr
p3525
aVnr
p3526
aVnr
p3527
aVnr
p3528
aVnr
p3529
aVnr
p3530
aV22
p3531
aV32
p3532
aVnr
p3533
aVnr
p3534
aVnr
p3535
aV38
p3536
aV39
p3537
aa(lp3538
V02-11-2016
p3539
aV23
p3540
aV22
p3541
aV5
aVnr
p3542
aV33
p3543
aV17
p3544
aVnr
p3545
aVnr
p3546
aVnr
p3547
aVnr
p3548
aV9
aVnr
p3549
aV5
aV36
p3550
aVnr
p3551
aVnr
p3552
aV25
p3553
aV9
aV17
p3554
aVnr
p3555
aVnr
p3556
aVnr
p3557
aVnr
p3558
aV14
p3559
aV34
p3560
aVnr
p3561
aVnr
p3562
aVnr
p3563
aV34
p3564
aVnr
p3565
aVnr
p3566
aVnr
p3567
aVnr
p3568
aVnr
p3569
aVnr
p3570
aV22
p3571
aV32
p3572
aVnr
p3573
aVnr
p3574
aVnr
p3575
aV38
p3576
aV39
p3577
aa(lp3578
V02-11-2016
p3579
aV23
p3580
aV22
p3581
aV5
aVnr
p3582
aV33
p3583
aV17
p3584
aVnr
p3585
aVnr
p3586
aVnr
p3587
aVnr
p3588
aV9
aVnr
p3589
aV5
aV36
p3590
aVnr
p3591
aVnr
p3592
aV25
p3593
aV9
aV17
p3594
aVnr
p3595
aVnr
p3596
aVnr
p3597
aVnr
p3598
aV14
p3599
aV34
p3600
aVnr
p3601
aVnr
p3602
aVnr
p3603
aV34
p3604
aVnr
p3605
aVnr
p3606
aVnr
p3607
aVnr
p3608
aVnr
p3609
aVnr
p3610
aV22
p3611
aV32
p3612
aVnr
p3613
aVnr
p3614
aVnr
p3615
aV38
p3616
aV39
p3617
aa(lp3618
V02-11-2016
p3619
aV24
p3620
aV26
p3621
aV9
aVnr
p3622
aV22
p3623
aV16
p3624
aVnr
p3625
aVnr
p3626
aVnr
p3627
aVnr
p3628
aV22
p3629
aVnr
p3630
aV21
p3631
aV19
p3632
aVnr
p3633
aVnr
p3634
aV22
p3635
aV10
p3636
aV20
p3637
aVnr
p3638
aVnr
p3639
aVnr
p3640
aVnr
p3641
aV11
p3642
aV11
p3643
aVnr
p3644
aVnr
p3645
aVnr
p3646
aV33
p3647
aVnr
p3648
aVnr
p3649
aVnr
p3650
aV26
p3651
aVnr
p3652
aVnr
p3653
aV22
p3654
aV22
p3655
aVnr
p3656
aVnr
p3657
aVnr
p3658
aV27
p3659
aV31
p3660
aa(lp3661
V05-11-2016
p3662
aV8
aVnr
p3663
aV13
p3664
aVnr
p3665
aV20
p3666
aV13
p3667
aV31
p3668
aVnr
p3669
aVnr
p3670
aVnr
p3671
aV36
p3672
aVnr
p3673
aV10
p3674
aV33
p3675
aV8
aVnr
p3676
aV22
p3677
aV5
aV11
p3678
aVnr
p3679
aVnr
p3680
aVnr
p3681
aV19
p3682
aV18
p3683
aV13
p3684
aVnr
p3685
aVnr
p3686
aVnr
p3687
aV12
p3688
aVnr
p3689
aVnr
p3690
aVnr
p3691
aV9
aVnr
p3692
aVnr
p3693
aV13
p3694
aV27
p3695
aVnr
p3696
aVnr
p3697
aVnr
p3698
aV24
p3699
aV14
p3700
aa(lp3701
V05-11-2016
p3702
aV9
aVnr
p3703
aV13
p3704
aVnr
p3705
aV21
p3706
aV19
p3707
aV31
p3708
aVnr
p3709
aVnr
p3710
aVnr
p3711
aV37
p3712
aVnr
p3713
aV14
p3714
aV47
p3715
aV5
aVnr
p3716
aV24
p3717
aV3
aV19
p3718
aVnr
p3719
aVnr
p3720
aVnr
p3721
aV48
p3722
aV14
p3723
aV14
p3724
aVnr
p3725
aVnr
p3726
aVnr
p3727
aV16
p3728
aVnr
p3729
aVnr
p3730
aVnr
p3731
aV10
p3732
aVnr
p3733
aVnr
p3734
aV11
p3735
aV29
p3736
aVnr
p3737
aVnr
p3738
aVnr
p3739
aV30
p3740
aV21
p3741
aa(lp3742
V07-11-2016
p3743
aV8
aV33
p3744
aV16
p3745
aVnr
p3746
aV40
p3747
aV31
p3748
aVnr
p3749
aVnr
p3750
aVnr
p3751
aVnr
p3752
aV66
p3753
aVnr
p3754
aV33
p3755
aV75
p3756
aV33
p3757
aVnr
p3758
aV42
p3759
aV21
p3760
aV26
p3761
aVnr
p3762
aVnr
p3763
aVnr
p3764
aV29
p3765
aV48
p3766
aV19
p3767
aVnr
p3768
aVnr
p3769
aVnr
p3770
aV52
p3771
aVnr
p3772
aVnr
p3773
aVnr
p3774
aV38
p3775
aVnr
p3776
aVnr
p3777
aV36
p3778
aV46
p3779
aVnr
p3780
aVnr
p3781
aVnr
p3782
aV60
p3783
aV124
p3784
aa(lp3785
V08-11-2016
p3786
aV12
p3787
aV40
p3788
aV70
p3789
aVnr
p3790
aV34
p3791
aV89
p3792
aV80
p3793
aVnr
p3794
aVnr
p3795
aVnr
p3796
aV74
p3797
aVnr
p3798
aV59
p3799
aV55
p3800
aV46
p3801
aVnr
p3802
aV77
p3803
aV13
p3804
aV70
p3805
aVnr
p3806
aVnr
p3807
aVnr
p3808
aV88
p3809
aV64
p3810
aV46
p3811
aVnr
p3812
aVnr
p3813
aVnr
p3814
aV80
p3815
aVnr
p3816
aVnr
p3817
aVnr
p3818
aV54
p3819
aVnr
p3820
aVnr
p3821
aV76
p3822
aV73
p3823
aVnr
p3824
aVnr
p3825
aVnr
p3826
aV75
p3827
aV119
p3828
aa(lp3829
V09-11-2016
p3830
aV12
p3831
aV9
aV21
p3832
aVnr
p3833
aV12
p3834
aV35
p3835
aVnr
p3836
aVnr
p3837
aVnr
p3838
aVnr
p3839
aVnr
p3840
aVnr
p3841
aV22
p3842
aV10
p3843
aV17
p3844
aVnr
p3845
aV35
p3846
aV13
p3847
aV26
p3848
aVnr
p3849
aVnr
p3850
aVnr
p3851
aV50
p3852
aV35
p3853
aV15
p3854
aVnr
p3855
aVnr
p3856
aVnr
p3857
aV28
p3858
aVnr
p3859
aVnr
p3860
aVnr
p3861
aV29
p3862
aVnr
p3863
aVnr
p3864
aV25
p3865
aV15
p3866
aVnr
p3867
aVnr
p3868
aVnr
p3869
aV12
p3870
aV25
p3871
aa(lp3872
V09-11-2016
p3873
aV13
p3874
aV7
aV35
p3875
aVnr
p3876
aV25
p3877
aV33
p3878
aVnr
p3879
aVnr
p3880
aVnr
p3881
aVnr
p3882
aVnr
p3883
aVnr
p3884
aV34
p3885
aV5
aV15
p3886
aVnr
p3887
aV32
p3888
aV16
p3889
aV27
p3890
aVnr
p3891
aVnr
p3892
aVnr
p3893
aV45
p3894
aV30
p3895
aV26
p3896
aVnr
p3897
aVnr
p3898
aVnr
p3899
aV17
p3900
aVnr
p3901
aVnr
p3902
aVnr
p3903
aV24
p3904
aVnr
p3905
aVnr
p3906
aV39
p3907
aV23
p3908
aVnr
p3909
aVnr
p3910
aVnr
p3911
aV5
aV40
p3912
aa(lp3913
V09-11-2016
p3914
aV14
p3915
aV13
p3916
aV31
p3917
aVnr
p3918
aV27
p3919
aV38
p3920
aVnr
p3921
aVnr
p3922
aVnr
p3923
aVnr
p3924
aVnr
p3925
aVnr
p3926
aV22
p3927
aV12
p3928
aV28
p3929
aVnr
p3930
aV36
p3931
aV25
p3932
aV27
p3933
aVnr
p3934
aVnr
p3935
aVnr
p3936
aV49
p3937
aV35
p3938
aV30
p3939
aVnr
p3940
aVnr
p3941
aVnr
p3942
aV22
p3943
aVnr
p3944
aVnr
p3945
aVnr
p3946
aV16
p3947
aVnr
p3948
aVnr
p3949
aV46
p3950
aV18
p3951
aVnr
p3952
aVnr
p3953
aVnr
p3954
aV4
aV37
p3955
aasS'no'
p3956
(lp3957
(lp3958
V02-11-2016
p3959
aV21
p3960
aV4
aV0
aVnr
p3961
aV13
p3962
aVnr
p3963
aVnr
p3964
aVnr
p3965
aV0
aVnr
p3966
aV16
p3967
aVnr
p3968
aV15
p3969
aV2
aV4
aVnr
p3970
aVnr
p3971
aV3
aVnr
p3972
aV3
aVnr
p3973
aVnr
p3974
aVnr
p3975
aVnr
p3976
aV4
aVnr
p3977
aV13
p3978
aV3
aVnr
p3979
aV19
p3980
aVnr
p3981
aV6
aVnr
p3982
aVnr
p3983
aV1
aVnr
p3984
aVnr
p3985
aV7
aV40
p3986
aVnr
p3987
aV5
aV3
aV5
aV55
p3988
aa(lp3989
V02-11-2016
p3990
aV21
p3991
aV4
aV0
aVnr
p3992
aV13
p3993
aVnr
p3994
aVnr
p3995
aVnr
p3996
aV0
aVnr
p3997
aV16
p3998
aVnr
p3999
aV15
p4000
aV2
aV4
aVnr
p4001
aVnr
p4002
aV3
aVnr
p4003
aV3
aVnr
p4004
aVnr
p4005
aVnr
p4006
aVnr
p4007
aV4
aVnr
p4008
aV13
p4009
aV3
aVnr
p4010
aV19
p4011
aVnr
p4012
aV6
aVnr
p4013
aVnr
p4014
aV1
aVnr
p4015
aVnr
p4016
aV7
aV40
p4017
aVnr
p4018
aV5
aV3
aV5
aV55
p4019
aa(lp4020
V02-11-2016
p4021
aV21
p4022
aV4
aV0
aVnr
p4023
aV13
p4024
aVnr
p4025
aVnr
p4026
aVnr
p4027
aV0
aVnr
p4028
aV16
p4029
aVnr
p4030
aV15
p4031
aV2
aV4
aVnr
p4032
aVnr
p4033
aV3
aVnr
p4034
aV3
aVnr
p4035
aVnr
p4036
aVnr
p4037
aVnr
p4038
aV4
aVnr
p4039
aV13
p4040
aV3
aVnr
p4041
aV19
p4042
aVnr
p4043
aV6
aVnr
p4044
aVnr
p4045
aV1
aVnr
p4046
aVnr
p4047
aV7
aV40
p4048
aVnr
p4049
aV5
aV3
aV5
aV55
p4050
aa(lp4051
V02-11-2016
p4052
aV21
p4053
aV4
aV0
aVnr
p4054
aV13
p4055
aVnr
p4056
aVnr
p4057
aVnr
p4058
aV0
aVnr
p4059
aV16
p4060
aVnr
p4061
aV15
p4062
aV2
aV4
aVnr
p4063
aVnr
p4064
aV3
aVnr
p4065
aV3
aVnr
p4066
aVnr
p4067
aVnr
p4068
aVnr
p4069
aV4
aVnr
p4070
aV13
p4071
aV3
aVnr
p4072
aV19
p4073
aVnr
p4074
aV6
aVnr
p4075
aVnr
p4076
aV1
aVnr
p4077
aVnr
p4078
aV7
aV40
p4079
aVnr
p4080
aV5
aV3
aV5
aV55
p4081
aa(lp4082
V02-11-2016
p4083
aV21
p4084
aV4
aV0
aVnr
p4085
aV13
p4086
aVnr
p4087
aVnr
p4088
aVnr
p4089
aV0
aVnr
p4090
aV16
p4091
aVnr
p4092
aV15
p4093
aV2
aV4
aVnr
p4094
aVnr
p4095
aV3
aVnr
p4096
aV3
aVnr
p4097
aVnr
p4098
aVnr
p4099
aVnr
p4100
aV4
aVnr
p4101
aV13
p4102
aV3
aVnr
p4103
aV19
p4104
aVnr
p4105
aV6
aVnr
p4106
aVnr
p4107
aV1
aVnr
p4108
aVnr
p4109
aV7
aV40
p4110
aVnr
p4111
aV5
aV3
aV5
aV55
p4112
aa(lp4113
V02-11-2016
p4114
aV21
p4115
aV4
aV0
aVnr
p4116
aV13
p4117
aVnr
p4118
aVnr
p4119
aVnr
p4120
aV0
aVnr
p4121
aV16
p4122
aVnr
p4123
aV15
p4124
aV2
aV4
aVnr
p4125
aVnr
p4126
aV3
aVnr
p4127
aV3
aVnr
p4128
aVnr
p4129
aVnr
p4130
aVnr
p4131
aV4
aVnr
p4132
aV13
p4133
aV3
aVnr
p4134
aV19
p4135
aVnr
p4136
aV6
aVnr
p4137
aVnr
p4138
aV1
aVnr
p4139
aVnr
p4140
aV7
aV40
p4141
aVnr
p4142
aV5
aV3
aV5
aV55
p4143
aa(lp4144
V02-11-2016
p4145
aV21
p4146
aV4
aV0
aVnr
p4147
aV13
p4148
aVnr
p4149
aVnr
p4150
aVnr
p4151
aV0
aVnr
p4152
aV16
p4153
aVnr
p4154
aV15
p4155
aV2
aV4
aVnr
p4156
aVnr
p4157
aV3
aVnr
p4158
aV3
aVnr
p4159
aVnr
p4160
aVnr
p4161
aVnr
p4162
aV4
aVnr
p4163
aV13
p4164
aV3
aVnr
p4165
aV19
p4166
aVnr
p4167
aV6
aVnr
p4168
aVnr
p4169
aV1
aVnr
p4170
aVnr
p4171
aV7
aV40
p4172
aVnr
p4173
aV5
aV3
aV5
aV55
p4174
aa(lp4175
V02-11-2016
p4176
aV21
p4177
aV4
aV0
aVnr
p4178
aV13
p4179
aVnr
p4180
aVnr
p4181
aVnr
p4182
aV0
aVnr
p4183
aV16
p4184
aVnr
p4185
aV15
p4186
aV2
aV4
aVnr
p4187
aVnr
p4188
aV3
aVnr
p4189
aV3
aVnr
p4190
aVnr
p4191
aVnr
p4192
aVnr
p4193
aV4
aVnr
p4194
aV13
p4195
aV3
aVnr
p4196
aV19
p4197
aVnr
p4198
aV6
aVnr
p4199
aVnr
p4200
aV1
aVnr
p4201
aVnr
p4202
aV7
aV40
p4203
aVnr
p4204
aV5
aV3
aV5
aV55
p4205
aa(lp4206
V02-11-2016
p4207
aV22
p4208
aV7
aV1
aVnr
p4209
aV22
p4210
aVnr
p4211
aVnr
p4212
aVnr
p4213
aV4
aVnr
p4214
aV17
p4215
aVnr
p4216
aV12
p4217
aV4
aV2
aVnr
p4218
aVnr
p4219
aV6
aVnr
p4220
aV6
aVnr
p4221
aVnr
p4222
aVnr
p4223
aVnr
p4224
aVnr
p4225
aVnr
p4226
aV9
aV4
aVnr
p4227
aV17
p4228
aVnr
p4229
aV9
aVnr
p4230
aVnr
p4231
aV1
aVnr
p4232
aVnr
p4233
aV11
p4234
aV28
p4235
aVnr
p4236
aV2
aV4
aV7
aV37
p4237
aa(lp4238
V02-11-2016
p4239
aV22
p4240
aV7
aV1
aVnr
p4241
aV22
p4242
aVnr
p4243
aVnr
p4244
aVnr
p4245
aV4
aVnr
p4246
aV17
p4247
aVnr
p4248
aV12
p4249
aV4
aV2
aVnr
p4250
aVnr
p4251
aV6
aVnr
p4252
aV6
aVnr
p4253
aVnr
p4254
aVnr
p4255
aVnr
p4256
aVnr
p4257
aVnr
p4258
aV9
aV4
aVnr
p4259
aV17
p4260
aVnr
p4261
aV9
aVnr
p4262
aVnr
p4263
aV1
aVnr
p4264
aVnr
p4265
aV11
p4266
aV28
p4267
aVnr
p4268
aV2
aV4
aV7
aV37
p4269
aa(lp4270
V02-11-2016
p4271
aV22
p4272
aV7
aV1
aVnr
p4273
aV22
p4274
aVnr
p4275
aVnr
p4276
aVnr
p4277
aV4
aVnr
p4278
aV17
p4279
aVnr
p4280
aV12
p4281
aV4
aV2
aVnr
p4282
aVnr
p4283
aV6
aVnr
p4284
aV6
aVnr
p4285
aVnr
p4286
aVnr
p4287
aVnr
p4288
aVnr
p4289
aVnr
p4290
aV9
aV4
aVnr
p4291
aV17
p4292
aVnr
p4293
aV9
aVnr
p4294
aVnr
p4295
aV1
aVnr
p4296
aVnr
p4297
aV11
p4298
aV28
p4299
aVnr
p4300
aV2
aV4
aV7
aV37
p4301
aa(lp4302
V02-11-2016
p4303
aV23
p4304
aV18
p4305
aV0
aVnr
p4306
aV33
p4307
aVnr
p4308
aVnr
p4309
aVnr
p4310
aV4
aVnr
p4311
aV15
p4312
aVnr
p4313
aV14
p4314
aV12
p4315
aV2
aVnr
p4316
aVnr
p4317
aV20
p4318
aVnr
p4319
aV19
p4320
aVnr
p4321
aVnr
p4322
aVnr
p4323
aVnr
p4324
aV11
p4325
aVnr
p4326
aV11
p4327
aV3
aVnr
p4328
aV21
p4329
aVnr
p4330
aV6
aVnr
p4331
aVnr
p4332
aV2
aVnr
p4333
aVnr
p4334
aV12
p4335
aV36
p4336
aVnr
p4337
aV9
aV10
p4338
aV8
aV42
p4339
aa(lp4340
V02-11-2016
p4341
aV23
p4342
aV18
p4343
aV0
aVnr
p4344
aV33
p4345
aVnr
p4346
aVnr
p4347
aVnr
p4348
aV4
aVnr
p4349
aV15
p4350
aVnr
p4351
aV14
p4352
aV12
p4353
aV2
aVnr
p4354
aVnr
p4355
aV20
p4356
aVnr
p4357
aV19
p4358
aVnr
p4359
aVnr
p4360
aVnr
p4361
aVnr
p4362
aV11
p4363
aVnr
p4364
aV11
p4365
aV3
aVnr
p4366
aV21
p4367
aVnr
p4368
aV6
aVnr
p4369
aVnr
p4370
aV2
aVnr
p4371
aVnr
p4372
aV12
p4373
aV36
p4374
aVnr
p4375
aV9
aV10
p4376
aV8
aV42
p4377
aa(lp4378
V02-11-2016
p4379
aV23
p4380
aV18
p4381
aV0
aVnr
p4382
aV33
p4383
aVnr
p4384
aVnr
p4385
aVnr
p4386
aV4
aVnr
p4387
aV15
p4388
aVnr
p4389
aV14
p4390
aV12
p4391
aV2
aVnr
p4392
aVnr
p4393
aV20
p4394
aVnr
p4395
aV19
p4396
aVnr
p4397
aVnr
p4398
aVnr
p4399
aVnr
p4400
aV11
p4401
aVnr
p4402
aV11
p4403
aV3
aVnr
p4404
aV21
p4405
aVnr
p4406
aV6
aVnr
p4407
aVnr
p4408
aV2
aVnr
p4409
aVnr
p4410
aV12
p4411
aV36
p4412
aVnr
p4413
aV9
aV10
p4414
aV8
aV42
p4415
aa(lp4416
V02-11-2016
p4417
aV23
p4418
aV18
p4419
aV0
aVnr
p4420
aV33
p4421
aVnr
p4422
aVnr
p4423
aVnr
p4424
aV4
aVnr
p4425
aV15
p4426
aVnr
p4427
aV14
p4428
aV12
p4429
aV2
aVnr
p4430
aVnr
p4431
aV20
p4432
aVnr
p4433
aV19
p4434
aVnr
p4435
aVnr
p4436
aVnr
p4437
aVnr
p4438
aV11
p4439
aVnr
p4440
aV11
p4441
aV3
aVnr
p4442
aV21
p4443
aVnr
p4444
aV6
aVnr
p4445
aVnr
p4446
aV2
aVnr
p4447
aVnr
p4448
aV12
p4449
aV36
p4450
aVnr
p4451
aV9
aV10
p4452
aV8
aV42
p4453
aa(lp4454
V02-11-2016
p4455
aV24
p4456
aV10
p4457
aV3
aVnr
p4458
aV8
aVnr
p4459
aVnr
p4460
aVnr
p4461
aV4
aVnr
p4462
aV11
p4463
aVnr
p4464
aV44
p4465
aV9
aV6
aVnr
p4466
aVnr
p4467
aV10
p4468
aVnr
p4469
aV38
p4470
aVnr
p4471
aVnr
p4472
aVnr
p4473
aVnr
p4474
aV12
p4475
aVnr
p4476
aV15
p4477
aV4
aVnr
p4478
aV26
p4479
aVnr
p4480
aV12
p4481
aVnr
p4482
aVnr
p4483
aV4
aVnr
p4484
aVnr
p4485
aV30
p4486
aV16
p4487
aVnr
p4488
aV17
p4489
aV19
p4490
aV14
p4491
aV57
p4492
aa(lp4493
V05-11-2016
p4494
aV8
aVnr
p4495
aV6
aVnr
p4496
aV15
p4497
aVnr
p4498
aVnr
p4499
aV22
p4500
aV8
aVnr
p4501
aV17
p4502
aVnr
p4503
aV20
p4504
aV3
aV24
p4505
aV3
aVnr
p4506
aV25
p4507
aVnr
p4508
aV19
p4509
aVnr
p4510
aVnr
p4511
aVnr
p4512
aV49
p4513
aV19
p4514
aVnr
p4515
aV18
p4516
aV11
p4517
aVnr
p4518
aV10
p4519
aVnr
p4520
aV15
p4521
aVnr
p4522
aVnr
p4523
aV4
aVnr
p4524
aVnr
p4525
aV21
p4526
aV9
aVnr
p4527
aV8
aV31
p4528
aV6
aV17
p4529
aa(lp4530
V05-11-2016
p4531
aV9
aVnr
p4532
aV3
aVnr
p4533
aV8
aVnr
p4534
aVnr
p4535
aV17
p4536
aV4
aVnr
p4537
aV8
aVnr
p4538
aV14
p4539
aV14
p4540
aV16
p4541
aV3
aVnr
p4542
aV28
p4543
aVnr
p4544
aV14
p4545
aVnr
p4546
aVnr
p4547
aVnr
p4548
aV36
p4549
aV14
p4550
aVnr
p4551
aV10
p4552
aV7
aVnr
p4553
aV19
p4554
aVnr
p4555
aV10
p4556
aVnr
p4557
aVnr
p4558
aV11
p4559
aVnr
p4560
aVnr
p4561
aV27
p4562
aV18
p4563
aVnr
p4564
aV9
aV31
p4565
aV9
aV22
p4566
aa(lp4567
V07-11-2016
p4568
aV8
aV50
p4569
aV21
p4570
aVnr
p4571
aVnr
p4572
aVnr
p4573
aVnr
p4574
aV162
p4575
aV119
p4576
aVnr
p4577
aV178
p4578
aVnr
p4579
aV130
p4580
aV121
p4581
aV137
p4582
aV179
p4583
aVnr
p4584
aV136
p4585
aVnr
p4586
aV130
p4587
aVnr
p4588
aVnr
p4589
aVnr
p4590
aV169
p4591
aV173
p4592
aVnr
p4593
aV55
p4594
aV62
p4595
aVnr
p4596
aV115
p4597
aVnr
p4598
aV190
p4599
aVnr
p4600
aVnr
p4601
aV35
p4602
aVnr
p4603
aVnr
p4604
aV183
p4605
aV159
p4606
aVnr
p4607
aV89
p4608
aV62
p4609
aV74
p4610
aV264
p4611
aa(lp4612
V08-11-2016
p4613
aV12
p4614
aV8
aV19
p4615
aVnr
p4616
aV11
p4617
aVnr
p4618
aVnr
p4619
aV18
p4620
aV24
p4621
aVnr
p4622
aV7
aVnr
p4623
aV31
p4624
aV30
p4625
aV11
p4626
aV18
p4627
aVnr
p4628
aV24
p4629
aVnr
p4630
aV31
p4631
aVnr
p4632
aVnr
p4633
aVnr
p4634
aV36
p4635
aV27
p4636
aVnr
p4637
aV12
p4638
aV31
p4639
aVnr
p4640
aV16
p4641
aVnr
p4642
aV28
p4643
aVnr
p4644
aVnr
p4645
aV9
aVnr
p4646
aVnr
p4647
aV29
p4648
aV14
p4649
aVnr
p4650
aV22
p4651
aV17
p4652
aV9
aV32
p4653
aa(lp4654
V09-11-2016
p4655
aV12
p4656
aV5
aV36
p4657
aVnr
p4658
aV12
p4659
aVnr
p4660
aVnr
p4661
aV16
p4662
aV20
p4663
aVnr
p4664
aV4
aVnr
p4665
aV25
p4666
aV15
p4667
aV6
aV19
p4668
aVnr
p4669
aV26
p4670
aVnr
p4671
aV30
p4672
aVnr
p4673
aVnr
p4674
aVnr
p4675
aV30
p4676
aV24
p4677
aVnr
p4678
aVnr
p4679
aV22
p4680
aVnr
p4681
aV12
p4682
aVnr
p4683
aV14
p4684
aVnr
p4685
aVnr
p4686
aV12
p4687
aVnr
p4688
aVnr
p4689
aVnr
p4690
aV9
aVnr
p4691
aV27
p4692
aV29
p4693
aV4
aV17
p4694
aa(lp4695
V09-11-2016
p4696
aV13
p4697
aV3
aV22
p4698
aVnr
p4699
aV10
p4700
aVnr
p4701
aVnr
p4702
aV15
p4703
aV18
p4704
aVnr
p4705
aV2
aVnr
p4706
aV24
p4707
aV11
p4708
aV6
aV14
p4709
aVnr
p4710
aV23
p4711
aVnr
p4712
aV19
p4713
aVnr
p4714
aVnr
p4715
aVnr
p4716
aV19
p4717
aV18
p4718
aVnr
p4719
aV8
aV22
p4720
aVnr
p4721
aVnr
p4722
aVnr
p4723
aV8
aVnr
p4724
aVnr
p4725
aV13
p4726
aVnr
p4727
aVnr
p4728
aVnr
p4729
aV7
aVnr
p4730
aV22
p4731
aV24
p4732
aV3
aV20
p4733
aa(lp4734
V09-11-2016
p4735
aV14
p4736
aV3
aV18
p4737
aVnr
p4738
aV8
aVnr
p4739
aVnr
p4740
aV16
p4741
aV12
p4742
aVnr
p4743
aV2
aVnr
p4744
aV19
p4745
aV10
p4746
aV5
aV16
p4747
aVnr
p4748
aV18
p4749
aVnr
p4750
aV11
p4751
aVnr
p4752
aVnr
p4753
aVnr
p4754
aV13
p4755
aV25
p4756
aVnr
p4757
aV7
aV21
p4758
aVnr
p4759
aVnr
p4760
aVnr
p4761
aV7
aVnr
p4762
aVnr
p4763
aV7
aVnr
p4764
aVnr
p4765
aVnr
p4766
aV8
aVnr
p4767
aV15
p4768
aV18
p4769
aV3
aV18
p4770
aasS'rh'
p4771
(lp4772
(lp4773
V02-11-2016
p4774
aV21
p4775
aVnr
p4776
aV68
p4777
aV91
p4778
aVnr
p4779
aV69
p4780
aVnr
p4781
aVnr
p4782
aVnr
p4783
aV80
p4784
aV87
p4785
aVnr
p4786
aV81
p4787
aV69
p4788
aVnr
p4789
aVnr
p4790
aV68
p4791
aVnr
p4792
aVnr
p4793
aVnr
p4794
aVnr
p4795
aVnr
p4796
aV72
p4797
aV73
p4798
aVnr
p4799
aV66
p4800
aV68
p4801
aVnr
p4802
aV48
p4803
aV77
p4804
aVnr
p4805
aVnr
p4806
aVnr
p4807
aVnr
p4808
aV75
p4809
aVnr
p4810
aV72
p4811
aVnr
p4812
aVnr
p4813
aV73
p4814
aV66
p4815
aV63
p4816
aV62
p4817
aa(lp4818
V02-11-2016
p4819
aV21
p4820
aVnr
p4821
aV68
p4822
aV91
p4823
aVnr
p4824
aV69
p4825
aVnr
p4826
aVnr
p4827
aVnr
p4828
aV80
p4829
aV87
p4830
aVnr
p4831
aV81
p4832
aV69
p4833
aVnr
p4834
aVnr
p4835
aV68
p4836
aVnr
p4837
aVnr
p4838
aVnr
p4839
aVnr
p4840
aVnr
p4841
aV72
p4842
aV73
p4843
aVnr
p4844
aV66
p4845
aV68
p4846
aVnr
p4847
aV48
p4848
aV77
p4849
aVnr
p4850
aVnr
p4851
aVnr
p4852
aVnr
p4853
aV75
p4854
aVnr
p4855
aV72
p4856
aVnr
p4857
aVnr
p4858
aV73
p4859
aV66
p4860
aV63
p4861
aV62
p4862
aa(lp4863
V02-11-2016
p4864
aV21
p4865
aVnr
p4866
aV68
p4867
aV91
p4868
aVnr
p4869
aV69
p4870
aVnr
p4871
aVnr
p4872
aVnr
p4873
aV80
p4874
aV87
p4875
aVnr
p4876
aV81
p4877
aV69
p4878
aVnr
p4879
aVnr
p4880
aV68
p4881
aVnr
p4882
aVnr
p4883
aVnr
p4884
aVnr
p4885
aVnr
p4886
aV72
p4887
aV73
p4888
aVnr
p4889
aV66
p4890
aV68
p4891
aVnr
p4892
aV48
p4893
aV77
p4894
aVnr
p4895
aVnr
p4896
aVnr
p4897
aVnr
p4898
aV75
p4899
aVnr
p4900
aV72
p4901
aVnr
p4902
aVnr
p4903
aV73
p4904
aV66
p4905
aV63
p4906
aV62
p4907
aa(lp4908
V02-11-2016
p4909
aV21
p4910
aVnr
p4911
aV68
p4912
aV91
p4913
aVnr
p4914
aV69
p4915
aVnr
p4916
aVnr
p4917
aVnr
p4918
aV80
p4919
aV87
p4920
aVnr
p4921
aV81
p4922
aV69
p4923
aVnr
p4924
aVnr
p4925
aV68
p4926
aVnr
p4927
aVnr
p4928
aVnr
p4929
aVnr
p4930
aVnr
p4931
aV72
p4932
aV73
p4933
aVnr
p4934
aV66
p4935
aV68
p4936
aVnr
p4937
aV48
p4938
aV77
p4939
aVnr
p4940
aVnr
p4941
aVnr
p4942
aVnr
p4943
aV75
p4944
aVnr
p4945
aV72
p4946
aVnr
p4947
aVnr
p4948
aV73
p4949
aV66
p4950
aV63
p4951
aV62
p4952
aa(lp4953
V02-11-2016
p4954
aV21
p4955
aVnr
p4956
aV68
p4957
aV91
p4958
aVnr
p4959
aV69
p4960
aVnr
p4961
aVnr
p4962
aVnr
p4963
aV80
p4964
aV87
p4965
aVnr
p4966
aV81
p4967
aV69
p4968
aVnr
p4969
aVnr
p4970
aV68
p4971
aVnr
p4972
aVnr
p4973
aVnr
p4974
aVnr
p4975
aVnr
p4976
aV72
p4977
aV73
p4978
aVnr
p4979
aV66
p4980
aV68
p4981
aVnr
p4982
aV48
p4983
aV77
p4984
aVnr
p4985
aVnr
p4986
aVnr
p4987
aVnr
p4988
aV75
p4989
aVnr
p4990
aV72
p4991
aVnr
p4992
aVnr
p4993
aV73
p4994
aV66
p4995
aV63
p4996
aV62
p4997
aa(lp4998
V02-11-2016
p4999
aV21
p5000
aVnr
p5001
aV68
p5002
aV91
p5003
aVnr
p5004
aV69
p5005
aVnr
p5006
aVnr
p5007
aVnr
p5008
aV80
p5009
aV87
p5010
aVnr
p5011
aV81
p5012
aV69
p5013
aVnr
p5014
aVnr
p5015
aV68
p5016
aVnr
p5017
aVnr
p5018
aVnr
p5019
aVnr
p5020
aVnr
p5021
aV72
p5022
aV73
p5023
aVnr
p5024
aV66
p5025
aV68
p5026
aVnr
p5027
aV48
p5028
aV77
p5029
aVnr
p5030
aVnr
p5031
aVnr
p5032
aVnr
p5033
aV75
p5034
aVnr
p5035
aV72
p5036
aVnr
p5037
aVnr
p5038
aV73
p5039
aV66
p5040
aV63
p5041
aV62
p5042
aa(lp5043
V02-11-2016
p5044
aV21
p5045
aVnr
p5046
aV68
p5047
aV91
p5048
aVnr
p5049
aV69
p5050
aVnr
p5051
aVnr
p5052
aVnr
p5053
aV80
p5054
aV87
p5055
aVnr
p5056
aV81
p5057
aV69
p5058
aVnr
p5059
aVnr
p5060
aV68
p5061
aVnr
p5062
aVnr
p5063
aVnr
p5064
aVnr
p5065
aVnr
p5066
aV72
p5067
aV73
p5068
aVnr
p5069
aV66
p5070
aV68
p5071
aVnr
p5072
aV48
p5073
aV77
p5074
aVnr
p5075
aVnr
p5076
aVnr
p5077
aVnr
p5078
aV75
p5079
aVnr
p5080
aV72
p5081
aVnr
p5082
aVnr
p5083
aV73
p5084
aV66
p5085
aV63
p5086
aV62
p5087
aa(lp5088
V02-11-2016
p5089
aV21
p5090
aVnr
p5091
aV68
p5092
aV91
p5093
aVnr
p5094
aV69
p5095
aVnr
p5096
aVnr
p5097
aVnr
p5098
aV80
p5099
aV87
p5100
aVnr
p5101
aV81
p5102
aV69
p5103
aVnr
p5104
aVnr
p5105
aV68
p5106
aVnr
p5107
aVnr
p5108
aVnr
p5109
aVnr
p5110
aVnr
p5111
aV72
p5112
aV73
p5113
aVnr
p5114
aV66
p5115
aV68
p5116
aVnr
p5117
aV48
p5118
aV77
p5119
aVnr
p5120
aVnr
p5121
aVnr
p5122
aVnr
p5123
aV75
p5124
aVnr
p5125
aV72
p5126
aVnr
p5127
aVnr
p5128
aV73
p5129
aV66
p5130
aV63
p5131
aV62
p5132
aa(lp5133
V02-11-2016
p5134
aV22
p5135
aVnr
p5136
aV67
p5137
aV94
p5138
aVnr
p5139
aV73
p5140
aVnr
p5141
aVnr
p5142
aVnr
p5143
aV81
p5144
aV88
p5145
aVnr
p5146
aV79
p5147
aV75
p5148
aVnr
p5149
aVnr
p5150
aV66
p5151
aVnr
p5152
aVnr
p5153
aVnr
p5154
aVnr
p5155
aVnr
p5156
aV72
p5157
aVnr
p5158
aVnr
p5159
aV69
p5160
aV76
p5161
aVnr
p5162
aV55
p5163
aV76
p5164
aVnr
p5165
aVnr
p5166
aVnr
p5167
aVnr
p5168
aV78
p5169
aVnr
p5170
aV72
p5171
aVnr
p5172
aVnr
p5173
aV83
p5174
aV78
p5175
aV71
p5176
aV65
p5177
aa(lp5178
V02-11-2016
p5179
aV22
p5180
aVnr
p5181
aV67
p5182
aV94
p5183
aVnr
p5184
aV73
p5185
aVnr
p5186
aVnr
p5187
aVnr
p5188
aV81
p5189
aV88
p5190
aVnr
p5191
aV79
p5192
aV75
p5193
aVnr
p5194
aVnr
p5195
aV66
p5196
aVnr
p5197
aVnr
p5198
aVnr
p5199
aVnr
p5200
aVnr
p5201
aV72
p5202
aVnr
p5203
aVnr
p5204
aV69
p5205
aV76
p5206
aVnr
p5207
aV55
p5208
aV76
p5209
aVnr
p5210
aVnr
p5211
aVnr
p5212
aVnr
p5213
aV78
p5214
aVnr
p5215
aV72
p5216
aVnr
p5217
aVnr
p5218
aV83
p5219
aV78
p5220
aV71
p5221
aV65
p5222
aa(lp5223
V02-11-2016
p5224
aV22
p5225
aVnr
p5226
aV67
p5227
aV94
p5228
aVnr
p5229
aV73
p5230
aVnr
p5231
aVnr
p5232
aVnr
p5233
aV81
p5234
aV88
p5235
aVnr
p5236
aV79
p5237
aV75
p5238
aVnr
p5239
aVnr
p5240
aV66
p5241
aVnr
p5242
aVnr
p5243
aVnr
p5244
aVnr
p5245
aVnr
p5246
aV72
p5247
aVnr
p5248
aVnr
p5249
aV69
p5250
aV76
p5251
aVnr
p5252
aV55
p5253
aV76
p5254
aVnr
p5255
aVnr
p5256
aVnr
p5257
aVnr
p5258
aV78
p5259
aVnr
p5260
aV72
p5261
aVnr
p5262
aVnr
p5263
aV83
p5264
aV78
p5265
aV71
p5266
aV65
p5267
aa(lp5268
V02-11-2016
p5269
aV23
p5270
aVnr
p5271
aV67
p5272
aV92
p5273
aVnr
p5274
aV75
p5275
aVnr
p5276
aVnr
p5277
aVnr
p5278
aV81
p5279
aV88
p5280
aVnr
p5281
aV77
p5282
aV83
p5283
aVnr
p5284
aVnr
p5285
aV70
p5286
aVnr
p5287
aVnr
p5288
aVnr
p5289
aVnr
p5290
aVnr
p5291
aV76
p5292
aV70
p5293
aVnr
p5294
aV69
p5295
aV76
p5296
aVnr
p5297
aV59
p5298
aV76
p5299
aVnr
p5300
aVnr
p5301
aVnr
p5302
aVnr
p5303
aV79
p5304
aVnr
p5305
aV72
p5306
aVnr
p5307
aVnr
p5308
aV81
p5309
aV81
p5310
aV73
p5311
aV70
p5312
aa(lp5313
V02-11-2016
p5314
aV23
p5315
aVnr
p5316
aV67
p5317
aV92
p5318
aVnr
p5319
aV75
p5320
aVnr
p5321
aVnr
p5322
aVnr
p5323
aV81
p5324
aV88
p5325
aVnr
p5326
aV77
p5327
aV83
p5328
aVnr
p5329
aVnr
p5330
aV70
p5331
aVnr
p5332
aVnr
p5333
aVnr
p5334
aVnr
p5335
aVnr
p5336
aV76
p5337
aV70
p5338
aVnr
p5339
aV69
p5340
aV76
p5341
aVnr
p5342
aV59
p5343
aV76
p5344
aVnr
p5345
aVnr
p5346
aVnr
p5347
aVnr
p5348
aV79
p5349
aVnr
p5350
aV72
p5351
aVnr
p5352
aVnr
p5353
aV81
p5354
aV81
p5355
aV73
p5356
aV70
p5357
aa(lp5358
V02-11-2016
p5359
aV23
p5360
aVnr
p5361
aV67
p5362
aV92
p5363
aVnr
p5364
aV75
p5365
aVnr
p5366
aVnr
p5367
aVnr
p5368
aV81
p5369
aV88
p5370
aVnr
p5371
aV77
p5372
aV83
p5373
aVnr
p5374
aVnr
p5375
aV70
p5376
aVnr
p5377
aVnr
p5378
aVnr
p5379
aVnr
p5380
aVnr
p5381
aV76
p5382
aV70
p5383
aVnr
p5384
aV69
p5385
aV76
p5386
aVnr
p5387
aV59
p5388
aV76
p5389
aVnr
p5390
aVnr
p5391
aVnr
p5392
aVnr
p5393
aV79
p5394
aVnr
p5395
aV72
p5396
aVnr
p5397
aVnr
p5398
aV81
p5399
aV81
p5400
aV73
p5401
aV70
p5402
aa(lp5403
V02-11-2016
p5404
aV23
p5405
aVnr
p5406
aV67
p5407
aV92
p5408
aVnr
p5409
aV75
p5410
aVnr
p5411
aVnr
p5412
aVnr
p5413
aV81
p5414
aV88
p5415
aVnr
p5416
aV77
p5417
aV83
p5418
aVnr
p5419
aVnr
p5420
aV70
p5421
aVnr
p5422
aVnr
p5423
aVnr
p5424
aVnr
p5425
aVnr
p5426
aV76
p5427
aV70
p5428
aVnr
p5429
aV69
p5430
aV76
p5431
aVnr
p5432
aV59
p5433
aV76
p5434
aVnr
p5435
aVnr
p5436
aVnr
p5437
aVnr
p5438
aV79
p5439
aVnr
p5440
aV72
p5441
aVnr
p5442
aVnr
p5443
aV81
p5444
aV81
p5445
aV73
p5446
aV70
p5447
aa(lp5448
V02-11-2016
p5449
aV24
p5450
aVnr
p5451
aV72
p5452
aV96
p5453
aVnr
p5454
aV80
p5455
aVnr
p5456
aVnr
p5457
aVnr
p5458
aV84
p5459
aV88
p5460
aVnr
p5461
aV77
p5462
aV85
p5463
aVnr
p5464
aVnr
p5465
aV68
p5466
aVnr
p5467
aVnr
p5468
aVnr
p5469
aVnr
p5470
aVnr
p5471
aV71
p5472
aV78
p5473
aVnr
p5474
aV68
p5475
aV81
p5476
aVnr
p5477
aV63
p5478
aV78
p5479
aVnr
p5480
aVnr
p5481
aVnr
p5482
aVnr
p5483
aV85
p5484
aVnr
p5485
aV75
p5486
aVnr
p5487
aVnr
p5488
aV84
p5489
aV80
p5490
aV73
p5491
aV68
p5492
aa(lp5493
V05-11-2016
p5494
aV8
aVnr
p5495
aV79
p5496
aV98
p5497
aVnr
p5498
aV73
p5499
aVnr
p5500
aVnr
p5501
aVnr
p5502
aV86
p5503
aV79
p5504
aVnr
p5505
aV85
p5506
aV87
p5507
aV75
p5508
aVnr
p5509
aV68
p5510
aVnr
p5511
aVnr
p5512
aVnr
p5513
aVnr
p5514
aVnr
p5515
aV73
p5516
aV72
p5517
aVnr
p5518
aV69
p5519
aV74
p5520
aVnr
p5521
aV65
p5522
aV82
p5523
aVnr
p5524
aVnr
p5525
aVnr
p5526
aVnr
p5527
aV74
p5528
aVnr
p5529
aV70
p5530
aVnr
p5531
aVnr
p5532
aV70
p5533
aV74
p5534
aV80
p5535
aV66
p5536
aa(lp5537
V05-11-2016
p5538
aV9
aVnr
p5539
aV75
p5540
aV96
p5541
aVnr
p5542
aV70
p5543
aVnr
p5544
aVnr
p5545
aVnr
p5546
aV81
p5547
aV73
p5548
aVnr
p5549
aV84
p5550
aV79
p5551
aV70
p5552
aVnr
p5553
aV64
p5554
aVnr
p5555
aVnr
p5556
aVnr
p5557
aVnr
p5558
aVnr
p5559
aV70
p5560
aV68
p5561
aVnr
p5562
aV68
p5563
aV71
p5564
aVnr
p5565
aV62
p5566
aV79
p5567
aVnr
p5568
aVnr
p5569
aVnr
p5570
aVnr
p5571
aV72
p5572
aVnr
p5573
aV68
p5574
aVnr
p5575
aVnr
p5576
aV69
p5577
aV72
p5578
aV78
p5579
aV62
p5580
aa(lp5581
V07-11-2016
p5582
aV8
aVnr
p5583
aV75
p5584
aV98
p5585
aVnr
p5586
aV74
p5587
aVnr
p5588
aVnr
p5589
aVnr
p5590
aV88
p5591
aV87
p5592
aVnr
p5593
aV76
p5594
aV97
p5595
aV92
p5596
aVnr
p5597
aV64
p5598
aVnr
p5599
aVnr
p5600
aVnr
p5601
aVnr
p5602
aVnr
p5603
aV74
p5604
aV72
p5605
aVnr
p5606
aV74
p5607
aV76
p5608
aVnr
p5609
aV65
p5610
aV76
p5611
aVnr
p5612
aVnr
p5613
aVnr
p5614
aVnr
p5615
aV79
p5616
aVnr
p5617
aV70
p5618
aVnr
p5619
aVnr
p5620
aV76
p5621
aV76
p5622
aV81
p5623
aV71
p5624
aa(lp5625
V08-11-2016
p5626
aV12
p5627
aVnr
p5628
aV60
p5629
aV74
p5630
aVnr
p5631
aV53
p5632
aVnr
p5633
aVnr
p5634
aVnr
p5635
aV53
p5636
aVnr
p5637
aVnr
p5638
aV65
p5639
aV59
p5640
aV44
p5641
aVnr
p5642
aV45
p5643
aVnr
p5644
aVnr
p5645
aVnr
p5646
aVnr
p5647
aVnr
p5648
aV54
p5649
aV53
p5650
aVnr
p5651
aV55
p5652
aV57
p5653
aVnr
p5654
aV42
p5655
aV66
p5656
aVnr
p5657
aVnr
p5658
aVnr
p5659
aVnr
p5660
aV57
p5661
aVnr
p5662
aV47
p5663
aVnr
p5664
aVnr
p5665
aV55
p5666
aV56
p5667
aV53
p5668
aV48
p5669
aa(lp5670
V09-11-2016
p5671
aV12
p5672
aV72
p5673
aV85
p5674
aV86
p5675
aVnr
p5676
aV73
p5677
aVnr
p5678
aVnr
p5679
aVnr
p5680
aV67
p5681
aVnr
p5682
aVnr
p5683
aV84
p5684
aV85
p5685
aV65
p5686
aV73
p5687
aV62
p5688
aVnr
p5689
aVnr
p5690
aVnr
p5691
aVnr
p5692
aVnr
p5693
aV71
p5694
aV68
p5695
aV81
p5696
aV68
p5697
aV78
p5698
aVnr
p5699
aV58
p5700
aV83
p5701
aVnr
p5702
aVnr
p5703
aVnr
p5704
aVnr
p5705
aV73
p5706
aVnr
p5707
aV65
p5708
aVnr
p5709
aVnr
p5710
aV73
p5711
aV74
p5712
aV74
p5713
aV58
p5714
aa(lp5715
V09-11-2016
p5716
aV13
p5717
aV71
p5718
aV78
p5719
aV85
p5720
aVnr
p5721
aV66
p5722
aVnr
p5723
aVnr
p5724
aVnr
p5725
aV63
p5726
aVnr
p5727
aVnr
p5728
aV81
p5729
aV79
p5730
aV59
p5731
aV69
p5732
aV56
p5733
aVnr
p5734
aVnr
p5735
aVnr
p5736
aVnr
p5737
aVnr
p5738
aV65
p5739
aV64
p5740
aV81
p5741
aV61
p5742
aV73
p5743
aVnr
p5744
aV56
p5745
aV79
p5746
aVnr
p5747
aVnr
p5748
aVnr
p5749
aVnr
p5750
aV66
p5751
aVnr
p5752
aV64
p5753
aVnr
p5754
aVnr
p5755
aV67
p5756
aV66
p5757
aV70
p5758
aV62
p5759
aa(lp5760
V09-11-2016
p5761
aV14
p5762
aV68
p5763
aV81
p5764
aV89
p5765
aVnr
p5766
aV69
p5767
aVnr
p5768
aVnr
p5769
aVnr
p5770
aV65
p5771
aVnr
p5772
aVnr
p5773
aV84
p5774
aV80
p5775
aV67
p5776
aV71
p5777
aV61
p5778
aVnr
p5779
aVnr
p5780
aVnr
p5781
aVnr
p5782
aVnr
p5783
aV67
p5784
aV65
p5785
aV79
p5786
aV62
p5787
aV79
p5788
aVnr
p5789
aV51
p5790
aV80
p5791
aVnr
p5792
aVnr
p5793
aVnr
p5794
aVnr
p5795
aV64
p5796
aVnr
p5797
aV66
p5798
aVnr
p5799
aVnr
p5800
aV65
p5801
aV66
p5802
aV66
p5803
aV63
p5804
aasS'wsp'
p5805
(lp5806
(lp5807
V02-11-2016
p5808
aV21
p5809
aVnr
p5810
aV7
aV3
aVnr
p5811
aV4
aVnr
p5812
aVnr
p5813
aV5
aV2
aVnr
p5814
aV5
aV4
aVnr
p5815
aVnr
p5816
aV4
aVnr
p5817
aVnr
p5818
aVnr
p5819
aVnr
p5820
aVnr
p5821
aV5
aV7
aVnr
p5822
aV6
aV5
aVnr
p5823
aV1
aV7
aVnr
p5824
aVnr
p5825
aVnr
p5826
aVnr
p5827
aV8
aVnr
p5828
aV4
aVnr
p5829
aVnr
p5830
aV4
aV6
aV4
aV6
aa(lp5831
V02-11-2016
p5832
aV21
p5833
aVnr
p5834
aV7
aV3
aVnr
p5835
aV4
aVnr
p5836
aVnr
p5837
aV5
aV2
aVnr
p5838
aV5
aV4
aVnr
p5839
aVnr
p5840
aV4
aVnr
p5841
aVnr
p5842
aVnr
p5843
aVnr
p5844
aVnr
p5845
aV5
aV7
aVnr
p5846
aV6
aV5
aVnr
p5847
aV1
aV7
aVnr
p5848
aVnr
p5849
aVnr
p5850
aVnr
p5851
aV8
aVnr
p5852
aV4
aVnr
p5853
aVnr
p5854
aV4
aV6
aV4
aV6
aa(lp5855
V02-11-2016
p5856
aV21
p5857
aVnr
p5858
aV7
aV3
aVnr
p5859
aV4
aVnr
p5860
aVnr
p5861
aV5
aV2
aVnr
p5862
aV5
aV4
aVnr
p5863
aVnr
p5864
aV4
aVnr
p5865
aVnr
p5866
aVnr
p5867
aVnr
p5868
aVnr
p5869
aV5
aV7
aVnr
p5870
aV6
aV5
aVnr
p5871
aV1
aV7
aVnr
p5872
aVnr
p5873
aVnr
p5874
aVnr
p5875
aV8
aVnr
p5876
aV4
aVnr
p5877
aVnr
p5878
aV4
aV6
aV4
aV6
aa(lp5879
V02-11-2016
p5880
aV21
p5881
aVnr
p5882
aV7
aV3
aVnr
p5883
aV4
aVnr
p5884
aVnr
p5885
aV5
aV2
aVnr
p5886
aV5
aV4
aVnr
p5887
aVnr
p5888
aV4
aVnr
p5889
aVnr
p5890
aVnr
p5891
aVnr
p5892
aVnr
p5893
aV5
aV7
aVnr
p5894
aV6
aV5
aVnr
p5895
aV1
aV7
aVnr
p5896
aVnr
p5897
aVnr
p5898
aVnr
p5899
aV8
aVnr
p5900
aV4
aVnr
p5901
aVnr
p5902
aV4
aV6
aV4
aV6
aa(lp5903
V02-11-2016
p5904
aV21
p5905
aVnr
p5906
aV7
aV3
aVnr
p5907
aV4
aVnr
p5908
aVnr
p5909
aV5
aV2
aVnr
p5910
aV5
aV4
aVnr
p5911
aVnr
p5912
aV4
aVnr
p5913
aVnr
p5914
aVnr
p5915
aVnr
p5916
aVnr
p5917
aV5
aV7
aVnr
p5918
aV6
aV5
aVnr
p5919
aV1
aV7
aVnr
p5920
aVnr
p5921
aVnr
p5922
aVnr
p5923
aV8
aVnr
p5924
aV4
aVnr
p5925
aVnr
p5926
aV4
aV6
aV4
aV6
aa(lp5927
V02-11-2016
p5928
aV21
p5929
aVnr
p5930
aV7
aV3
aVnr
p5931
aV4
aVnr
p5932
aVnr
p5933
aV5
aV2
aVnr
p5934
aV5
aV4
aVnr
p5935
aVnr
p5936
aV4
aVnr
p5937
aVnr
p5938
aVnr
p5939
aVnr
p5940
aVnr
p5941
aV5
aV7
aVnr
p5942
aV6
aV5
aVnr
p5943
aV1
aV7
aVnr
p5944
aVnr
p5945
aVnr
p5946
aVnr
p5947
aV8
aVnr
p5948
aV4
aVnr
p5949
aVnr
p5950
aV4
aV6
aV4
aV6
aa(lp5951
V02-11-2016
p5952
aV21
p5953
aVnr
p5954
aV7
aV3
aVnr
p5955
aV4
aVnr
p5956
aVnr
p5957
aV5
aV2
aVnr
p5958
aV5
aV4
aVnr
p5959
aVnr
p5960
aV4
aVnr
p5961
aVnr
p5962
aVnr
p5963
aVnr
p5964
aVnr
p5965
aV5
aV7
aVnr
p5966
aV6
aV5
aVnr
p5967
aV1
aV7
aVnr
p5968
aVnr
p5969
aVnr
p5970
aVnr
p5971
aV8
aVnr
p5972
aV4
aVnr
p5973
aVnr
p5974
aV4
aV6
aV4
aV6
aa(lp5975
V02-11-2016
p5976
aV21
p5977
aVnr
p5978
aV7
aV3
aVnr
p5979
aV4
aVnr
p5980
aVnr
p5981
aV5
aV2
aVnr
p5982
aV5
aV4
aVnr
p5983
aVnr
p5984
aV4
aVnr
p5985
aVnr
p5986
aVnr
p5987
aVnr
p5988
aVnr
p5989
aV5
aV7
aVnr
p5990
aV6
aV5
aVnr
p5991
aV1
aV7
aVnr
p5992
aVnr
p5993
aVnr
p5994
aVnr
p5995
aV8
aVnr
p5996
aV4
aVnr
p5997
aVnr
p5998
aV4
aV6
aV4
aV6
aa(lp5999
V02-11-2016
p6000
aV22
p6001
aVnr
p6002
aV5
aV3
aVnr
p6003
aV4
aVnr
p6004
aVnr
p6005
aV4
aV1
aVnr
p6006
aV4
aV2
aVnr
p6007
aVnr
p6008
aV2
aVnr
p6009
aVnr
p6010
aVnr
p6011
aVnr
p6012
aVnr
p6013
aV5
aVnr
p6014
aVnr
p6015
aV7
aV4
aVnr
p6016
aV3
aV7
aVnr
p6017
aVnr
p6018
aVnr
p6019
aVnr
p6020
aV6
aVnr
p6021
aV4
aVnr
p6022
aVnr
p6023
aV3
aV5
aV3
aV8
aa(lp6024
V02-11-2016
p6025
aV22
p6026
aVnr
p6027
aV5
aV3
aVnr
p6028
aV4
aVnr
p6029
aVnr
p6030
aV4
aV1
aVnr
p6031
aV4
aV2
aVnr
p6032
aVnr
p6033
aV2
aVnr
p6034
aVnr
p6035
aVnr
p6036
aVnr
p6037
aVnr
p6038
aV5
aVnr
p6039
aVnr
p6040
aV7
aV4
aVnr
p6041
aV3
aV7
aVnr
p6042
aVnr
p6043
aVnr
p6044
aVnr
p6045
aV6
aVnr
p6046
aV4
aVnr
p6047
aVnr
p6048
aV3
aV5
aV3
aV8
aa(lp6049
V02-11-2016
p6050
aV22
p6051
aVnr
p6052
aV5
aV3
aVnr
p6053
aV4
aVnr
p6054
aVnr
p6055
aV4
aV1
aVnr
p6056
aV4
aV2
aVnr
p6057
aVnr
p6058
aV2
aVnr
p6059
aVnr
p6060
aVnr
p6061
aVnr
p6062
aVnr
p6063
aV5
aVnr
p6064
aVnr
p6065
aV7
aV4
aVnr
p6066
aV3
aV7
aVnr
p6067
aVnr
p6068
aVnr
p6069
aVnr
p6070
aV6
aVnr
p6071
aV4
aVnr
p6072
aVnr
p6073
aV3
aV5
aV3
aV8
aa(lp6074
V02-11-2016
p6075
aV23
p6076
aVnr
p6077
aV8
aVnr
p6078
aVnr
p6079
aV4
aVnr
p6080
aVnr
p6081
aV3
aV2
aVnr
p6082
aV4
aV1
aVnr
p6083
aVnr
p6084
aV2
aVnr
p6085
aVnr
p6086
aVnr
p6087
aVnr
p6088
aVnr
p6089
aV4
aV5
aVnr
p6090
aV3
aV6
aVnr
p6091
aV2
aV6
aVnr
p6092
aVnr
p6093
aVnr
p6094
aVnr
p6095
aV3
aVnr
p6096
aV3
aVnr
p6097
aVnr
p6098
aV4
aV3
aV4
aV4
aa(lp6099
V02-11-2016
p6100
aV23
p6101
aVnr
p6102
aV8
aVnr
p6103
aVnr
p6104
aV4
aVnr
p6105
aVnr
p6106
aV3
aV2
aVnr
p6107
aV4
aV1
aVnr
p6108
aVnr
p6109
aV2
aVnr
p6110
aVnr
p6111
aVnr
p6112
aVnr
p6113
aVnr
p6114
aV4
aV5
aVnr
p6115
aV3
aV6
aVnr
p6116
aV2
aV6
aVnr
p6117
aVnr
p6118
aVnr
p6119
aVnr
p6120
aV3
aVnr
p6121
aV3
aVnr
p6122
aVnr
p6123
aV4
aV3
aV4
aV4
aa(lp6124
V02-11-2016
p6125
aV23
p6126
aVnr
p6127
aV8
aVnr
p6128
aVnr
p6129
aV4
aVnr
p6130
aVnr
p6131
aV3
aV2
aVnr
p6132
aV4
aV1
aVnr
p6133
aVnr
p6134
aV2
aVnr
p6135
aVnr
p6136
aVnr
p6137
aVnr
p6138
aVnr
p6139
aV4
aV5
aVnr
p6140
aV3
aV6
aVnr
p6141
aV2
aV6
aVnr
p6142
aVnr
p6143
aVnr
p6144
aVnr
p6145
aV3
aVnr
p6146
aV3
aVnr
p6147
aVnr
p6148
aV4
aV3
aV4
aV4
aa(lp6149
V02-11-2016
p6150
aV23
p6151
aVnr
p6152
aV8
aVnr
p6153
aVnr
p6154
aV4
aVnr
p6155
aVnr
p6156
aV3
aV2
aVnr
p6157
aV4
aV1
aVnr
p6158
aVnr
p6159
aV2
aVnr
p6160
aVnr
p6161
aVnr
p6162
aVnr
p6163
aVnr
p6164
aV4
aV5
aVnr
p6165
aV3
aV6
aVnr
p6166
aV2
aV6
aVnr
p6167
aVnr
p6168
aVnr
p6169
aVnr
p6170
aV3
aVnr
p6171
aV3
aVnr
p6172
aVnr
p6173
aV4
aV3
aV4
aV4
aa(lp6174
V02-11-2016
p6175
aV24
p6176
aVnr
p6177
aV4
aV4
aVnr
p6178
aV3
aVnr
p6179
aVnr
p6180
aV2
aV2
aVnr
p6181
aV4
aV2
aVnr
p6182
aVnr
p6183
aV2
aVnr
p6184
aVnr
p6185
aVnr
p6186
aVnr
p6187
aVnr
p6188
aV3
aV3
aVnr
p6189
aV2
aV3
aVnr
p6190
aV2
aV5
aVnr
p6191
aVnr
p6192
aVnr
p6193
aVnr
p6194
aV4
aVnr
p6195
aV2
aVnr
p6196
aVnr
p6197
aV3
aV2
aV2
aV5
aa(lp6198
V05-11-2016
p6199
aV8
aVnr
p6200
aV6
aV5
aVnr
p6201
aV4
aVnr
p6202
aVnr
p6203
aV4
aV4
aVnr
p6204
aV3
aV2
aV3
aVnr
p6205
aV6
aVnr
p6206
aVnr
p6207
aVnr
p6208
aVnr
p6209
aVnr
p6210
aV6
aV4
aVnr
p6211
aV5
aV4
aVnr
p6212
aV4
aV4
aVnr
p6213
aV5
aVnr
p6214
aVnr
p6215
aV4
aVnr
p6216
aV4
aVnr
p6217
aVnr
p6218
aV4
aV6
aV3
aV4
aa(lp6219
V05-11-2016
p6220
aV9
aVnr
p6221
aV7
aVnr
p6222
aVnr
p6223
aVnr
p6224
aVnr
p6225
aVnr
p6226
aV4
aV6
aVnr
p6227
aV3
aV3
aV3
aVnr
p6228
aV6
aVnr
p6229
aVnr
p6230
aVnr
p6231
aVnr
p6232
aVnr
p6233
aV7
aV5
aVnr
p6234
aV5
aV4
aVnr
p6235
aV5
aV4
aVnr
p6236
aV7
aVnr
p6237
aVnr
p6238
aV6
aVnr
p6239
aV5
aVnr
p6240
aVnr
p6241
aV6
aV5
aV3
aV8
aa(lp6242
V07-11-2016
p6243
aV8
aVnr
p6244
aV1
aV4
aVnr
p6245
aV3
aVnr
p6246
aVnr
p6247
aV1
aVnr
p6248
aVnr
p6249
aV2
aV1
aV0
aVnr
p6250
aV2
aVnr
p6251
aVnr
p6252
aVnr
p6253
aVnr
p6254
aVnr
p6255
aV2
aV0
aVnr
p6256
aV2
aV2
aVnr
p6257
aV3
aV3
aVnr
p6258
aVnr
p6259
aVnr
p6260
aVnr
p6261
aV3
aVnr
p6262
aV2
aVnr
p6263
aVnr
p6264
aV2
aV3
aV1
aV2
aa(lp6265
V08-11-2016
p6266
aV12
p6267
aVnr
p6268
aV5
aV4
aVnr
p6269
aVnr
p6270
aVnr
p6271
aVnr
p6272
aV4
aVnr
p6273
aVnr
p6274
aV6
aV4
aV2
aVnr
p6275
aV2
aVnr
p6276
aVnr
p6277
aVnr
p6278
aVnr
p6279
aVnr
p6280
aV4
aV4
aVnr
p6281
aV4
aV4
aVnr
p6282
aV2
aV5
aVnr
p6283
aVnr
p6284
aVnr
p6285
aVnr
p6286
aV4
aVnr
p6287
aV2
aVnr
p6288
aVnr
p6289
aV4
aV4
aV3
aV2
aa(lp6290
V09-11-2016
p6291
aV12
p6292
aV5
aV4
aV4
aVnr
p6293
aV4
aVnr
p6294
aVnr
p6295
aV5
aVnr
p6296
aVnr
p6297
aV5
aV4
aV4
aV3
aV2
aVnr
p6298
aVnr
p6299
aVnr
p6300
aVnr
p6301
aVnr
p6302
aV3
aV4
aV5
aV3
aV4
aVnr
p6303
aV5
aV5
aVnr
p6304
aVnr
p6305
aVnr
p6306
aVnr
p6307
aV4
aVnr
p6308
aVnr
p6309
aVnr
p6310
aVnr
p6311
aV4
aV3
aV6
aV2
aa(lp6312
V09-11-2016
p6313
aV13
p6314
aV7
aV4
aV6
aVnr
p6315
aV3
aVnr
p6316
aVnr
p6317
aV5
aVnr
p6318
aVnr
p6319
aV4
aV5
aV5
aV4
aV2
aVnr
p6320
aVnr
p6321
aVnr
p6322
aVnr
p6323
aVnr
p6324
aV3
aV3
aV4
aV3
aV3
aVnr
p6325
aV5
aV4
aVnr
p6326
aVnr
p6327
aVnr
p6328
aVnr
p6329
aV6
aVnr
p6330
aV6
aVnr
p6331
aVnr
p6332
aV4
aV4
aV7
aV9
aa(lp6333
V09-11-2016
p6334
aV14
p6335
aV6
aV5
aV5
aVnr
p6336
aVnr
p6337
aVnr
p6338
aVnr
p6339
aV6
aVnr
p6340
aVnr
p6341
aV3
aV7
aV7
aV7
aV4
aVnr
p6342
aVnr
p6343
aVnr
p6344
aVnr
p6345
aVnr
p6346
aV4
aV4
aV3
aV6
aV2
aVnr
p6347
aV5
aV3
aVnr
p6348
aV0
aVnr
p6349
aVnr
p6350
aV5
aVnr
p6351
aV8
aVnr
p6352
aVnr
p6353
aV6
aV5
aV6
aVnr
p6354
aasS'wdr'
p6355
(lp6356
(lp6357
V02-11-2016
p6358
aV21
p6359
aVnr
p6360
aV223
p6361
aV89
p6362
aVnr
p6363
aV265
p6364
aVnr
p6365
aVnr
p6366
aVnr
p6367
aV165
p6368
aV210
p6369
aVnr
p6370
aV263
p6371
aV355
p6372
aVnr
p6373
aVnr
p6374
aV219
p6375
aVnr
p6376
aVnr
p6377
aVnr
p6378
aVnr
p6379
aVnr
p6380
aV214
p6381
aV259
p6382
aVnr
p6383
aV216
p6384
aV239
p6385
aVnr
p6386
aV121
p6387
aV233
p6388
aVnr
p6389
aVnr
p6390
aVnr
p6391
aVnr
p6392
aV252
p6393
aVnr
p6394
aV258
p6395
aVnr
p6396
aVnr
p6397
aV154
p6398
aV237
p6399
aV336
p6400
aV243
p6401
aa(lp6402
V02-11-2016
p6403
aV21
p6404
aVnr
p6405
aV223
p6406
aV89
p6407
aVnr
p6408
aV265
p6409
aVnr
p6410
aVnr
p6411
aVnr
p6412
aV165
p6413
aV210
p6414
aVnr
p6415
aV263
p6416
aV355
p6417
aVnr
p6418
aVnr
p6419
aV219
p6420
aVnr
p6421
aVnr
p6422
aVnr
p6423
aVnr
p6424
aVnr
p6425
aV214
p6426
aV259
p6427
aVnr
p6428
aV216
p6429
aV239
p6430
aVnr
p6431
aV121
p6432
aV233
p6433
aVnr
p6434
aVnr
p6435
aVnr
p6436
aVnr
p6437
aV252
p6438
aVnr
p6439
aV258
p6440
aVnr
p6441
aVnr
p6442
aV154
p6443
aV237
p6444
aV336
p6445
aV243
p6446
aa(lp6447
V02-11-2016
p6448
aV21
p6449
aVnr
p6450
aV223
p6451
aV89
p6452
aVnr
p6453
aV265
p6454
aVnr
p6455
aVnr
p6456
aVnr
p6457
aV165
p6458
aV210
p6459
aVnr
p6460
aV263
p6461
aV355
p6462
aVnr
p6463
aVnr
p6464
aV219
p6465
aVnr
p6466
aVnr
p6467
aVnr
p6468
aVnr
p6469
aVnr
p6470
aV214
p6471
aV259
p6472
aVnr
p6473
aV216
p6474
aV239
p6475
aVnr
p6476
aV121
p6477
aV233
p6478
aVnr
p6479
aVnr
p6480
aVnr
p6481
aVnr
p6482
aV252
p6483
aVnr
p6484
aV258
p6485
aVnr
p6486
aVnr
p6487
aV154
p6488
aV237
p6489
aV336
p6490
aV243
p6491
aa(lp6492
V02-11-2016
p6493
aV21
p6494
aVnr
p6495
aV223
p6496
aV89
p6497
aVnr
p6498
aV265
p6499
aVnr
p6500
aVnr
p6501
aVnr
p6502
aV165
p6503
aV210
p6504
aVnr
p6505
aV263
p6506
aV355
p6507
aVnr
p6508
aVnr
p6509
aV219
p6510
aVnr
p6511
aVnr
p6512
aVnr
p6513
aVnr
p6514
aVnr
p6515
aV214
p6516
aV259
p6517
aVnr
p6518
aV216
p6519
aV239
p6520
aVnr
p6521
aV121
p6522
aV233
p6523
aVnr
p6524
aVnr
p6525
aVnr
p6526
aVnr
p6527
aV252
p6528
aVnr
p6529
aV258
p6530
aVnr
p6531
aVnr
p6532
aV154
p6533
aV237
p6534
aV336
p6535
aV243
p6536
aa(lp6537
V02-11-2016
p6538
aV21
p6539
aVnr
p6540
aV223
p6541
aV89
p6542
aVnr
p6543
aV265
p6544
aVnr
p6545
aVnr
p6546
aVnr
p6547
aV165
p6548
aV210
p6549
aVnr
p6550
aV263
p6551
aV355
p6552
aVnr
p6553
aVnr
p6554
aV219
p6555
aVnr
p6556
aVnr
p6557
aVnr
p6558
aVnr
p6559
aVnr
p6560
aV214
p6561
aV259
p6562
aVnr
p6563
aV216
p6564
aV239
p6565
aVnr
p6566
aV121
p6567
aV233
p6568
aVnr
p6569
aVnr
p6570
aVnr
p6571
aVnr
p6572
aV252
p6573
aVnr
p6574
aV258
p6575
aVnr
p6576
aVnr
p6577
aV154
p6578
aV237
p6579
aV336
p6580
aV243
p6581
aa(lp6582
V02-11-2016
p6583
aV21
p6584
aVnr
p6585
aV223
p6586
aV89
p6587
aVnr
p6588
aV265
p6589
aVnr
p6590
aVnr
p6591
aVnr
p6592
aV165
p6593
aV210
p6594
aVnr
p6595
aV263
p6596
aV355
p6597
aVnr
p6598
aVnr
p6599
aV219
p6600
aVnr
p6601
aVnr
p6602
aVnr
p6603
aVnr
p6604
aVnr
p6605
aV214
p6606
aV259
p6607
aVnr
p6608
aV216
p6609
aV239
p6610
aVnr
p6611
aV121
p6612
aV233
p6613
aVnr
p6614
aVnr
p6615
aVnr
p6616
aVnr
p6617
aV252
p6618
aVnr
p6619
aV258
p6620
aVnr
p6621
aVnr
p6622
aV154
p6623
aV237
p6624
aV336
p6625
aV243
p6626
aa(lp6627
V02-11-2016
p6628
aV21
p6629
aVnr
p6630
aV223
p6631
aV89
p6632
aVnr
p6633
aV265
p6634
aVnr
p6635
aVnr
p6636
aVnr
p6637
aV165
p6638
aV210
p6639
aVnr
p6640
aV263
p6641
aV355
p6642
aVnr
p6643
aVnr
p6644
aV219
p6645
aVnr
p6646
aVnr
p6647
aVnr
p6648
aVnr
p6649
aVnr
p6650
aV214
p6651
aV259
p6652
aVnr
p6653
aV216
p6654
aV239
p6655
aVnr
p6656
aV121
p6657
aV233
p6658
aVnr
p6659
aVnr
p6660
aVnr
p6661
aVnr
p6662
aV252
p6663
aVnr
p6664
aV258
p6665
aVnr
p6666
aVnr
p6667
aV154
p6668
aV237
p6669
aV336
p6670
aV243
p6671
aa(lp6672
V02-11-2016
p6673
aV21
p6674
aVnr
p6675
aV223
p6676
aV89
p6677
aVnr
p6678
aV265
p6679
aVnr
p6680
aVnr
p6681
aVnr
p6682
aV165
p6683
aV210
p6684
aVnr
p6685
aV263
p6686
aV355
p6687
aVnr
p6688
aVnr
p6689
aV219
p6690
aVnr
p6691
aVnr
p6692
aVnr
p6693
aVnr
p6694
aVnr
p6695
aV214
p6696
aV259
p6697
aVnr
p6698
aV216
p6699
aV239
p6700
aVnr
p6701
aV121
p6702
aV233
p6703
aVnr
p6704
aVnr
p6705
aVnr
p6706
aVnr
p6707
aV252
p6708
aVnr
p6709
aV258
p6710
aVnr
p6711
aVnr
p6712
aV154
p6713
aV237
p6714
aV336
p6715
aV243
p6716
aa(lp6717
V02-11-2016
p6718
aV22
p6719
aVnr
p6720
aV207
p6721
aV292
p6722
aVnr
p6723
aV198
p6724
aVnr
p6725
aVnr
p6726
aVnr
p6727
aV156
p6728
aV338
p6729
aVnr
p6730
aV237
p6731
aV320
p6732
aVnr
p6733
aVnr
p6734
aV221
p6735
aVnr
p6736
aVnr
p6737
aVnr
p6738
aVnr
p6739
aVnr
p6740
aV227
p6741
aVnr
p6742
aVnr
p6743
aV219
p6744
aV184
p6745
aVnr
p6746
aV219
p6747
aV225
p6748
aVnr
p6749
aVnr
p6750
aVnr
p6751
aVnr
p6752
aV233
p6753
aVnr
p6754
aV235
p6755
aVnr
p6756
aVnr
p6757
aV234
p6758
aV229
p6759
aV261
p6760
aV236
p6761
aa(lp6762
V02-11-2016
p6763
aV22
p6764
aVnr
p6765
aV207
p6766
aV292
p6767
aVnr
p6768
aV198
p6769
aVnr
p6770
aVnr
p6771
aVnr
p6772
aV156
p6773
aV338
p6774
aVnr
p6775
aV237
p6776
aV320
p6777
aVnr
p6778
aVnr
p6779
aV221
p6780
aVnr
p6781
aVnr
p6782
aVnr
p6783
aVnr
p6784
aVnr
p6785
aV227
p6786
aVnr
p6787
aVnr
p6788
aV219
p6789
aV184
p6790
aVnr
p6791
aV219
p6792
aV225
p6793
aVnr
p6794
aVnr
p6795
aVnr
p6796
aVnr
p6797
aV233
p6798
aVnr
p6799
aV235
p6800
aVnr
p6801
aVnr
p6802
aV234
p6803
aV229
p6804
aV261
p6805
aV236
p6806
aa(lp6807
V02-11-2016
p6808
aV22
p6809
aVnr
p6810
aV207
p6811
aV292
p6812
aVnr
p6813
aV198
p6814
aVnr
p6815
aVnr
p6816
aVnr
p6817
aV156
p6818
aV338
p6819
aVnr
p6820
aV237
p6821
aV320
p6822
aVnr
p6823
aVnr
p6824
aV221
p6825
aVnr
p6826
aVnr
p6827
aVnr
p6828
aVnr
p6829
aVnr
p6830
aV227
p6831
aVnr
p6832
aVnr
p6833
aV219
p6834
aV184
p6835
aVnr
p6836
aV219
p6837
aV225
p6838
aVnr
p6839
aVnr
p6840
aVnr
p6841
aVnr
p6842
aV233
p6843
aVnr
p6844
aV235
p6845
aVnr
p6846
aVnr
p6847
aV234
p6848
aV229
p6849
aV261
p6850
aV236
p6851
aa(lp6852
V02-11-2016
p6853
aV23
p6854
aVnr
p6855
aV212
p6856
aV221
p6857
aVnr
p6858
aV266
p6859
aVnr
p6860
aVnr
p6861
aVnr
p6862
aV138
p6863
aV33
p6864
aVnr
p6865
aV235
p6866
aV300
p6867
aVnr
p6868
aVnr
p6869
aV289
p6870
aVnr
p6871
aVnr
p6872
aVnr
p6873
aVnr
p6874
aVnr
p6875
aV298
p6876
aV266
p6877
aVnr
p6878
aV279
p6879
aV230
p6880
aVnr
p6881
aV229
p6882
aV227
p6883
aVnr
p6884
aVnr
p6885
aVnr
p6886
aVnr
p6887
aV216
p6888
aVnr
p6889
aV252
p6890
aVnr
p6891
aVnr
p6892
aV206
p6893
aV8
aV246
p6894
aV231
p6895
aa(lp6896
V02-11-2016
p6897
aV23
p6898
aVnr
p6899
aV212
p6900
aV221
p6901
aVnr
p6902
aV266
p6903
aVnr
p6904
aVnr
p6905
aVnr
p6906
aV138
p6907
aV33
p6908
aVnr
p6909
aV235
p6910
aV300
p6911
aVnr
p6912
aVnr
p6913
aV289
p6914
aVnr
p6915
aVnr
p6916
aVnr
p6917
aVnr
p6918
aVnr
p6919
aV298
p6920
aV266
p6921
aVnr
p6922
aV279
p6923
aV230
p6924
aVnr
p6925
aV229
p6926
aV227
p6927
aVnr
p6928
aVnr
p6929
aVnr
p6930
aVnr
p6931
aV216
p6932
aVnr
p6933
aV252
p6934
aVnr
p6935
aVnr
p6936
aV206
p6937
aV8
aV246
p6938
aV231
p6939
aa(lp6940
V02-11-2016
p6941
aV23
p6942
aVnr
p6943
aV212
p6944
aV221
p6945
aVnr
p6946
aV266
p6947
aVnr
p6948
aVnr
p6949
aVnr
p6950
aV138
p6951
aV33
p6952
aVnr
p6953
aV235
p6954
aV300
p6955
aVnr
p6956
aVnr
p6957
aV289
p6958
aVnr
p6959
aVnr
p6960
aVnr
p6961
aVnr
p6962
aVnr
p6963
aV298
p6964
aV266
p6965
aVnr
p6966
aV279
p6967
aV230
p6968
aVnr
p6969
aV229
p6970
aV227
p6971
aVnr
p6972
aVnr
p6973
aVnr
p6974
aVnr
p6975
aV216
p6976
aVnr
p6977
aV252
p6978
aVnr
p6979
aVnr
p6980
aV206
p6981
aV8
aV246
p6982
aV231
p6983
aa(lp6984
V02-11-2016
p6985
aV23
p6986
aVnr
p6987
aV212
p6988
aV221
p6989
aVnr
p6990
aV266
p6991
aVnr
p6992
aVnr
p6993
aVnr
p6994
aV138
p6995
aV33
p6996
aVnr
p6997
aV235
p6998
aV300
p6999
aVnr
p7000
aVnr
p7001
aV289
p7002
aVnr
p7003
aVnr
p7004
aVnr
p7005
aVnr
p7006
aVnr
p7007
aV298
p7008
aV266
p7009
aVnr
p7010
aV279
p7011
aV230
p7012
aVnr
p7013
aV229
p7014
aV227
p7015
aVnr
p7016
aVnr
p7017
aVnr
p7018
aVnr
p7019
aV216
p7020
aVnr
p7021
aV252
p7022
aVnr
p7023
aVnr
p7024
aV206
p7025
aV8
aV246
p7026
aV231
p7027
aa(lp7028
V02-11-2016
p7029
aV24
p7030
aVnr
p7031
aV164
p7032
aV200
p7033
aVnr
p7034
aV31
p7035
aVnr
p7036
aVnr
p7037
aVnr
p7038
aV87
p7039
aV117
p7040
aVnr
p7041
aV210
p7042
aV318
p7043
aVnr
p7044
aVnr
p7045
aV253
p7046
aVnr
p7047
aVnr
p7048
aVnr
p7049
aVnr
p7050
aVnr
p7051
aV302
p7052
aV334
p7053
aVnr
p7054
aV155
p7055
aV155
p7056
aVnr
p7057
aV92
p7058
aV216
p7059
aVnr
p7060
aVnr
p7061
aVnr
p7062
aVnr
p7063
aV152
p7064
aVnr
p7065
aV284
p7066
aVnr
p7067
aVnr
p7068
aV111
p7069
aV90
p7070
aV266
p7071
aV47
p7072
aa(lp7073
V05-11-2016
p7074
aV8
aVnr
p7075
aV316
p7076
aV5
aVnr
p7077
aV313
p7078
aVnr
p7079
aVnr
p7080
aVnr
p7081
aV332
p7082
aV317
p7083
aVnr
p7084
aV22
p7085
aV339
p7086
aV289
p7087
aVnr
p7088
aV260
p7089
aVnr
p7090
aVnr
p7091
aVnr
p7092
aVnr
p7093
aVnr
p7094
aV304
p7095
aV325
p7096
aVnr
p7097
aV307
p7098
aV301
p7099
aVnr
p7100
aV16
p7101
aV322
p7102
aVnr
p7103
aV311
p7104
aVnr
p7105
aVnr
p7106
aV273
p7107
aVnr
p7108
aV307
p7109
aVnr
p7110
aVnr
p7111
aV302
p7112
aV312
p7113
aV301
p7114
aV344
p7115
aa(lp7116
V05-11-2016
p7117
aV9
aVnr
p7118
aV296
p7119
aV355
p7120
aVnr
p7121
aV311
p7122
aVnr
p7123
aVnr
p7124
aVnr
p7125
aV331
p7126
aV313
p7127
aVnr
p7128
aV327
p7129
aV1
aV271
p7130
aVnr
p7131
aV268
p7132
aVnr
p7133
aVnr
p7134
aVnr
p7135
aVnr
p7136
aVnr
p7137
aV300
p7138
aV327
p7139
aVnr
p7140
aV340
p7141
aV290
p7142
aVnr
p7143
aV357
p7144
aV315
p7145
aVnr
p7146
aV307
p7147
aVnr
p7148
aVnr
p7149
aV278
p7150
aVnr
p7151
aV294
p7152
aVnr
p7153
aVnr
p7154
aV310
p7155
aV326
p7156
aV323
p7157
aV13
p7158
aa(lp7159
V07-11-2016
p7160
aV8
aVnr
p7161
aV213
p7162
aV186
p7163
aVnr
p7164
aV103
p7165
aVnr
p7166
aVnr
p7167
aVnr
p7168
aV179
p7169
aV98
p7170
aVnr
p7171
aV189
p7172
aV263
p7173
aV249
p7174
aVnr
p7175
aV47
p7176
aVnr
p7177
aVnr
p7178
aVnr
p7179
aVnr
p7180
aVnr
p7181
aV100
p7182
aV51
p7183
aVnr
p7184
aV25
p7185
aV175
p7186
aVnr
p7187
aV29
p7188
aV210
p7189
aVnr
p7190
aVnr
p7191
aVnr
p7192
aVnr
p7193
aV295
p7194
aVnr
p7195
aV257
p7196
aVnr
p7197
aVnr
p7198
aV59
p7199
aV47
p7200
aV315
p7201
aV95
p7202
aa(lp7203
V08-11-2016
p7204
aV12
p7205
aVnr
p7206
aV29
p7207
aV45
p7208
aVnr
p7209
aV178
p7210
aVnr
p7211
aVnr
p7212
aVnr
p7213
aV274
p7214
aVnr
p7215
aVnr
p7216
aV99
p7217
aV67
p7218
aV33
p7219
aVnr
p7220
aV72
p7221
aVnr
p7222
aVnr
p7223
aVnr
p7224
aVnr
p7225
aVnr
p7226
aV93
p7227
aV82
p7228
aVnr
p7229
aV106
p7230
aV35
p7231
aVnr
p7232
aV339
p7233
aV70
p7234
aVnr
p7235
aVnr
p7236
aVnr
p7237
aVnr
p7238
aV68
p7239
aVnr
p7240
aV140
p7241
aVnr
p7242
aVnr
p7243
aV346
p7244
aV168
p7245
aV335
p7246
aV234
p7247
aa(lp7248
V09-11-2016
p7249
aV12
p7250
aV323
p7251
aV19
p7252
aV9
aVnr
p7253
aV48
p7254
aVnr
p7255
aVnr
p7256
aVnr
p7257
aV316
p7258
aVnr
p7259
aVnr
p7260
aV31
p7261
aV353
p7262
aV339
p7263
aV205
p7264
aV281
p7265
aVnr
p7266
aVnr
p7267
aVnr
p7268
aVnr
p7269
aVnr
p7270
aV289
p7271
aV4
aV359
p7272
aV307
p7273
aV34
p7274
aVnr
p7275
aV16
p7276
aV39
p7277
aVnr
p7278
aVnr
p7279
aVnr
p7280
aVnr
p7281
aV314
p7282
aVnr
p7283
aV318
p7284
aVnr
p7285
aVnr
p7286
aV342
p7287
aV357
p7288
aV347
p7289
aV29
p7290
aa(lp7291
V09-11-2016
p7292
aV13
p7293
aV42
p7294
aV1
aV19
p7295
aVnr
p7296
aV306
p7297
aVnr
p7298
aVnr
p7299
aVnr
p7300
aV329
p7301
aVnr
p7302
aVnr
p7303
aV24
p7304
aV4
aV349
p7305
aV0
aV299
p7306
aVnr
p7307
aVnr
p7308
aVnr
p7309
aVnr
p7310
aVnr
p7311
aV324
p7312
aV11
p7313
aV335
p7314
aV331
p7315
aV44
p7316
aVnr
p7317
aV2
aV42
p7318
aVnr
p7319
aVnr
p7320
aVnr
p7321
aVnr
p7322
aV286
p7323
aVnr
p7324
aV337
p7325
aVnr
p7326
aVnr
p7327
aV298
p7328
aV322
p7329
aV355
p7330
aV19
p7331
aa(lp7332
V09-11-2016
p7333
aV14
p7334
aV12
p7335
aV311
p7336
aV30
p7337
aVnr
p7338
aV238
p7339
aVnr
p7340
aVnr
p7341
aVnr
p7342
aV347
p7343
aVnr
p7344
aVnr
p7345
aV76
p7346
aV347
p7347
aV331
p7348
aV7
aV282
p7349
aVnr
p7350
aVnr
p7351
aVnr
p7352
aVnr
p7353
aVnr
p7354
aV0
aV351
p7355
aV322
p7356
aV328
p7357
aV253
p7358
aVnr
p7359
aV345
p7360
aV96
p7361
aVnr
p7362
aV330
p7363
aVnr
p7364
aVnr
p7365
aV295
p7366
aVnr
p7367
aV338
p7368
aVnr
p7369
aVnr
p7370
aV301
p7371
aV316
p7372
aV333
p7373
aV356
p7374
aasS'so2'
p7375
(lp7376
(lp7377
V02-11-2016
p7378
aV21
p7379
aV1
aV1
aVnr
p7380
aVnr
p7381
aV1
aVnr
p7382
aV4
aVnr
p7383
aV2
aVnr
p7384
aV2
aV1
aVnr
p7385
aV3
aV2
aVnr
p7386
aVnr
p7387
aV3
aV1
aV4
aVnr
p7388
aV3
aVnr
p7389
aVnr
p7390
aVnr
p7391
aV2
aV2
aV3
aV2
aVnr
p7392
aV3
aVnr
p7393
aV5
aVnr
p7394
aVnr
p7395
aV2
aVnr
p7396
aVnr
p7397
aV4
aV3
aVnr
p7398
aVnr
p7399
aV4
aVnr
p7400
aV1
aV4
aa(lp7401
V02-11-2016
p7402
aV21
p7403
aV1
aV1
aVnr
p7404
aVnr
p7405
aV1
aVnr
p7406
aV4
aVnr
p7407
aV2
aVnr
p7408
aV2
aV1
aVnr
p7409
aV3
aV2
aVnr
p7410
aVnr
p7411
aV3
aV1
aV4
aVnr
p7412
aV3
aVnr
p7413
aVnr
p7414
aVnr
p7415
aV2
aV2
aV3
aV2
aVnr
p7416
aV3
aVnr
p7417
aV5
aVnr
p7418
aVnr
p7419
aV2
aVnr
p7420
aVnr
p7421
aV4
aV3
aVnr
p7422
aVnr
p7423
aV4
aVnr
p7424
aV1
aV4
aa(lp7425
V02-11-2016
p7426
aV21
p7427
aV1
aV1
aVnr
p7428
aVnr
p7429
aV1
aVnr
p7430
aV4
aVnr
p7431
aV2
aVnr
p7432
aV2
aV1
aVnr
p7433
aV3
aV2
aVnr
p7434
aVnr
p7435
aV3
aV1
aV4
aVnr
p7436
aV3
aVnr
p7437
aVnr
p7438
aVnr
p7439
aV2
aV2
aV3
aV2
aVnr
p7440
aV3
aVnr
p7441
aV5
aVnr
p7442
aVnr
p7443
aV2
aVnr
p7444
aVnr
p7445
aV4
aV3
aVnr
p7446
aVnr
p7447
aV4
aVnr
p7448
aV1
aV4
aa(lp7449
V02-11-2016
p7450
aV21
p7451
aV1
aV1
aVnr
p7452
aVnr
p7453
aV1
aVnr
p7454
aV4
aVnr
p7455
aV2
aVnr
p7456
aV2
aV1
aVnr
p7457
aV3
aV2
aVnr
p7458
aVnr
p7459
aV3
aV1
aV4
aVnr
p7460
aV3
aVnr
p7461
aVnr
p7462
aVnr
p7463
aV2
aV2
aV3
aV2
aVnr
p7464
aV3
aVnr
p7465
aV5
aVnr
p7466
aVnr
p7467
aV2
aVnr
p7468
aVnr
p7469
aV4
aV3
aVnr
p7470
aVnr
p7471
aV4
aVnr
p7472
aV1
aV4
aa(lp7473
V02-11-2016
p7474
aV21
p7475
aV1
aV1
aVnr
p7476
aVnr
p7477
aV1
aVnr
p7478
aV4
aVnr
p7479
aV2
aVnr
p7480
aV2
aV1
aVnr
p7481
aV3
aV2
aVnr
p7482
aVnr
p7483
aV3
aV1
aV4
aVnr
p7484
aV3
aVnr
p7485
aVnr
p7486
aVnr
p7487
aV2
aV2
aV3
aV2
aVnr
p7488
aV3
aVnr
p7489
aV5
aVnr
p7490
aVnr
p7491
aV2
aVnr
p7492
aVnr
p7493
aV4
aV3
aVnr
p7494
aVnr
p7495
aV4
aVnr
p7496
aV1
aV4
aa(lp7497
V02-11-2016
p7498
aV21
p7499
aV1
aV1
aVnr
p7500
aVnr
p7501
aV1
aVnr
p7502
aV4
aVnr
p7503
aV2
aVnr
p7504
aV2
aV1
aVnr
p7505
aV3
aV2
aVnr
p7506
aVnr
p7507
aV3
aV1
aV4
aVnr
p7508
aV3
aVnr
p7509
aVnr
p7510
aVnr
p7511
aV2
aV2
aV3
aV2
aVnr
p7512
aV3
aVnr
p7513
aV5
aVnr
p7514
aVnr
p7515
aV2
aVnr
p7516
aVnr
p7517
aV4
aV3
aVnr
p7518
aVnr
p7519
aV4
aVnr
p7520
aV1
aV4
aa(lp7521
V02-11-2016
p7522
aV21
p7523
aV1
aV1
aVnr
p7524
aVnr
p7525
aV1
aVnr
p7526
aV4
aVnr
p7527
aV2
aVnr
p7528
aV2
aV1
aVnr
p7529
aV3
aV2
aVnr
p7530
aVnr
p7531
aV3
aV1
aV4
aVnr
p7532
aV3
aVnr
p7533
aVnr
p7534
aVnr
p7535
aV2
aV2
aV3
aV2
aVnr
p7536
aV3
aVnr
p7537
aV5
aVnr
p7538
aVnr
p7539
aV2
aVnr
p7540
aVnr
p7541
aV4
aV3
aVnr
p7542
aVnr
p7543
aV4
aVnr
p7544
aV1
aV4
aa(lp7545
V02-11-2016
p7546
aV21
p7547
aV1
aV1
aVnr
p7548
aVnr
p7549
aV1
aVnr
p7550
aV4
aVnr
p7551
aV2
aVnr
p7552
aV2
aV1
aVnr
p7553
aV3
aV2
aVnr
p7554
aVnr
p7555
aV3
aV1
aV4
aVnr
p7556
aV3
aVnr
p7557
aVnr
p7558
aVnr
p7559
aV2
aV2
aV3
aV2
aVnr
p7560
aV3
aVnr
p7561
aV5
aVnr
p7562
aVnr
p7563
aV2
aVnr
p7564
aVnr
p7565
aV4
aV3
aVnr
p7566
aVnr
p7567
aV4
aVnr
p7568
aV1
aV4
aa(lp7569
V02-11-2016
p7570
aV22
p7571
aV1
aV2
aVnr
p7572
aVnr
p7573
aV1
aVnr
p7574
aV2
aVnr
p7575
aV1
aVnr
p7576
aV2
aV1
aVnr
p7577
aV3
aV1
aVnr
p7578
aVnr
p7579
aV2
aV1
aV2
aVnr
p7580
aV2
aV3
aVnr
p7581
aVnr
p7582
aVnr
p7583
aV2
aV2
aV2
aVnr
p7584
aV5
aVnr
p7585
aV4
aVnr
p7586
aVnr
p7587
aV3
aVnr
p7588
aVnr
p7589
aV4
aV3
aVnr
p7590
aVnr
p7591
aV2
aVnr
p7592
aV1
aV5
aa(lp7593
V02-11-2016
p7594
aV22
p7595
aV1
aV2
aVnr
p7596
aVnr
p7597
aV1
aVnr
p7598
aV2
aVnr
p7599
aV1
aVnr
p7600
aV2
aV1
aVnr
p7601
aV3
aV1
aVnr
p7602
aVnr
p7603
aV2
aV1
aV2
aVnr
p7604
aV2
aV3
aVnr
p7605
aVnr
p7606
aVnr
p7607
aV2
aV2
aV2
aVnr
p7608
aV5
aVnr
p7609
aV4
aVnr
p7610
aVnr
p7611
aV3
aVnr
p7612
aVnr
p7613
aV4
aV3
aVnr
p7614
aVnr
p7615
aV2
aVnr
p7616
aV1
aV5
aa(lp7617
V02-11-2016
p7618
aV22
p7619
aV1
aV2
aVnr
p7620
aVnr
p7621
aV1
aVnr
p7622
aV2
aVnr
p7623
aV1
aVnr
p7624
aV2
aV1
aVnr
p7625
aV3
aV1
aVnr
p7626
aVnr
p7627
aV2
aV1
aV2
aVnr
p7628
aV2
aV3
aVnr
p7629
aVnr
p7630
aVnr
p7631
aV2
aV2
aV2
aVnr
p7632
aV5
aVnr
p7633
aV4
aVnr
p7634
aVnr
p7635
aV3
aVnr
p7636
aVnr
p7637
aV4
aV3
aVnr
p7638
aVnr
p7639
aV2
aVnr
p7640
aV1
aV5
aa(lp7641
V02-11-2016
p7642
aV22
p7643
aV1
aV2
aVnr
p7644
aVnr
p7645
aV1
aVnr
p7646
aV2
aVnr
p7647
aV1
aVnr
p7648
aV2
aV1
aVnr
p7649
aV3
aV1
aVnr
p7650
aVnr
p7651
aV2
aV1
aV2
aVnr
p7652
aV2
aV3
aVnr
p7653
aVnr
p7654
aVnr
p7655
aV2
aV2
aV2
aVnr
p7656
aV5
aVnr
p7657
aV4
aVnr
p7658
aVnr
p7659
aV3
aVnr
p7660
aVnr
p7661
aV4
aV3
aVnr
p7662
aVnr
p7663
aV2
aVnr
p7664
aV1
aV5
aa(lp7665
V02-11-2016
p7666
aV23
p7667
aV2
aV4
aVnr
p7668
aVnr
p7669
aV1
aVnr
p7670
aV2
aVnr
p7671
aV1
aVnr
p7672
aV2
aV2
aVnr
p7673
aV3
aV1
aVnr
p7674
aVnr
p7675
aV2
aV1
aV2
aVnr
p7676
aV3
aV3
aVnr
p7677
aVnr
p7678
aV2
aV2
aV2
aV2
aVnr
p7679
aV6
aVnr
p7680
aV3
aVnr
p7681
aVnr
p7682
aV3
aVnr
p7683
aVnr
p7684
aV3
aV3
aVnr
p7685
aVnr
p7686
aV2
aVnr
p7687
aV1
aV5
aa(lp7688
V02-11-2016
p7689
aV23
p7690
aV2
aV4
aVnr
p7691
aVnr
p7692
aV1
aVnr
p7693
aV2
aVnr
p7694
aV1
aVnr
p7695
aV2
aV2
aVnr
p7696
aV3
aV1
aVnr
p7697
aVnr
p7698
aV2
aV1
aV2
aVnr
p7699
aV3
aV3
aVnr
p7700
aVnr
p7701
aV2
aV2
aV2
aV2
aVnr
p7702
aV6
aVnr
p7703
aV3
aVnr
p7704
aVnr
p7705
aV3
aVnr
p7706
aVnr
p7707
aV3
aV3
aVnr
p7708
aVnr
p7709
aV2
aVnr
p7710
aV1
aV5
aa(lp7711
V02-11-2016
p7712
aV23
p7713
aV2
aV4
aVnr
p7714
aVnr
p7715
aV1
aVnr
p7716
aV2
aVnr
p7717
aV1
aVnr
p7718
aV2
aV2
aVnr
p7719
aV3
aV1
aVnr
p7720
aVnr
p7721
aV2
aV1
aV2
aVnr
p7722
aV3
aV3
aVnr
p7723
aVnr
p7724
aV2
aV2
aV2
aV2
aVnr
p7725
aV6
aVnr
p7726
aV3
aVnr
p7727
aVnr
p7728
aV3
aVnr
p7729
aVnr
p7730
aV3
aV3
aVnr
p7731
aVnr
p7732
aV2
aVnr
p7733
aV1
aV5
aa(lp7734
V02-11-2016
p7735
aV24
p7736
aV2
aV10
p7737
aVnr
p7738
aVnr
p7739
aV0
aVnr
p7740
aV2
aVnr
p7741
aV1
aVnr
p7742
aV2
aV2
aVnr
p7743
aV4
aV1
aVnr
p7744
aVnr
p7745
aV2
aV2
aV2
aVnr
p7746
aV3
aV3
aVnr
p7747
aVnr
p7748
aV2
aV2
aV2
aV2
aVnr
p7749
aV5
aVnr
p7750
aV4
aVnr
p7751
aVnr
p7752
aV2
aVnr
p7753
aVnr
p7754
aV3
aV3
aVnr
p7755
aVnr
p7756
aV2
aVnr
p7757
aV2
aV4
aa(lp7758
V05-11-2016
p7759
aV8
aVnr
p7760
aV1
aVnr
p7761
aVnr
p7762
aV0
aVnr
p7763
aV3
aV3
aV2
aVnr
p7764
aV1
aV2
aVnr
p7765
aV2
aV1
aV1
aVnr
p7766
aV4
aV1
aV2
aVnr
p7767
aV2
aVnr
p7768
aVnr
p7769
aV4
aV2
aV1
aV1
aV2
aVnr
p7770
aV2
aVnr
p7771
aV2
aVnr
p7772
aVnr
p7773
aV2
aVnr
p7774
aVnr
p7775
aV3
aV2
aVnr
p7776
aV2
aV2
aVnr
p7777
aV0
aV2
aa(lp7778
V05-11-2016
p7779
aV9
aVnr
p7780
aV1
aVnr
p7781
aVnr
p7782
aV0
aVnr
p7783
aV2
aV3
aV1
aVnr
p7784
aV1
aV1
aVnr
p7785
aV2
aV1
aV0
aVnr
p7786
aV4
aV1
aV2
aVnr
p7787
aV2
aV1
aVnr
p7788
aV4
aV2
aV1
aV1
aV2
aVnr
p7789
aV3
aVnr
p7790
aV2
aVnr
p7791
aVnr
p7792
aV2
aVnr
p7793
aVnr
p7794
aV2
aV2
aVnr
p7795
aV1
aV2
aVnr
p7796
aV1
aV2
aa(lp7797
V07-11-2016
p7798
aV8
aV2
aV2
aVnr
p7799
aVnr
p7800
aV1
aVnr
p7801
aV6
aV6
aV4
aVnr
p7802
aV2
aV2
aVnr
p7803
aV5
aV2
aV4
aVnr
p7804
aV4
aV1
aV6
aVnr
p7805
aV6
aV4
aVnr
p7806
aV7
aV4
aV2
aV1
aV4
aVnr
p7807
aV6
aVnr
p7808
aV5
aVnr
p7809
aVnr
p7810
aV3
aVnr
p7811
aVnr
p7812
aV6
aV6
aVnr
p7813
aV4
aV5
aVnr
p7814
aV3
aV13
p7815
aa(lp7816
V08-11-2016
p7817
aV12
p7818
aV32
p7819
aV8
aVnr
p7820
aVnr
p7821
aV9
aVnr
p7822
aV17
p7823
aV16
p7824
aV14
p7825
aVnr
p7826
aV16
p7827
aV13
p7828
aVnr
p7829
aV12
p7830
aV33
p7831
aV14
p7832
aVnr
p7833
aV15
p7834
aV5
aV20
p7835
aVnr
p7836
aV26
p7837
aV16
p7838
aVnr
p7839
aV20
p7840
aV16
p7841
aV6
aV28
p7842
aV15
p7843
aVnr
p7844
aV23
p7845
aVnr
p7846
aV19
p7847
aVnr
p7848
aVnr
p7849
aV11
p7850
aVnr
p7851
aVnr
p7852
aV16
p7853
aV16
p7854
aVnr
p7855
aV14
p7856
aV22
p7857
aVnr
p7858
aV50
p7859
aV22
p7860
aa(lp7861
V09-11-2016
p7862
aV12
p7863
aV1
aV2
aVnr
p7864
aVnr
p7865
aV0
aVnr
p7866
aV4
aV3
aV3
aVnr
p7867
aV1
aVnr
p7868
aVnr
p7869
aV2
aV2
aV2
aVnr
p7870
aV5
aV1
aV2
aVnr
p7871
aV2
aVnr
p7872
aVnr
p7873
aV4
aV4
aV2
aV1
aV3
aVnr
p7874
aV2
aVnr
p7875
aV3
aVnr
p7876
aVnr
p7877
aV3
aVnr
p7878
aVnr
p7879
aV4
aV2
aVnr
p7880
aV3
aV3
aVnr
p7881
aV0
aV3
aa(lp7882
V09-11-2016
p7883
aV13
p7884
aV1
aV2
aVnr
p7885
aVnr
p7886
aV0
aVnr
p7887
aV3
aV3
aV3
aVnr
p7888
aV1
aVnr
p7889
aVnr
p7890
aV3
aV2
aV2
aVnr
p7891
aV4
aV1
aV2
aVnr
p7892
aV2
aV1
aVnr
p7893
aV3
aV3
aV2
aV1
aV4
aVnr
p7894
aVnr
p7895
aVnr
p7896
aV2
aVnr
p7897
aVnr
p7898
aV3
aVnr
p7899
aVnr
p7900
aV4
aV2
aVnr
p7901
aV2
aV3
aVnr
p7902
aV0
aV2
aa(lp7903
V09-11-2016
p7904
aV14
p7905
aV1
aV1
aVnr
p7906
aVnr
p7907
aV0
aVnr
p7908
aV3
aV2
aV2
aVnr
p7909
aV1
aVnr
p7910
aVnr
p7911
aV3
aV1
aV1
aVnr
p7912
aV3
aV1
aV2
aVnr
p7913
aV2
aV1
aVnr
p7914
aV3
aV2
aV2
aV1
aV3
aVnr
p7915
aVnr
p7916
aVnr
p7917
aV2
aVnr
p7918
aVnr
p7919
aV3
aVnr
p7920
aVnr
p7921
aV4
aV1
aVnr
p7922
aV2
aV2
aVnr
p7923
aV0
aV2
aasS'nox'
p7924
(lp7925
(lp7926
V02-11-2016
p7927
aV21
p7928
aV19
p7929
aV6
aVnr
p7930
aV39
p7931
aVnr
p7932
aVnr
p7933
aVnr
p7934
aV14
p7935
aVnr
p7936
aV38
p7937
aVnr
p7938
aV41
p7939
aV16
p7940
aV17
p7941
aVnr
p7942
aVnr
p7943
aV24
p7944
aVnr
p7945
aV29
p7946
aVnr
p7947
aVnr
p7948
aVnr
p7949
aVnr
p7950
aV18
p7951
aVnr
p7952
aV48
p7953
aV20
p7954
aVnr
p7955
aV46
p7956
aVnr
p7957
aV39
p7958
aVnr
p7959
aVnr
p7960
aV9
aVnr
p7961
aVnr
p7962
aV29
p7963
aV74
p7964
aVnr
p7965
aV31
p7966
aV32
p7967
aV22
p7968
aV91
p7969
aa(lp7970
V02-11-2016
p7971
aV21
p7972
aV19
p7973
aV6
aVnr
p7974
aV39
p7975
aVnr
p7976
aVnr
p7977
aVnr
p7978
aV14
p7979
aVnr
p7980
aV38
p7981
aVnr
p7982
aV41
p7983
aV16
p7984
aV17
p7985
aVnr
p7986
aVnr
p7987
aV24
p7988
aVnr
p7989
aV29
p7990
aVnr
p7991
aVnr
p7992
aVnr
p7993
aVnr
p7994
aV18
p7995
aVnr
p7996
aV48
p7997
aV20
p7998
aVnr
p7999
aV46
p8000
aVnr
p8001
aV39
p8002
aVnr
p8003
aVnr
p8004
aV9
aVnr
p8005
aVnr
p8006
aV29
p8007
aV74
p8008
aVnr
p8009
aV31
p8010
aV32
p8011
aV22
p8012
aV91
p8013
aa(lp8014
V02-11-2016
p8015
aV21
p8016
aV19
p8017
aV6
aVnr
p8018
aV39
p8019
aVnr
p8020
aVnr
p8021
aVnr
p8022
aV14
p8023
aVnr
p8024
aV38
p8025
aVnr
p8026
aV41
p8027
aV16
p8028
aV17
p8029
aVnr
p8030
aVnr
p8031
aV24
p8032
aVnr
p8033
aV29
p8034
aVnr
p8035
aVnr
p8036
aVnr
p8037
aVnr
p8038
aV18
p8039
aVnr
p8040
aV48
p8041
aV20
p8042
aVnr
p8043
aV46
p8044
aVnr
p8045
aV39
p8046
aVnr
p8047
aVnr
p8048
aV9
aVnr
p8049
aVnr
p8050
aV29
p8051
aV74
p8052
aVnr
p8053
aV31
p8054
aV32
p8055
aV22
p8056
aV91
p8057
aa(lp8058
V02-11-2016
p8059
aV21
p8060
aV19
p8061
aV6
aVnr
p8062
aV39
p8063
aVnr
p8064
aVnr
p8065
aVnr
p8066
aV14
p8067
aVnr
p8068
aV38
p8069
aVnr
p8070
aV41
p8071
aV16
p8072
aV17
p8073
aVnr
p8074
aVnr
p8075
aV24
p8076
aVnr
p8077
aV29
p8078
aVnr
p8079
aVnr
p8080
aVnr
p8081
aVnr
p8082
aV18
p8083
aVnr
p8084
aV48
p8085
aV20
p8086
aVnr
p8087
aV46
p8088
aVnr
p8089
aV39
p8090
aVnr
p8091
aVnr
p8092
aV9
aVnr
p8093
aVnr
p8094
aV29
p8095
aV74
p8096
aVnr
p8097
aV31
p8098
aV32
p8099
aV22
p8100
aV91
p8101
aa(lp8102
V02-11-2016
p8103
aV21
p8104
aV19
p8105
aV6
aVnr
p8106
aV39
p8107
aVnr
p8108
aVnr
p8109
aVnr
p8110
aV14
p8111
aVnr
p8112
aV38
p8113
aVnr
p8114
aV41
p8115
aV16
p8116
aV17
p8117
aVnr
p8118
aVnr
p8119
aV24
p8120
aVnr
p8121
aV29
p8122
aVnr
p8123
aVnr
p8124
aVnr
p8125
aVnr
p8126
aV18
p8127
aVnr
p8128
aV48
p8129
aV20
p8130
aVnr
p8131
aV46
p8132
aVnr
p8133
aV39
p8134
aVnr
p8135
aVnr
p8136
aV9
aVnr
p8137
aVnr
p8138
aV29
p8139
aV74
p8140
aVnr
p8141
aV31
p8142
aV32
p8143
aV22
p8144
aV91
p8145
aa(lp8146
V02-11-2016
p8147
aV21
p8148
aV19
p8149
aV6
aVnr
p8150
aV39
p8151
aVnr
p8152
aVnr
p8153
aVnr
p8154
aV14
p8155
aVnr
p8156
aV38
p8157
aVnr
p8158
aV41
p8159
aV16
p8160
aV17
p8161
aVnr
p8162
aVnr
p8163
aV24
p8164
aVnr
p8165
aV29
p8166
aVnr
p8167
aVnr
p8168
aVnr
p8169
aVnr
p8170
aV18
p8171
aVnr
p8172
aV48
p8173
aV20
p8174
aVnr
p8175
aV46
p8176
aVnr
p8177
aV39
p8178
aVnr
p8179
aVnr
p8180
aV9
aVnr
p8181
aVnr
p8182
aV29
p8183
aV74
p8184
aVnr
p8185
aV31
p8186
aV32
p8187
aV22
p8188
aV91
p8189
aa(lp8190
V02-11-2016
p8191
aV21
p8192
aV19
p8193
aV6
aVnr
p8194
aV39
p8195
aVnr
p8196
aVnr
p8197
aVnr
p8198
aV14
p8199
aVnr
p8200
aV38
p8201
aVnr
p8202
aV41
p8203
aV16
p8204
aV17
p8205
aVnr
p8206
aVnr
p8207
aV24
p8208
aVnr
p8209
aV29
p8210
aVnr
p8211
aVnr
p8212
aVnr
p8213
aVnr
p8214
aV18
p8215
aVnr
p8216
aV48
p8217
aV20
p8218
aVnr
p8219
aV46
p8220
aVnr
p8221
aV39
p8222
aVnr
p8223
aVnr
p8224
aV9
aVnr
p8225
aVnr
p8226
aV29
p8227
aV74
p8228
aVnr
p8229
aV31
p8230
aV32
p8231
aV22
p8232
aV91
p8233
aa(lp8234
V02-11-2016
p8235
aV21
p8236
aV19
p8237
aV6
aVnr
p8238
aV39
p8239
aVnr
p8240
aVnr
p8241
aVnr
p8242
aV14
p8243
aVnr
p8244
aV38
p8245
aVnr
p8246
aV41
p8247
aV16
p8248
aV17
p8249
aVnr
p8250
aVnr
p8251
aV24
p8252
aVnr
p8253
aV29
p8254
aVnr
p8255
aVnr
p8256
aVnr
p8257
aVnr
p8258
aV18
p8259
aVnr
p8260
aV48
p8261
aV20
p8262
aVnr
p8263
aV46
p8264
aVnr
p8265
aV39
p8266
aVnr
p8267
aVnr
p8268
aV9
aVnr
p8269
aVnr
p8270
aV29
p8271
aV74
p8272
aVnr
p8273
aV31
p8274
aV32
p8275
aV22
p8276
aV91
p8277
aa(lp8278
V02-11-2016
p8279
aV22
p8280
aV28
p8281
aV9
aVnr
p8282
aV47
p8283
aVnr
p8284
aVnr
p8285
aVnr
p8286
aV25
p8287
aVnr
p8288
aV44
p8289
aVnr
p8290
aV38
p8291
aV24
p8292
aV11
p8293
aVnr
p8294
aVnr
p8295
aV33
p8296
aVnr
p8297
aV33
p8298
aVnr
p8299
aVnr
p8300
aVnr
p8301
aVnr
p8302
aVnr
p8303
aVnr
p8304
aV40
p8305
aV24
p8306
aVnr
p8307
aV53
p8308
aVnr
p8309
aV42
p8310
aVnr
p8311
aVnr
p8312
aV9
aVnr
p8313
aVnr
p8314
aV36
p8315
aV60
p8316
aVnr
p8317
aV17
p8318
aV29
p8319
aV28
p8320
aV72
p8321
aa(lp8322
V02-11-2016
p8323
aV22
p8324
aV28
p8325
aV9
aVnr
p8326
aV47
p8327
aVnr
p8328
aVnr
p8329
aVnr
p8330
aV25
p8331
aVnr
p8332
aV44
p8333
aVnr
p8334
aV38
p8335
aV24
p8336
aV11
p8337
aVnr
p8338
aVnr
p8339
aV33
p8340
aVnr
p8341
aV33
p8342
aVnr
p8343
aVnr
p8344
aVnr
p8345
aVnr
p8346
aVnr
p8347
aVnr
p8348
aV40
p8349
aV24
p8350
aVnr
p8351
aV53
p8352
aVnr
p8353
aV42
p8354
aVnr
p8355
aVnr
p8356
aV9
aVnr
p8357
aVnr
p8358
aV36
p8359
aV60
p8360
aVnr
p8361
aV17
p8362
aV29
p8363
aV28
p8364
aV72
p8365
aa(lp8366
V02-11-2016
p8367
aV22
p8368
aV28
p8369
aV9
aVnr
p8370
aV47
p8371
aVnr
p8372
aVnr
p8373
aVnr
p8374
aV25
p8375
aVnr
p8376
aV44
p8377
aVnr
p8378
aV38
p8379
aV24
p8380
aV11
p8381
aVnr
p8382
aVnr
p8383
aV33
p8384
aVnr
p8385
aV33
p8386
aVnr
p8387
aVnr
p8388
aVnr
p8389
aVnr
p8390
aVnr
p8391
aVnr
p8392
aV40
p8393
aV24
p8394
aVnr
p8395
aV53
p8396
aVnr
p8397
aV42
p8398
aVnr
p8399
aVnr
p8400
aV9
aVnr
p8401
aVnr
p8402
aV36
p8403
aV60
p8404
aVnr
p8405
aV17
p8406
aV29
p8407
aV28
p8408
aV72
p8409
aa(lp8410
V02-11-2016
p8411
aV23
p8412
aV44
p8413
aV6
aVnr
p8414
aV55
p8415
aVnr
p8416
aVnr
p8417
aVnr
p8418
aV22
p8419
aVnr
p8420
aV42
p8421
aVnr
p8422
aV39
p8423
aV37
p8424
aV9
aVnr
p8425
aVnr
p8426
aV49
p8427
aVnr
p8428
aV48
p8429
aVnr
p8430
aVnr
p8431
aVnr
p8432
aVnr
p8433
aV34
p8434
aVnr
p8435
aV43
p8436
aV18
p8437
aVnr
p8438
aV55
p8439
aVnr
p8440
aV37
p8441
aVnr
p8442
aVnr
p8443
aV15
p8444
aVnr
p8445
aVnr
p8446
aV38
p8447
aV67
p8448
aVnr
p8449
aV33
p8450
aV38
p8451
aV30
p8452
aV75
p8453
aa(lp8454
V02-11-2016
p8455
aV23
p8456
aV44
p8457
aV6
aVnr
p8458
aV55
p8459
aVnr
p8460
aVnr
p8461
aVnr
p8462
aV22
p8463
aVnr
p8464
aV42
p8465
aVnr
p8466
aV39
p8467
aV37
p8468
aV9
aVnr
p8469
aVnr
p8470
aV49
p8471
aVnr
p8472
aV48
p8473
aVnr
p8474
aVnr
p8475
aVnr
p8476
aVnr
p8477
aV34
p8478
aVnr
p8479
aV43
p8480
aV18
p8481
aVnr
p8482
aV55
p8483
aVnr
p8484
aV37
p8485
aVnr
p8486
aVnr
p8487
aV15
p8488
aVnr
p8489
aVnr
p8490
aV38
p8491
aV67
p8492
aVnr
p8493
aV33
p8494
aV38
p8495
aV30
p8496
aV75
p8497
aa(lp8498
V02-11-2016
p8499
aV23
p8500
aV44
p8501
aV6
aVnr
p8502
aV55
p8503
aVnr
p8504
aVnr
p8505
aVnr
p8506
aV22
p8507
aVnr
p8508
aV42
p8509
aVnr
p8510
aV39
p8511
aV37
p8512
aV9
aVnr
p8513
aVnr
p8514
aV49
p8515
aVnr
p8516
aV48
p8517
aVnr
p8518
aVnr
p8519
aVnr
p8520
aVnr
p8521
aV34
p8522
aVnr
p8523
aV43
p8524
aV18
p8525
aVnr
p8526
aV55
p8527
aVnr
p8528
aV37
p8529
aVnr
p8530
aVnr
p8531
aV15
p8532
aVnr
p8533
aVnr
p8534
aV38
p8535
aV67
p8536
aVnr
p8537
aV33
p8538
aV38
p8539
aV30
p8540
aV75
p8541
aa(lp8542
V02-11-2016
p8543
aV23
p8544
aV44
p8545
aV6
aVnr
p8546
aV55
p8547
aVnr
p8548
aVnr
p8549
aVnr
p8550
aV22
p8551
aVnr
p8552
aV42
p8553
aVnr
p8554
aV39
p8555
aV37
p8556
aV9
aVnr
p8557
aVnr
p8558
aV49
p8559
aVnr
p8560
aV48
p8561
aVnr
p8562
aVnr
p8563
aVnr
p8564
aVnr
p8565
aV34
p8566
aVnr
p8567
aV43
p8568
aV18
p8569
aVnr
p8570
aV55
p8571
aVnr
p8572
aV37
p8573
aVnr
p8574
aVnr
p8575
aV15
p8576
aVnr
p8577
aVnr
p8578
aV38
p8579
aV67
p8580
aVnr
p8581
aV33
p8582
aV38
p8583
aV30
p8584
aV75
p8585
aa(lp8586
V02-11-2016
p8587
aV24
p8588
aV37
p8589
aV18
p8590
aVnr
p8591
aV25
p8592
aVnr
p8593
aVnr
p8594
aVnr
p8595
aV21
p8596
aVnr
p8597
aV33
p8598
aVnr
p8599
aV69
p8600
aV30
p8601
aV18
p8602
aVnr
p8603
aVnr
p8604
aV38
p8605
aVnr
p8606
aV67
p8607
aVnr
p8608
aVnr
p8609
aVnr
p8610
aVnr
p8611
aV35
p8612
aVnr
p8613
aV47
p8614
aV21
p8615
aVnr
p8616
aV57
p8617
aVnr
p8618
aV43
p8619
aVnr
p8620
aVnr
p8621
aV23
p8622
aVnr
p8623
aVnr
p8624
aV59
p8625
aV44
p8626
aVnr
p8627
aV41
p8628
aV49
p8629
aV41
p8630
aV85
p8631
aa(lp8632
V05-11-2016
p8633
aV8
aVnr
p8634
aV26
p8635
aVnr
p8636
aV35
p8637
aVnr
p8638
aVnr
p8639
aV47
p8640
aV31
p8641
aVnr
p8642
aV32
p8643
aVnr
p8644
aV46
p8645
aV18
p8646
aV43
p8647
aV16
p8648
aVnr
p8649
aV52
p8650
aVnr
p8651
aV43
p8652
aVnr
p8653
aVnr
p8654
aVnr
p8655
aV80
p8656
aV39
p8657
aVnr
p8658
aV44
p8659
aV34
p8660
aVnr
p8661
aV29
p8662
aVnr
p8663
aV39
p8664
aVnr
p8665
aVnr
p8666
aV21
p8667
aVnr
p8668
aVnr
p8669
aV48
p8670
aV31
p8671
aVnr
p8672
aV31
p8673
aV59
p8674
aV21
p8675
aV33
p8676
aa(lp8677
V05-11-2016
p8678
aV9
aVnr
p8679
aV12
p8680
aVnr
p8681
aV21
p8682
aVnr
p8683
aVnr
p8684
aV37
p8685
aV19
p8686
aVnr
p8687
aV17
p8688
aVnr
p8689
aV35
p8690
aV31
p8691
aV33
p8692
aV9
aVnr
p8693
aV50
p8694
aVnr
p8695
aV36
p8696
aVnr
p8697
aVnr
p8698
aVnr
p8699
aV66
p8700
aV30
p8701
aVnr
p8702
aV30
p8703
aV23
p8704
aVnr
p8705
aV36
p8706
aVnr
p8707
aV29
p8708
aVnr
p8709
aVnr
p8710
aV30
p8711
aVnr
p8712
aVnr
p8713
aV51
p8714
aV41
p8715
aVnr
p8716
aV31
p8717
aV60
p8718
aV23
p8719
aV35
p8720
aa(lp8721
V07-11-2016
p8722
aV8
aV65
p8723
aV43
p8724
aVnr
p8725
aVnr
p8726
aVnr
p8727
aVnr
p8728
aV190
p8729
aV135
p8730
aVnr
p8731
aV197
p8732
aVnr
p8733
aV159
p8734
aV153
p8735
aV148
p8736
aV202
p8737
aVnr
p8738
aV168
p8739
aVnr
p8740
aV162
p8741
aVnr
p8742
aVnr
p8743
aVnr
p8744
aV201
p8745
aV205
p8746
aVnr
p8747
aV77
p8748
aV85
p8749
aVnr
p8750
aV141
p8751
aVnr
p8752
aV217
p8753
aVnr
p8754
aVnr
p8755
aV57
p8756
aVnr
p8757
aVnr
p8758
aV212
p8759
aV184
p8760
aVnr
p8761
aV118
p8762
aV88
p8763
aV94
p8764
aV297
p8765
aa(lp8766
V08-11-2016
p8767
aV12
p8768
aV21
p8769
aV58
p8770
aVnr
p8771
aV30
p8772
aVnr
p8773
aVnr
p8774
aV54
p8775
aV86
p8776
aVnr
p8777
aV20
p8778
aVnr
p8779
aV85
p8780
aV75
p8781
aV24
p8782
aV47
p8783
aVnr
p8784
aV63
p8785
aVnr
p8786
aV81
p8787
aVnr
p8788
aVnr
p8789
aVnr
p8790
aV90
p8791
aV77
p8792
aVnr
p8793
aV37
p8794
aV84
p8795
aVnr
p8796
aV51
p8797
aVnr
p8798
aV71
p8799
aVnr
p8800
aVnr
p8801
aV32
p8802
aVnr
p8803
aVnr
p8804
aV64
p8805
aV37
p8806
aVnr
p8807
aV69
p8808
aV47
p8809
aV28
p8810
aV88
p8811
aa(lp8812
V09-11-2016
p8813
aV12
p8814
aV11
p8815
aV71
p8816
aVnr
p8817
aV30
p8818
aVnr
p8819
aVnr
p8820
aV36
p8821
aV51
p8822
aVnr
p8823
aV10
p8824
aVnr
p8825
aV57
p8826
aV39
p8827
aV15
p8828
aV38
p8829
aVnr
p8830
aV53
p8831
aVnr
p8832
aV62
p8833
aVnr
p8834
aVnr
p8835
aVnr
p8836
aV64
p8837
aV50
p8838
aVnr
p8839
aVnr
p8840
aV52
p8841
aVnr
p8842
aV27
p8843
aVnr
p8844
aV36
p8845
aVnr
p8846
aVnr
p8847
aV34
p8848
aVnr
p8849
aVnr
p8850
aVnr
p8851
aV21
p8852
aVnr
p8853
aV64
p8854
aV62
p8855
aV11
p8856
aV35
p8857
aa(lp8858
V09-11-2016
p8859
aV13
p8860
aV9
aV53
p8861
aVnr
p8862
aV28
p8863
aVnr
p8864
aVnr
p8865
aV40
p8866
aV51
p8867
aVnr
p8868
aV7
aVnr
p8869
aV58
p8870
aV39
p8871
aV13
p8872
aV36
p8873
aVnr
p8874
aV48
p8875
aVnr
p8876
aV51
p8877
aVnr
p8878
aVnr
p8879
aVnr
p8880
aV51
p8881
aV46
p8882
aVnr
p8883
aV27
p8884
aV54
p8885
aVnr
p8886
aVnr
p8887
aVnr
p8888
aV30
p8889
aVnr
p8890
aVnr
p8891
aV38
p8892
aVnr
p8893
aVnr
p8894
aVnr
p8895
aV20
p8896
aVnr
p8897
aV53
p8898
aV59
p8899
aV12
p8900
aV38
p8901
aa(lp8902
V09-11-2016
p8903
aV14
p8904
aV8
aV56
p8905
aVnr
p8906
aV24
p8907
aVnr
p8908
aVnr
p8909
aV41
p8910
aV51
p8911
aVnr
p8912
aV6
aVnr
p8913
aV59
p8914
aV45
p8915
aV14
p8916
aV41
p8917
aVnr
p8918
aV49
p8919
aVnr
p8920
aV50
p8921
aVnr
p8922
aVnr
p8923
aVnr
p8924
aV47
p8925
aV62
p8926
aVnr
p8927
aV29
p8928
aV61
p8929
aVnr
p8930
aVnr
p8931
aVnr
p8932
aV27
p8933
aVnr
p8934
aVnr
p8935
aV39
p8936
aVnr
p8937
aVnr
p8938
aVnr
p8939
aV22
p8940
aVnr
p8941
aV54
p8942
aV62
p8943
aV10
p8944
aV35
p8945
aasS'o3'
p8946
(lp8947
(lp8948
V02-11-2016
p8949
aV21
p8950
aV15
p8951
aV24
p8952
aV15
p8953
aV5
aVnr
p8954
aV13
p8955
aVnr
p8956
aV16
p8957
aVnr
p8958
aV4
aV17
p8959
aV12
p8960
aV21
p8961
aV15
p8962
aVnr
p8963
aVnr
p8964
aV17
p8965
aV24
p8966
aV12
p8967
aVnr
p8968
aV3
aVnr
p8969
aVnr
p8970
aV21
p8971
aV27
p8972
aV5
aV15
p8973
aVnr
p8974
aV4
aVnr
p8975
aV8
aVnr
p8976
aVnr
p8977
aV28
p8978
aVnr
p8979
aVnr
p8980
aV15
p8981
aV1
aVnr
p8982
aV7
aV16
p8983
aV10
p8984
aV4
aa(lp8985
V02-11-2016
p8986
aV21
p8987
aV15
p8988
aV24
p8989
aV15
p8990
aV5
aVnr
p8991
aV13
p8992
aVnr
p8993
aV16
p8994
aVnr
p8995
aV4
aV17
p8996
aV12
p8997
aV21
p8998
aV15
p8999
aVnr
p9000
aVnr
p9001
aV17
p9002
aV24
p9003
aV12
p9004
aVnr
p9005
aV3
aVnr
p9006
aVnr
p9007
aV21
p9008
aV27
p9009
aV5
aV15
p9010
aVnr
p9011
aV4
aVnr
p9012
aV8
aVnr
p9013
aVnr
p9014
aV28
p9015
aVnr
p9016
aVnr
p9017
aV15
p9018
aV1
aVnr
p9019
aV7
aV16
p9020
aV10
p9021
aV4
aa(lp9022
V02-11-2016
p9023
aV21
p9024
aV15
p9025
aV24
p9026
aV15
p9027
aV5
aVnr
p9028
aV13
p9029
aVnr
p9030
aV16
p9031
aVnr
p9032
aV4
aV17
p9033
aV12
p9034
aV21
p9035
aV15
p9036
aVnr
p9037
aVnr
p9038
aV17
p9039
aV24
p9040
aV12
p9041
aVnr
p9042
aV3
aVnr
p9043
aVnr
p9044
aV21
p9045
aV27
p9046
aV5
aV15
p9047
aVnr
p9048
aV4
aVnr
p9049
aV8
aVnr
p9050
aVnr
p9051
aV28
p9052
aVnr
p9053
aVnr
p9054
aV15
p9055
aV1
aVnr
p9056
aV7
aV16
p9057
aV10
p9058
aV4
aa(lp9059
V02-11-2016
p9060
aV21
p9061
aV15
p9062
aV24
p9063
aV15
p9064
aV5
aVnr
p9065
aV13
p9066
aVnr
p9067
aV16
p9068
aVnr
p9069
aV4
aV17
p9070
aV12
p9071
aV21
p9072
aV15
p9073
aVnr
p9074
aVnr
p9075
aV17
p9076
aV24
p9077
aV12
p9078
aVnr
p9079
aV3
aVnr
p9080
aVnr
p9081
aV21
p9082
aV27
p9083
aV5
aV15
p9084
aVnr
p9085
aV4
aVnr
p9086
aV8
aVnr
p9087
aVnr
p9088
aV28
p9089
aVnr
p9090
aVnr
p9091
aV15
p9092
aV1
aVnr
p9093
aV7
aV16
p9094
aV10
p9095
aV4
aa(lp9096
V02-11-2016
p9097
aV21
p9098
aV15
p9099
aV24
p9100
aV15
p9101
aV5
aVnr
p9102
aV13
p9103
aVnr
p9104
aV16
p9105
aVnr
p9106
aV4
aV17
p9107
aV12
p9108
aV21
p9109
aV15
p9110
aVnr
p9111
aVnr
p9112
aV17
p9113
aV24
p9114
aV12
p9115
aVnr
p9116
aV3
aVnr
p9117
aVnr
p9118
aV21
p9119
aV27
p9120
aV5
aV15
p9121
aVnr
p9122
aV4
aVnr
p9123
aV8
aVnr
p9124
aVnr
p9125
aV28
p9126
aVnr
p9127
aVnr
p9128
aV15
p9129
aV1
aVnr
p9130
aV7
aV16
p9131
aV10
p9132
aV4
aa(lp9133
V02-11-2016
p9134
aV21
p9135
aV15
p9136
aV24
p9137
aV15
p9138
aV5
aVnr
p9139
aV13
p9140
aVnr
p9141
aV16
p9142
aVnr
p9143
aV4
aV17
p9144
aV12
p9145
aV21
p9146
aV15
p9147
aVnr
p9148
aVnr
p9149
aV17
p9150
aV24
p9151
aV12
p9152
aVnr
p9153
aV3
aVnr
p9154
aVnr
p9155
aV21
p9156
aV27
p9157
aV5
aV15
p9158
aVnr
p9159
aV4
aVnr
p9160
aV8
aVnr
p9161
aVnr
p9162
aV28
p9163
aVnr
p9164
aVnr
p9165
aV15
p9166
aV1
aVnr
p9167
aV7
aV16
p9168
aV10
p9169
aV4
aa(lp9170
V02-11-2016
p9171
aV21
p9172
aV15
p9173
aV24
p9174
aV15
p9175
aV5
aVnr
p9176
aV13
p9177
aVnr
p9178
aV16
p9179
aVnr
p9180
aV4
aV17
p9181
aV12
p9182
aV21
p9183
aV15
p9184
aVnr
p9185
aVnr
p9186
aV17
p9187
aV24
p9188
aV12
p9189
aVnr
p9190
aV3
aVnr
p9191
aVnr
p9192
aV21
p9193
aV27
p9194
aV5
aV15
p9195
aVnr
p9196
aV4
aVnr
p9197
aV8
aVnr
p9198
aVnr
p9199
aV28
p9200
aVnr
p9201
aVnr
p9202
aV15
p9203
aV1
aVnr
p9204
aV7
aV16
p9205
aV10
p9206
aV4
aa(lp9207
V02-11-2016
p9208
aV21
p9209
aV15
p9210
aV24
p9211
aV15
p9212
aV5
aVnr
p9213
aV13
p9214
aVnr
p9215
aV16
p9216
aVnr
p9217
aV4
aV17
p9218
aV12
p9219
aV21
p9220
aV15
p9221
aVnr
p9222
aVnr
p9223
aV17
p9224
aV24
p9225
aV12
p9226
aVnr
p9227
aV3
aVnr
p9228
aVnr
p9229
aV21
p9230
aV27
p9231
aV5
aV15
p9232
aVnr
p9233
aV4
aVnr
p9234
aV8
aVnr
p9235
aVnr
p9236
aV28
p9237
aVnr
p9238
aVnr
p9239
aV15
p9240
aV1
aVnr
p9241
aV7
aV16
p9242
aV10
p9243
aV4
aa(lp9244
V02-11-2016
p9245
aV22
p9246
aV5
aV20
p9247
aV10
p9248
aV4
aVnr
p9249
aV6
aVnr
p9250
aV6
aVnr
p9251
aV3
aV12
p9252
aV7
aV13
p9253
aV17
p9254
aVnr
p9255
aVnr
p9256
aV9
aV19
p9257
aV8
aVnr
p9258
aV2
aV1
aVnr
p9259
aVnr
p9260
aV26
p9261
aV7
aV7
aVnr
p9262
aV1
aVnr
p9263
aVnr
p9264
aVnr
p9265
aVnr
p9266
aV26
p9267
aVnr
p9268
aVnr
p9269
aV10
p9270
aV1
aVnr
p9271
aV10
p9272
aV13
p9273
aV5
aV4
aa(lp9274
V02-11-2016
p9275
aV22
p9276
aV5
aV20
p9277
aV10
p9278
aV4
aVnr
p9279
aV6
aVnr
p9280
aV6
aVnr
p9281
aV3
aV12
p9282
aV7
aV13
p9283
aV17
p9284
aVnr
p9285
aVnr
p9286
aV9
aV19
p9287
aV8
aVnr
p9288
aV2
aV1
aVnr
p9289
aVnr
p9290
aV26
p9291
aV7
aV7
aVnr
p9292
aV1
aVnr
p9293
aVnr
p9294
aVnr
p9295
aVnr
p9296
aV26
p9297
aVnr
p9298
aVnr
p9299
aV10
p9300
aV1
aVnr
p9301
aV10
p9302
aV13
p9303
aV5
aV4
aa(lp9304
V02-11-2016
p9305
aV22
p9306
aV5
aV20
p9307
aV10
p9308
aV4
aVnr
p9309
aV6
aVnr
p9310
aV6
aVnr
p9311
aV3
aV12
p9312
aV7
aV13
p9313
aV17
p9314
aVnr
p9315
aVnr
p9316
aV9
aV19
p9317
aV8
aVnr
p9318
aV2
aV1
aVnr
p9319
aVnr
p9320
aV26
p9321
aV7
aV7
aVnr
p9322
aV1
aVnr
p9323
aVnr
p9324
aVnr
p9325
aVnr
p9326
aV26
p9327
aVnr
p9328
aVnr
p9329
aV10
p9330
aV1
aVnr
p9331
aV10
p9332
aV13
p9333
aV5
aV4
aa(lp9334
V02-11-2016
p9335
aV23
p9336
aV3
aV27
p9337
aV16
p9338
aV2
aVnr
p9339
aV2
aVnr
p9340
aV6
aVnr
p9341
aV2
aV4
aV3
aV5
aV13
p9342
aVnr
p9343
aVnr
p9344
aV3
aV16
p9345
aV2
aVnr
p9346
aV1
aV1
aVnr
p9347
aV4
aV23
p9348
aV4
aV10
p9349
aVnr
p9350
aV1
aVnr
p9351
aV5
aVnr
p9352
aVnr
p9353
aV19
p9354
aVnr
p9355
aVnr
p9356
aV7
aV0
aVnr
p9357
aV1
aV6
aV4
aV3
aa(lp9358
V02-11-2016
p9359
aV23
p9360
aV3
aV27
p9361
aV16
p9362
aV2
aVnr
p9363
aV2
aVnr
p9364
aV6
aVnr
p9365
aV2
aV4
aV3
aV5
aV13
p9366
aVnr
p9367
aVnr
p9368
aV3
aV16
p9369
aV2
aVnr
p9370
aV1
aV1
aVnr
p9371
aV4
aV23
p9372
aV4
aV10
p9373
aVnr
p9374
aV1
aVnr
p9375
aV5
aVnr
p9376
aVnr
p9377
aV19
p9378
aVnr
p9379
aVnr
p9380
aV7
aV0
aVnr
p9381
aV1
aV6
aV4
aV3
aa(lp9382
V02-11-2016
p9383
aV23
p9384
aV3
aV27
p9385
aV16
p9386
aV2
aVnr
p9387
aV2
aVnr
p9388
aV6
aVnr
p9389
aV2
aV4
aV3
aV5
aV13
p9390
aVnr
p9391
aVnr
p9392
aV3
aV16
p9393
aV2
aVnr
p9394
aV1
aV1
aVnr
p9395
aV4
aV23
p9396
aV4
aV10
p9397
aVnr
p9398
aV1
aVnr
p9399
aV5
aVnr
p9400
aVnr
p9401
aV19
p9402
aVnr
p9403
aVnr
p9404
aV7
aV0
aVnr
p9405
aV1
aV6
aV4
aV3
aa(lp9406
V02-11-2016
p9407
aV23
p9408
aV3
aV27
p9409
aV16
p9410
aV2
aVnr
p9411
aV2
aVnr
p9412
aV6
aVnr
p9413
aV2
aV4
aV3
aV5
aV13
p9414
aVnr
p9415
aVnr
p9416
aV3
aV16
p9417
aV2
aVnr
p9418
aV1
aV1
aVnr
p9419
aV4
aV23
p9420
aV4
aV10
p9421
aVnr
p9422
aV1
aVnr
p9423
aV5
aVnr
p9424
aVnr
p9425
aV19
p9426
aVnr
p9427
aVnr
p9428
aV7
aV0
aVnr
p9429
aV1
aV6
aV4
aV3
aa(lp9430
V02-11-2016
p9431
aV24
p9432
aV3
aV17
p9433
aV7
aV4
aVnr
p9434
aV1
aVnr
p9435
aV5
aVnr
p9436
aV3
aV4
aV3
aV8
aV8
aVnr
p9437
aVnr
p9438
aV5
aV18
p9439
aV1
aVnr
p9440
aV1
aV1
aVnr
p9441
aV3
aV17
p9442
aV3
aV5
aVnr
p9443
aV1
aVnr
p9444
aV3
aVnr
p9445
aVnr
p9446
aV7
aVnr
p9447
aVnr
p9448
aV3
aV2
aVnr
p9449
aV0
aV6
aV2
aV3
aa(lp9450
V05-11-2016
p9451
aV8
aVnr
p9452
aV12
p9453
aV10
p9454
aV6
aVnr
p9455
aV5
aV5
aV5
aVnr
p9456
aV7
aV7
aV6
aV14
p9457
aV3
aV11
p9458
aV9
aV8
aV20
p9459
aV4
aVnr
p9460
aV6
aVnr
p9461
aV3
aV7
aV10
p9462
aV7
aV6
aVnr
p9463
aV9
aVnr
p9464
aV6
aVnr
p9465
aVnr
p9466
aV12
p9467
aVnr
p9468
aVnr
p9469
aV8
aV6
aVnr
p9470
aV6
aV6
aV10
p9471
aV19
p9472
aa(lp9473
V05-11-2016
p9474
aV9
aVnr
p9475
aV25
p9476
aV20
p9477
aV16
p9478
aVnr
p9479
aV12
p9480
aV12
p9481
aV15
p9482
aVnr
p9483
aV16
p9484
aV18
p9485
aV12
p9486
aV13
p9487
aV11
p9488
aV22
p9489
aV21
p9490
aV14
p9491
aV23
p9492
aV9
aVnr
p9493
aV9
aV18
p9494
aV7
aV15
p9495
aV16
p9496
aV14
p9497
aV15
p9498
aVnr
p9499
aV12
p9500
aVnr
p9501
aV15
p9502
aVnr
p9503
aVnr
p9504
aV11
p9505
aVnr
p9506
aVnr
p9507
aV12
p9508
aV9
aVnr
p9509
aV8
aV8
aV12
p9510
aV21
p9511
aa(lp9512
V07-11-2016
p9513
aV8
aV5
aV11
p9514
aV2
aV3
aVnr
p9515
aV3
aV2
aV2
aVnr
p9516
aV3
aV5
aV3
aV2
aV2
aV0
aV4
aV4
aV13
p9517
aV2
aVnr
p9518
aV2
aV3
aV2
aV2
aV14
p9519
aV4
aV4
aVnr
p9520
aV2
aVnr
p9521
aV3
aVnr
p9522
aVnr
p9523
aV4
aVnr
p9524
aVnr
p9525
aV4
aV1
aVnr
p9526
aV2
aV4
aV3
aV7
aa(lp9527
V08-11-2016
p9528
aV12
p9529
aV38
p9530
aV45
p9531
aV35
p9532
aV32
p9533
aVnr
p9534
aV37
p9535
aV35
p9536
aV30
p9537
aVnr
p9538
aV38
p9539
aV36
p9540
aV38
p9541
aV33
p9542
aV33
p9543
aV35
p9544
aV38
p9545
aV39
p9546
aV38
p9547
aV36
p9548
aVnr
p9549
aV33
p9550
aV33
p9551
aV32
p9552
aV31
p9553
aV40
p9554
aV37
p9555
aV37
p9556
aVnr
p9557
aV41
p9558
aVnr
p9559
aV35
p9560
aVnr
p9561
aVnr
p9562
aV42
p9563
aVnr
p9564
aVnr
p9565
aV33
p9566
aV35
p9567
aVnr
p9568
aV42
p9569
aV42
p9570
aV38
p9571
aV39
p9572
aa(lp9573
V09-11-2016
p9574
aV12
p9575
aV30
p9576
aV10
p9577
aV32
p9578
aV19
p9579
aVnr
p9580
aV15
p9581
aV21
p9582
aV10
p9583
aVnr
p9584
aV32
p9585
aVnr
p9586
aVnr
p9587
aV16
p9588
aV20
p9589
aV19
p9590
aV26
p9591
aV19
p9592
aV19
p9593
aV15
p9594
aVnr
p9595
aV24
p9596
aVnr
p9597
aV15
p9598
aV16
p9599
aV32
p9600
aV25
p9601
aV10
p9602
aVnr
p9603
aV21
p9604
aVnr
p9605
aV26
p9606
aVnr
p9607
aVnr
p9608
aV23
p9609
aVnr
p9610
aVnr
p9611
aV19
p9612
aV22
p9613
aVnr
p9614
aV7
aV15
p9615
aV24
p9616
aV29
p9617
aa(lp9618
V09-11-2016
p9619
aV13
p9620
aV29
p9621
aV18
p9622
aV25
p9623
aV18
p9624
aVnr
p9625
aV21
p9626
aV24
p9627
aV15
p9628
aVnr
p9629
aV38
p9630
aVnr
p9631
aVnr
p9632
aV17
p9633
aV26
p9634
aV21
p9635
aV33
p9636
aV26
p9637
aV16
p9638
aV23
p9639
aVnr
p9640
aV20
p9641
aV24
p9642
aV23
p9643
aV21
p9644
aV31
p9645
aV36
p9646
aV15
p9647
aVnr
p9648
aVnr
p9649
aVnr
p9650
aV34
p9651
aVnr
p9652
aVnr
p9653
aV30
p9654
aVnr
p9655
aVnr
p9656
aV16
p9657
aV22
p9658
aVnr
p9659
aV21
p9660
aV27
p9661
aV23
p9662
aV23
p9663
aa(lp9664
V09-11-2016
p9665
aV14
p9666
aV32
p9667
aV13
p9668
aV21
p9669
aV18
p9670
aVnr
p9671
aV15
p9672
aV19
p9673
aV12
p9674
aVnr
p9675
aV31
p9676
aVnr
p9677
aVnr
p9678
aV15
p9679
aV24
p9680
aV14
p9681
aV23
p9682
aV22
p9683
aV9
aV19
p9684
aVnr
p9685
aV25
p9686
aV16
p9687
aV20
p9688
aV13
p9689
aV34
p9690
aV25
p9691
aV11
p9692
aVnr
p9693
aVnr
p9694
aVnr
p9695
aV22
p9696
aVnr
p9697
aVnr
p9698
aV35
p9699
aVnr
p9700
aVnr
p9701
aV18
p9702
aV20
p9703
aVnr
p9704
aV20
p9705
aV19
p9706
aV29
p9707
aV23
p9708
aasS'no2'
p9709
(lp9710
(lp9711
V02-11-2016
p9712
aV21
p9713
aV14
p9714
aV5
aVnr
p9715
aV26
p9716
aVnr
p9717
aVnr
p9718
aVnr
p9719
aV14
p9720
aVnr
p9721
aV22
p9722
aVnr
p9723
aV26
p9724
aV14
p9725
aV13
p9726
aVnr
p9727
aVnr
p9728
aV21
p9729
aV26
p9730
aVnr
p9731
aVnr
p9732
aVnr
p9733
aVnr
p9734
aV14
p9735
aVnr
p9736
aV35
p9737
aV17
p9738
aVnr
p9739
aV27
p9740
aVnr
p9741
aV33
p9742
aVnr
p9743
aVnr
p9744
aV8
aVnr
p9745
aVnr
p9746
aV22
p9747
aV34
p9748
aVnr
p9749
aV26
p9750
aV28
p9751
aV17
p9752
aV36
p9753
aa(lp9754
V02-11-2016
p9755
aV21
p9756
aV14
p9757
aV5
aVnr
p9758
aV26
p9759
aVnr
p9760
aVnr
p9761
aVnr
p9762
aV14
p9763
aVnr
p9764
aV22
p9765
aVnr
p9766
aV26
p9767
aV14
p9768
aV13
p9769
aVnr
p9770
aVnr
p9771
aV21
p9772
aV26
p9773
aVnr
p9774
aVnr
p9775
aVnr
p9776
aVnr
p9777
aV14
p9778
aVnr
p9779
aV35
p9780
aV17
p9781
aVnr
p9782
aV27
p9783
aVnr
p9784
aV33
p9785
aVnr
p9786
aVnr
p9787
aV8
aVnr
p9788
aVnr
p9789
aV22
p9790
aV34
p9791
aVnr
p9792
aV26
p9793
aV28
p9794
aV17
p9795
aV36
p9796
aa(lp9797
V02-11-2016
p9798
aV21
p9799
aV14
p9800
aV5
aVnr
p9801
aV26
p9802
aVnr
p9803
aVnr
p9804
aVnr
p9805
aV14
p9806
aVnr
p9807
aV22
p9808
aVnr
p9809
aV26
p9810
aV14
p9811
aV13
p9812
aVnr
p9813
aVnr
p9814
aV21
p9815
aV26
p9816
aVnr
p9817
aVnr
p9818
aVnr
p9819
aVnr
p9820
aV14
p9821
aVnr
p9822
aV35
p9823
aV17
p9824
aVnr
p9825
aV27
p9826
aVnr
p9827
aV33
p9828
aVnr
p9829
aVnr
p9830
aV8
aVnr
p9831
aVnr
p9832
aV22
p9833
aV34
p9834
aVnr
p9835
aV26
p9836
aV28
p9837
aV17
p9838
aV36
p9839
aa(lp9840
V02-11-2016
p9841
aV21
p9842
aV14
p9843
aV5
aVnr
p9844
aV26
p9845
aVnr
p9846
aVnr
p9847
aVnr
p9848
aV14
p9849
aVnr
p9850
aV22
p9851
aVnr
p9852
aV26
p9853
aV14
p9854
aV13
p9855
aVnr
p9856
aVnr
p9857
aV21
p9858
aV26
p9859
aVnr
p9860
aVnr
p9861
aVnr
p9862
aVnr
p9863
aV14
p9864
aVnr
p9865
aV35
p9866
aV17
p9867
aVnr
p9868
aV27
p9869
aVnr
p9870
aV33
p9871
aVnr
p9872
aVnr
p9873
aV8
aVnr
p9874
aVnr
p9875
aV22
p9876
aV34
p9877
aVnr
p9878
aV26
p9879
aV28
p9880
aV17
p9881
aV36
p9882
aa(lp9883
V02-11-2016
p9884
aV21
p9885
aV14
p9886
aV5
aVnr
p9887
aV26
p9888
aVnr
p9889
aVnr
p9890
aVnr
p9891
aV14
p9892
aVnr
p9893
aV22
p9894
aVnr
p9895
aV26
p9896
aV14
p9897
aV13
p9898
aVnr
p9899
aVnr
p9900
aV21
p9901
aV26
p9902
aVnr
p9903
aVnr
p9904
aVnr
p9905
aVnr
p9906
aV14
p9907
aVnr
p9908
aV35
p9909
aV17
p9910
aVnr
p9911
aV27
p9912
aVnr
p9913
aV33
p9914
aVnr
p9915
aVnr
p9916
aV8
aVnr
p9917
aVnr
p9918
aV22
p9919
aV34
p9920
aVnr
p9921
aV26
p9922
aV28
p9923
aV17
p9924
aV36
p9925
aa(lp9926
V02-11-2016
p9927
aV21
p9928
aV14
p9929
aV5
aVnr
p9930
aV26
p9931
aVnr
p9932
aVnr
p9933
aVnr
p9934
aV14
p9935
aVnr
p9936
aV22
p9937
aVnr
p9938
aV26
p9939
aV14
p9940
aV13
p9941
aVnr
p9942
aVnr
p9943
aV21
p9944
aV26
p9945
aVnr
p9946
aVnr
p9947
aVnr
p9948
aVnr
p9949
aV14
p9950
aVnr
p9951
aV35
p9952
aV17
p9953
aVnr
p9954
aV27
p9955
aVnr
p9956
aV33
p9957
aVnr
p9958
aVnr
p9959
aV8
aVnr
p9960
aVnr
p9961
aV22
p9962
aV34
p9963
aVnr
p9964
aV26
p9965
aV28
p9966
aV17
p9967
aV36
p9968
aa(lp9969
V02-11-2016
p9970
aV21
p9971
aV14
p9972
aV5
aVnr
p9973
aV26
p9974
aVnr
p9975
aVnr
p9976
aVnr
p9977
aV14
p9978
aVnr
p9979
aV22
p9980
aVnr
p9981
aV26
p9982
aV14
p9983
aV13
p9984
aVnr
p9985
aVnr
p9986
aV21
p9987
aV26
p9988
aVnr
p9989
aVnr
p9990
aVnr
p9991
aVnr
p9992
aV14
p9993
aVnr
p9994
aV35
p9995
aV17
p9996
aVnr
p9997
aV27
p9998
aVnr
p9999
aV33
p10000
aVnr
p10001
aVnr
p10002
aV8
aVnr
p10003
aVnr
p10004
aV22
p10005
aV34
p10006
aVnr
p10007
aV26
p10008
aV28
p10009
aV17
p10010
aV36
p10011
aa(lp10012
V02-11-2016
p10013
aV21
p10014
aV14
p10015
aV5
aVnr
p10016
aV26
p10017
aVnr
p10018
aVnr
p10019
aVnr
p10020
aV14
p10021
aVnr
p10022
aV22
p10023
aVnr
p10024
aV26
p10025
aV14
p10026
aV13
p10027
aVnr
p10028
aVnr
p10029
aV21
p10030
aV26
p10031
aVnr
p10032
aVnr
p10033
aVnr
p10034
aVnr
p10035
aV14
p10036
aVnr
p10037
aV35
p10038
aV17
p10039
aVnr
p10040
aV27
p10041
aVnr
p10042
aV33
p10043
aVnr
p10044
aVnr
p10045
aV8
aVnr
p10046
aVnr
p10047
aV22
p10048
aV34
p10049
aVnr
p10050
aV26
p10051
aV28
p10052
aV17
p10053
aV36
p10054
aa(lp10055
V02-11-2016
p10056
aV22
p10057
aV21
p10058
aV8
aVnr
p10059
aV25
p10060
aVnr
p10061
aVnr
p10062
aVnr
p10063
aV20
p10064
aVnr
p10065
aV27
p10066
aVnr
p10067
aV26
p10068
aV20
p10069
aV9
aVnr
p10070
aVnr
p10071
aV27
p10072
aV27
p10073
aVnr
p10074
aVnr
p10075
aVnr
p10076
aVnr
p10077
aVnr
p10078
aVnr
p10079
aV31
p10080
aV20
p10081
aVnr
p10082
aV36
p10083
aVnr
p10084
aVnr
p10085
aVnr
p10086
aVnr
p10087
aV8
aVnr
p10088
aVnr
p10089
aV25
p10090
aV32
p10091
aVnr
p10092
aV16
p10093
aV25
p10094
aV21
p10095
aV36
p10096
aa(lp10097
V02-11-2016
p10098
aV22
p10099
aV21
p10100
aV8
aVnr
p10101
aV25
p10102
aVnr
p10103
aVnr
p10104
aVnr
p10105
aV20
p10106
aVnr
p10107
aV27
p10108
aVnr
p10109
aV26
p10110
aV20
p10111
aV9
aVnr
p10112
aVnr
p10113
aV27
p10114
aV27
p10115
aVnr
p10116
aVnr
p10117
aVnr
p10118
aVnr
p10119
aVnr
p10120
aVnr
p10121
aV31
p10122
aV20
p10123
aVnr
p10124
aV36
p10125
aVnr
p10126
aVnr
p10127
aVnr
p10128
aVnr
p10129
aV8
aVnr
p10130
aVnr
p10131
aV25
p10132
aV32
p10133
aVnr
p10134
aV16
p10135
aV25
p10136
aV21
p10137
aV36
p10138
aa(lp10139
V02-11-2016
p10140
aV22
p10141
aV21
p10142
aV8
aVnr
p10143
aV25
p10144
aVnr
p10145
aVnr
p10146
aVnr
p10147
aV20
p10148
aVnr
p10149
aV27
p10150
aVnr
p10151
aV26
p10152
aV20
p10153
aV9
aVnr
p10154
aVnr
p10155
aV27
p10156
aV27
p10157
aVnr
p10158
aVnr
p10159
aVnr
p10160
aVnr
p10161
aVnr
p10162
aVnr
p10163
aV31
p10164
aV20
p10165
aVnr
p10166
aV36
p10167
aVnr
p10168
aVnr
p10169
aVnr
p10170
aVnr
p10171
aV8
aVnr
p10172
aVnr
p10173
aV25
p10174
aV32
p10175
aVnr
p10176
aV16
p10177
aV25
p10178
aV21
p10179
aV36
p10180
aa(lp10181
V02-11-2016
p10182
aV23
p10183
aV26
p10184
aV6
aVnr
p10185
aV22
p10186
aVnr
p10187
aVnr
p10188
aVnr
p10189
aV17
p10190
aVnr
p10191
aV27
p10192
aVnr
p10193
aV25
p10194
aV25
p10195
aV7
aVnr
p10196
aVnr
p10197
aV29
p10198
aV29
p10199
aVnr
p10200
aVnr
p10201
aVnr
p10202
aVnr
p10203
aV23
p10204
aVnr
p10205
aV32
p10206
aV15
p10207
aVnr
p10208
aV35
p10209
aVnr
p10210
aV30
p10211
aVnr
p10212
aVnr
p10213
aV13
p10214
aVnr
p10215
aVnr
p10216
aV27
p10217
aV31
p10218
aVnr
p10219
aV24
p10220
aV28
p10221
aV22
p10222
aV33
p10223
aa(lp10224
V02-11-2016
p10225
aV23
p10226
aV26
p10227
aV6
aVnr
p10228
aV22
p10229
aVnr
p10230
aVnr
p10231
aVnr
p10232
aV17
p10233
aVnr
p10234
aV27
p10235
aVnr
p10236
aV25
p10237
aV25
p10238
aV7
aVnr
p10239
aVnr
p10240
aV29
p10241
aV29
p10242
aVnr
p10243
aVnr
p10244
aVnr
p10245
aVnr
p10246
aV23
p10247
aVnr
p10248
aV32
p10249
aV15
p10250
aVnr
p10251
aV35
p10252
aVnr
p10253
aV30
p10254
aVnr
p10255
aVnr
p10256
aV13
p10257
aVnr
p10258
aVnr
p10259
aV27
p10260
aV31
p10261
aVnr
p10262
aV24
p10263
aV28
p10264
aV22
p10265
aV33
p10266
aa(lp10267
V02-11-2016
p10268
aV23
p10269
aV26
p10270
aV6
aVnr
p10271
aV22
p10272
aVnr
p10273
aVnr
p10274
aVnr
p10275
aV17
p10276
aVnr
p10277
aV27
p10278
aVnr
p10279
aV25
p10280
aV25
p10281
aV7
aVnr
p10282
aVnr
p10283
aV29
p10284
aV29
p10285
aVnr
p10286
aVnr
p10287
aVnr
p10288
aVnr
p10289
aV23
p10290
aVnr
p10291
aV32
p10292
aV15
p10293
aVnr
p10294
aV35
p10295
aVnr
p10296
aV30
p10297
aVnr
p10298
aVnr
p10299
aV13
p10300
aVnr
p10301
aVnr
p10302
aV27
p10303
aV31
p10304
aVnr
p10305
aV24
p10306
aV28
p10307
aV22
p10308
aV33
p10309
aa(lp10310
V02-11-2016
p10311
aV23
p10312
aV26
p10313
aV6
aVnr
p10314
aV22
p10315
aVnr
p10316
aVnr
p10317
aVnr
p10318
aV17
p10319
aVnr
p10320
aV27
p10321
aVnr
p10322
aV25
p10323
aV25
p10324
aV7
aVnr
p10325
aVnr
p10326
aV29
p10327
aV29
p10328
aVnr
p10329
aVnr
p10330
aVnr
p10331
aVnr
p10332
aV23
p10333
aVnr
p10334
aV32
p10335
aV15
p10336
aVnr
p10337
aV35
p10338
aVnr
p10339
aV30
p10340
aVnr
p10341
aVnr
p10342
aV13
p10343
aVnr
p10344
aVnr
p10345
aV27
p10346
aV31
p10347
aVnr
p10348
aV24
p10349
aV28
p10350
aV22
p10351
aV33
p10352
aa(lp10353
V02-11-2016
p10354
aV24
p10355
aV27
p10356
aV16
p10357
aVnr
p10358
aV17
p10359
aVnr
p10360
aVnr
p10361
aVnr
p10362
aV17
p10363
aVnr
p10364
aV22
p10365
aVnr
p10366
aV25
p10367
aV21
p10368
aV13
p10369
aVnr
p10370
aVnr
p10371
aV27
p10372
aV30
p10373
aVnr
p10374
aVnr
p10375
aVnr
p10376
aVnr
p10377
aV23
p10378
aVnr
p10379
aV32
p10380
aV17
p10381
aVnr
p10382
aV31
p10383
aVnr
p10384
aV32
p10385
aVnr
p10386
aVnr
p10387
aV19
p10388
aVnr
p10389
aVnr
p10390
aV29
p10391
aV29
p10392
aVnr
p10393
aV24
p10394
aV29
p10395
aV27
p10396
aV29
p10397
aa(lp10398
V05-11-2016
p10399
aV8
aVnr
p10400
aV20
p10401
aVnr
p10402
aV20
p10403
aVnr
p10404
aVnr
p10405
aV25
p10406
aV23
p10407
aVnr
p10408
aV15
p10409
aVnr
p10410
aV25
p10411
aV15
p10412
aV20
p10413
aV12
p10414
aVnr
p10415
aV26
p10416
aV24
p10417
aVnr
p10418
aVnr
p10419
aVnr
p10420
aV31
p10421
aV20
p10422
aVnr
p10423
aV26
p10424
aV23
p10425
aVnr
p10426
aV18
p10427
aVnr
p10428
aV25
p10429
aVnr
p10430
aVnr
p10431
aV17
p10432
aVnr
p10433
aVnr
p10434
aV27
p10435
aV22
p10436
aVnr
p10437
aV23
p10438
aV28
p10439
aV16
p10440
aV14
p10441
aa(lp10442
V05-11-2016
p10443
aV9
aVnr
p10444
aV9
aVnr
p10445
aV14
p10446
aVnr
p10447
aVnr
p10448
aV20
p10449
aV16
p10450
aVnr
p10451
aV9
aVnr
p10452
aV22
p10453
aV18
p10454
aV17
p10455
aV6
aVnr
p10456
aV22
p10457
aV22
p10458
aVnr
p10459
aVnr
p10460
aVnr
p10461
aV30
p10462
aV16
p10463
aVnr
p10464
aV20
p10465
aV16
p10466
aVnr
p10467
aV17
p10468
aVnr
p10469
aV18
p10470
aVnr
p10471
aVnr
p10472
aV20
p10473
aVnr
p10474
aVnr
p10475
aV24
p10476
aV23
p10477
aVnr
p10478
aV22
p10479
aV29
p10480
aV14
p10481
aV11
p10482
aa(lp10483
V07-11-2016
p10484
aV8
aV15
p10485
aV23
p10486
aVnr
p10487
aVnr
p10488
aVnr
p10489
aVnr
p10490
aV29
p10491
aV17
p10492
aVnr
p10493
aV18
p10494
aVnr
p10495
aV29
p10496
aV32
p10497
aVnr
p10498
aV23
p10499
aVnr
p10500
aV32
p10501
aV32
p10502
aVnr
p10503
aVnr
p10504
aVnr
p10505
aV33
p10506
aV31
p10507
aVnr
p10508
aV22
p10509
aV23
p10510
aVnr
p10511
aV26
p10512
aVnr
p10513
aV27
p10514
aVnr
p10515
aVnr
p10516
aV22
p10517
aVnr
p10518
aVnr
p10519
aV30
p10520
aV26
p10521
aVnr
p10522
aV29
p10523
aV26
p10524
aV19
p10525
aV33
p10526
aa(lp10527
V08-11-2016
p10528
aV12
p10529
aV12
p10530
aV39
p10531
aVnr
p10532
aV19
p10533
aVnr
p10534
aVnr
p10535
aV36
p10536
aV62
p10537
aVnr
p10538
aV13
p10539
aVnr
p10540
aV54
p10541
aV45
p10542
aV13
p10543
aV29
p10544
aVnr
p10545
aV39
p10546
aV50
p10547
aVnr
p10548
aVnr
p10549
aVnr
p10550
aV53
p10551
aV50
p10552
aVnr
p10553
aV25
p10554
aV53
p10555
aVnr
p10556
aV35
p10557
aVnr
p10558
aV43
p10559
aVnr
p10560
aVnr
p10561
aV23
p10562
aVnr
p10563
aVnr
p10564
aV36
p10565
aV23
p10566
aVnr
p10567
aV46
p10568
aV31
p10569
aV19
p10570
aV56
p10571
aa(lp10572
V09-11-2016
p10573
aV12
p10574
aV6
aV35
p10575
aVnr
p10576
aV18
p10577
aVnr
p10578
aVnr
p10579
aV20
p10580
aV31
p10581
aVnr
p10582
aV6
aVnr
p10583
aV31
p10584
aV24
p10585
aV9
aV19
p10586
aVnr
p10587
aV26
p10588
aV32
p10589
aVnr
p10590
aVnr
p10591
aVnr
p10592
aV33
p10593
aV26
p10594
aVnr
p10595
aVnr
p10596
aV31
p10597
aVnr
p10598
aV14
p10599
aVnr
p10600
aV22
p10601
aVnr
p10602
aVnr
p10603
aV23
p10604
aVnr
p10605
aVnr
p10606
aVnr
p10607
aV12
p10608
aVnr
p10609
aV36
p10610
aV33
p10611
aV7
aV18
p10612
aa(lp10613
V09-11-2016
p10614
aV13
p10615
aV6
aV31
p10616
aVnr
p10617
aV18
p10618
aVnr
p10619
aVnr
p10620
aV25
p10621
aV33
p10622
aVnr
p10623
aV5
aVnr
p10624
aV35
p10625
aV28
p10626
aV7
aV21
p10627
aVnr
p10628
aV25
p10629
aV33
p10630
aVnr
p10631
aVnr
p10632
aVnr
p10633
aV32
p10634
aV28
p10635
aVnr
p10636
aV19
p10637
aV32
p10638
aVnr
p10639
aVnr
p10640
aVnr
p10641
aV22
p10642
aVnr
p10643
aVnr
p10644
aV25
p10645
aVnr
p10646
aVnr
p10647
aVnr
p10648
aV13
p10649
aVnr
p10650
aV31
p10651
aV35
p10652
aV9
aV18
p10653
aa(lp10654
V09-11-2016
p10655
aV14
p10656
aV5
aV39
p10657
aVnr
p10658
aV16
p10659
aVnr
p10660
aVnr
p10661
aV24
p10662
aV39
p10663
aVnr
p10664
aV5
aVnr
p10665
aV40
p10666
aV34
p10667
aV9
aV25
p10668
aVnr
p10669
aV32
p10670
aV39
p10671
aVnr
p10672
aVnr
p10673
aVnr
p10674
aV34
p10675
aV37
p10676
aVnr
p10677
aV22
p10678
aV41
p10679
aVnr
p10680
aVnr
p10681
aVnr
p10682
aV21
p10683
aVnr
p10684
aVnr
p10685
aV31
p10686
aVnr
p10687
aVnr
p10688
aVnr
p10689
aV14
p10690
aVnr
p10691
aV39
p10692
aV44
p10693
aV8
aV17
p10694
aas.