(dp1
S'tmp'
p2
(lp3
(lp4
V24-06-2018
p5
aV2
aV15
p6
aV15
p7
aVnr
p8
aVnr
p9
aV16
p10
aVnr
p11
aVnr
p12
aVnr
p13
aV15
p14
aVnr
p15
aVnr
p16
aV12
p17
aV13
p18
aV13
p19
aV17
p20
aV16
p21
aVnr
p22
aV7
aVnr
p23
aVnr
p24
aVnr
p25
aV16
p26
aV16
p27
aV14
p28
aV14
p29
aV15
p30
aVnr
p31
aV17
p32
aV12
p33
aVnr
p34
aV15
p35
aVnr
p36
aVnr
p37
aVnr
p38
aVnr
p39
aV15
p40
aVnr
p41
aVnr
p42
aV16
p43
aVnr
p44
aV16
p45
aV16
p46
aa(lp47
V24-06-2018
p48
aV3
aV15
p49
aV15
p50
aVnr
p51
aVnr
p52
aV15
p53
aVnr
p54
aVnr
p55
aVnr
p56
aV15
p57
aVnr
p58
aVnr
p59
aV12
p60
aV12
p61
aV13
p62
aV16
p63
aV16
p64
aVnr
p65
aV7
aVnr
p66
aVnr
p67
aVnr
p68
aV16
p69
aV15
p70
aV13
p71
aV13
p72
aV15
p73
aVnr
p74
aV16
p75
aV13
p76
aVnr
p77
aV15
p78
aVnr
p79
aVnr
p80
aVnr
p81
aVnr
p82
aV15
p83
aVnr
p84
aVnr
p85
aV16
p86
aVnr
p87
aV15
p88
aV15
p89
aa(lp90
V24-06-2018
p91
aV4
aV14
p92
aV14
p93
aVnr
p94
aVnr
p95
aV15
p96
aVnr
p97
aVnr
p98
aVnr
p99
aV15
p100
aVnr
p101
aVnr
p102
aV12
p103
aV11
p104
aV13
p105
aV16
p106
aV16
p107
aVnr
p108
aV7
aVnr
p109
aVnr
p110
aVnr
p111
aV15
p112
aV15
p113
aV12
p114
aV13
p115
aV15
p116
aVnr
p117
aV16
p118
aV12
p119
aVnr
p120
aV15
p121
aVnr
p122
aVnr
p123
aVnr
p124
aVnr
p125
aV15
p126
aVnr
p127
aVnr
p128
aV15
p129
aVnr
p130
aV15
p131
aV14
p132
aa(lp133
V24-06-2018
p134
aV5
aV13
p135
aV13
p136
aVnr
p137
aVnr
p138
aV14
p139
aVnr
p140
aVnr
p141
aVnr
p142
aV15
p143
aVnr
p144
aVnr
p145
aV11
p146
aV11
p147
aV12
p148
aV15
p149
aV15
p150
aVnr
p151
aV6
aVnr
p152
aVnr
p153
aVnr
p154
aV15
p155
aV15
p156
aV12
p157
aV13
p158
aV14
p159
aVnr
p160
aV16
p161
aV11
p162
aVnr
p163
aV14
p164
aVnr
p165
aVnr
p166
aVnr
p167
aVnr
p168
aV14
p169
aVnr
p170
aVnr
p171
aV15
p172
aVnr
p173
aV15
p174
aV14
p175
aa(lp176
V24-06-2018
p177
aV6
aV13
p178
aV13
p179
aVnr
p180
aVnr
p181
aV14
p182
aVnr
p183
aVnr
p184
aVnr
p185
aV13
p186
aVnr
p187
aVnr
p188
aV10
p189
aV11
p190
aV11
p191
aV15
p192
aV15
p193
aVnr
p194
aV5
aVnr
p195
aVnr
p196
aVnr
p197
aV15
p198
aV14
p199
aV12
p200
aV13
p201
aV13
p202
aVnr
p203
aV16
p204
aV11
p205
aVnr
p206
aV14
p207
aVnr
p208
aVnr
p209
aVnr
p210
aVnr
p211
aV14
p212
aVnr
p213
aVnr
p214
aV14
p215
aVnr
p216
aV14
p217
aV14
p218
aa(lp219
V24-06-2018
p220
aV7
aV13
p221
aV14
p222
aVnr
p223
aVnr
p224
aV14
p225
aVnr
p226
aVnr
p227
aVnr
p228
aV13
p229
aVnr
p230
aVnr
p231
aV11
p232
aV11
p233
aV12
p234
aV16
p235
aV15
p236
aVnr
p237
aV5
aVnr
p238
aVnr
p239
aVnr
p240
aV15
p241
aV14
p242
aV12
p243
aV13
p244
aV14
p245
aVnr
p246
aV16
p247
aV11
p248
aVnr
p249
aV14
p250
aVnr
p251
aVnr
p252
aV14
p253
aVnr
p254
aV14
p255
aVnr
p256
aVnr
p257
aV15
p258
aVnr
p259
aV14
p260
aV15
p261
aa(lp262
V24-06-2018
p263
aV8
aV13
p264
aV14
p265
aVnr
p266
aVnr
p267
aV16
p268
aVnr
p269
aVnr
p270
aVnr
p271
aV15
p272
aVnr
p273
aVnr
p274
aV12
p275
aV13
p276
aV14
p277
aV17
p278
aV16
p279
aVnr
p280
aV7
aVnr
p281
aVnr
p282
aVnr
p283
aV16
p284
aV15
p285
aV13
p286
aV14
p287
aV15
p288
aVnr
p289
aV16
p290
aV13
p291
aVnr
p292
aV15
p293
aVnr
p294
aVnr
p295
aV15
p296
aVnr
p297
aV16
p298
aVnr
p299
aVnr
p300
aV16
p301
aVnr
p302
aV14
p303
aV16
p304
aa(lp305
V24-06-2018
p306
aV9
aV15
p307
aV15
p308
aVnr
p309
aVnr
p310
aV17
p311
aVnr
p312
aVnr
p313
aVnr
p314
aV17
p315
aVnr
p316
aVnr
p317
aV13
p318
aV16
p319
aV16
p320
aV18
p321
aV18
p322
aVnr
p323
aV9
aVnr
p324
aVnr
p325
aVnr
p326
aV17
p327
aV17
p328
aV14
p329
aV16
p330
aV17
p331
aVnr
p332
aV18
p333
aV15
p334
aVnr
p335
aV17
p336
aVnr
p337
aVnr
p338
aV16
p339
aVnr
p340
aV18
p341
aVnr
p342
aVnr
p343
aV17
p344
aVnr
p345
aV16
p346
aV17
p347
aa(lp348
V24-06-2018
p349
aV10
p350
aV17
p351
aV17
p352
aVnr
p353
aVnr
p354
aV18
p355
aVnr
p356
aVnr
p357
aVnr
p358
aV19
p359
aVnr
p360
aVnr
p361
aV15
p362
aV18
p363
aV17
p364
aV20
p365
aV19
p366
aVnr
p367
aV12
p368
aVnr
p369
aVnr
p370
aVnr
p371
aV19
p372
aV18
p373
aV15
p374
aV17
p375
aV18
p376
aVnr
p377
aV19
p378
aV16
p379
aVnr
p380
aV18
p381
aVnr
p382
aVnr
p383
aV18
p384
aVnr
p385
aV19
p386
aVnr
p387
aVnr
p388
aV19
p389
aVnr
p390
aV18
p391
aV19
p392
aa(lp393
V24-06-2018
p394
aV11
p395
aV19
p396
aV18
p397
aVnr
p398
aVnr
p399
aV20
p400
aVnr
p401
aVnr
p402
aVnr
p403
aV20
p404
aVnr
p405
aVnr
p406
aV17
p407
aV19
p408
aV19
p409
aV22
p410
aV20
p411
aVnr
p412
aV15
p413
aVnr
p414
aVnr
p415
aVnr
p416
aV20
p417
aV20
p418
aV17
p419
aV19
p420
aV20
p421
aVnr
p422
aV21
p423
aV17
p424
aVnr
p425
aV20
p426
aVnr
p427
aVnr
p428
aV20
p429
aVnr
p430
aV20
p431
aVnr
p432
aVnr
p433
aV20
p434
aVnr
p435
aV20
p436
aV20
p437
aa(lp438
V24-06-2018
p439
aV12
p440
aV20
p441
aV20
p442
aVnr
p443
aVnr
p444
aV22
p445
aVnr
p446
aVnr
p447
aVnr
p448
aV22
p449
aVnr
p450
aVnr
p451
aV18
p452
aV20
p453
aV21
p454
aV23
p455
aV22
p456
aVnr
p457
aV15
p458
aVnr
p459
aVnr
p460
aVnr
p461
aV22
p462
aV22
p463
aV19
p464
aV20
p465
aV21
p466
aVnr
p467
aV23
p468
aV19
p469
aVnr
p470
aV22
p471
aVnr
p472
aVnr
p473
aV22
p474
aVnr
p475
aV21
p476
aVnr
p477
aVnr
p478
aV22
p479
aVnr
p480
aV22
p481
aV21
p482
aa(lp483
V24-06-2018
p484
aV13
p485
aV22
p486
aV19
p487
aVnr
p488
aVnr
p489
aV23
p490
aVnr
p491
aVnr
p492
aVnr
p493
aV23
p494
aVnr
p495
aVnr
p496
aV17
p497
aV22
p498
aV22
p499
aV24
p500
aV24
p501
aVnr
p502
aV16
p503
aVnr
p504
aVnr
p505
aVnr
p506
aV23
p507
aV23
p508
aV19
p509
aV22
p510
aV22
p511
aVnr
p512
aV24
p513
aV18
p514
aVnr
p515
aV23
p516
aVnr
p517
aVnr
p518
aV24
p519
aVnr
p520
aV22
p521
aVnr
p522
aVnr
p523
aV24
p524
aVnr
p525
aV23
p526
aV22
p527
aa(lp528
V24-06-2018
p529
aV14
p530
aV23
p531
aV20
p532
aVnr
p533
aVnr
p534
aV22
p535
aVnr
p536
aVnr
p537
aVnr
p538
aV25
p539
aVnr
p540
aVnr
p541
aV13
p542
aV23
p543
aV20
p544
aV24
p545
aVnr
p546
aVnr
p547
aV16
p548
aVnr
p549
aVnr
p550
aVnr
p551
aV23
p552
aV22
p553
aV18
p554
aV22
p555
aV20
p556
aVnr
p557
aV25
p558
aV16
p559
aVnr
p560
aV23
p561
aVnr
p562
aVnr
p563
aV22
p564
aVnr
p565
aV22
p566
aVnr
p567
aVnr
p568
aV23
p569
aVnr
p570
aV24
p571
aV23
p572
aa(lp573
V24-06-2018
p574
aV15
p575
aV23
p576
aV20
p577
aVnr
p578
aVnr
p579
aV19
p580
aVnr
p581
aVnr
p582
aVnr
p583
aV21
p584
aVnr
p585
aVnr
p586
aV12
p587
aV20
p588
aV19
p589
aV17
p590
aV17
p591
aVnr
p592
aV11
p593
aVnr
p594
aVnr
p595
aVnr
p596
aV16
p597
aV18
p598
aV20
p599
aV16
p600
aV19
p601
aVnr
p602
aV22
p603
aV14
p604
aVnr
p605
aV13
p606
aVnr
p607
aVnr
p608
aV23
p609
aVnr
p610
aV18
p611
aVnr
p612
aVnr
p613
aV22
p614
aVnr
p615
aV23
p616
aV17
p617
aa(lp618
V24-06-2018
p619
aV16
p620
aV16
p621
aV17
p622
aVnr
p623
aVnr
p624
aV18
p625
aVnr
p626
aVnr
p627
aVnr
p628
aV15
p629
aVnr
p630
aVnr
p631
aV14
p632
aV19
p633
aV18
p634
aV15
p635
aV17
p636
aVnr
p637
aV9
aVnr
p638
aVnr
p639
aVnr
p640
aV15
p641
aV17
p642
aV18
p643
aV16
p644
aV18
p645
aVnr
p646
aV17
p647
aV15
p648
aVnr
p649
aV14
p650
aVnr
p651
aVnr
p652
aV20
p653
aVnr
p654
aV17
p655
aVnr
p656
aVnr
p657
aV19
p658
aVnr
p659
aV20
p660
aV15
p661
aa(lp662
V24-06-2018
p663
aV17
p664
aV17
p665
aV17
p666
aVnr
p667
aVnr
p668
aV19
p669
aVnr
p670
aVnr
p671
aVnr
p672
aV16
p673
aVnr
p674
aVnr
p675
aV14
p676
aV19
p677
aV19
p678
aV18
p679
aV19
p680
aVnr
p681
aV10
p682
aVnr
p683
aVnr
p684
aVnr
p685
aV18
p686
aV19
p687
aV16
p688
aV17
p689
aV18
p690
aVnr
p691
aV18
p692
aV15
p693
aVnr
p694
aV17
p695
aVnr
p696
aVnr
p697
aV19
p698
aVnr
p699
aV19
p700
aVnr
p701
aVnr
p702
aV20
p703
aVnr
p704
aV20
p705
aV17
p706
aa(lp707
V24-06-2018
p708
aV18
p709
aV18
p710
aV18
p711
aVnr
p712
aVnr
p713
aV20
p714
aVnr
p715
aVnr
p716
aVnr
p717
aV18
p718
aVnr
p719
aVnr
p720
aV15
p721
aV18
p722
aV18
p723
aV20
p724
aV20
p725
aVnr
p726
aV12
p727
aVnr
p728
aVnr
p729
aVnr
p730
aV19
p731
aV19
p732
aV17
p733
aV18
p734
aV19
p735
aVnr
p736
aV20
p737
aV16
p738
aVnr
p739
aV18
p740
aVnr
p741
aVnr
p742
aV20
p743
aVnr
p744
aV19
p745
aVnr
p746
aVnr
p747
aV21
p748
aVnr
p749
aV21
p750
aV19
p751
aa(lp752
V24-06-2018
p753
aV19
p754
aV18
p755
aV18
p756
aVnr
p757
aVnr
p758
aV19
p759
aVnr
p760
aVnr
p761
aVnr
p762
aV18
p763
aVnr
p764
aVnr
p765
aV15
p766
aV17
p767
aV18
p768
aV19
p769
aV19
p770
aVnr
p771
aV13
p772
aVnr
p773
aVnr
p774
aVnr
p775
aV19
p776
aV19
p777
aV16
p778
aV18
p779
aV19
p780
aVnr
p781
aV20
p782
aV16
p783
aVnr
p784
aV18
p785
aVnr
p786
aVnr
p787
aV19
p788
aVnr
p789
aV18
p790
aVnr
p791
aVnr
p792
aV20
p793
aVnr
p794
aV19
p795
aV18
p796
aa(lp797
V24-06-2018
p798
aV20
p799
aV17
p800
aV18
p801
aVnr
p802
aVnr
p803
aV19
p804
aVnr
p805
aVnr
p806
aVnr
p807
aV17
p808
aVnr
p809
aVnr
p810
aV14
p811
aV16
p812
aV17
p813
aV18
p814
aV18
p815
aVnr
p816
aV10
p817
aVnr
p818
aVnr
p819
aVnr
p820
aV18
p821
aV18
p822
aV16
p823
aV17
p824
aV19
p825
aVnr
p826
aV19
p827
aV15
p828
aVnr
p829
aV17
p830
aVnr
p831
aVnr
p832
aVnr
p833
aVnr
p834
aV18
p835
aVnr
p836
aVnr
p837
aV20
p838
aVnr
p839
aV18
p840
aV17
p841
aa(lp842
V24-06-2018
p843
aV21
p844
aV16
p845
aV17
p846
aVnr
p847
aVnr
p848
aV18
p849
aVnr
p850
aVnr
p851
aVnr
p852
aV17
p853
aVnr
p854
aVnr
p855
aV13
p856
aV16
p857
aV16
p858
aV18
p859
aVnr
p860
aVnr
p861
aV8
aVnr
p862
aVnr
p863
aVnr
p864
aV17
p865
aV18
p866
aV15
p867
aV17
p868
aV17
p869
aVnr
p870
aV18
p871
aV14
p872
aVnr
p873
aV16
p874
aVnr
p875
aVnr
p876
aVnr
p877
aVnr
p878
aV17
p879
aVnr
p880
aVnr
p881
aV19
p882
aVnr
p883
aV18
p884
aV17
p885
aa(lp886
V24-06-2018
p887
aV22
p888
aV16
p889
aV15
p890
aVnr
p891
aVnr
p892
aV17
p893
aVnr
p894
aVnr
p895
aVnr
p896
aV17
p897
aVnr
p898
aVnr
p899
aV13
p900
aV14
p901
aV16
p902
aV18
p903
aV17
p904
aVnr
p905
aV7
aVnr
p906
aVnr
p907
aVnr
p908
aV17
p909
aV17
p910
aV14
p911
aV16
p912
aV16
p913
aVnr
p914
aV18
p915
aV13
p916
aVnr
p917
aV16
p918
aVnr
p919
aVnr
p920
aVnr
p921
aVnr
p922
aV17
p923
aVnr
p924
aVnr
p925
aV18
p926
aVnr
p927
aV18
p928
aV17
p929
aa(lp930
V24-06-2018
p931
aV23
p932
aV15
p933
aV15
p934
aVnr
p935
aVnr
p936
aV17
p937
aVnr
p938
aVnr
p939
aVnr
p940
aV17
p941
aVnr
p942
aVnr
p943
aV13
p944
aV14
p945
aV15
p946
aV17
p947
aV17
p948
aVnr
p949
aV7
aVnr
p950
aVnr
p951
aVnr
p952
aV17
p953
aV16
p954
aV14
p955
aVnr
p956
aV16
p957
aVnr
p958
aV18
p959
aV13
p960
aVnr
p961
aV16
p962
aVnr
p963
aVnr
p964
aVnr
p965
aVnr
p966
aV16
p967
aVnr
p968
aVnr
p969
aV18
p970
aVnr
p971
aV16
p972
aV17
p973
aa(lp974
V24-06-2018
p975
aV24
p976
aV16
p977
aV15
p978
aVnr
p979
aVnr
p980
aV17
p981
aVnr
p982
aVnr
p983
aVnr
p984
aV16
p985
aVnr
p986
aVnr
p987
aV13
p988
aV13
p989
aV15
p990
aV17
p991
aV17
p992
aVnr
p993
aV7
aVnr
p994
aVnr
p995
aVnr
p996
aV17
p997
aV17
p998
aV13
p999
aVnr
p1000
aV16
p1001
aVnr
p1002
aV18
p1003
aV13
p1004
aVnr
p1005
aV15
p1006
aVnr
p1007
aVnr
p1008
aVnr
p1009
aVnr
p1010
aV16
p1011
aVnr
p1012
aVnr
p1013
aV18
p1014
aVnr
p1015
aV16
p1016
aV16
p1017
aa(lp1018
V25-06-2018
p1019
aV1
aV15
p1020
aV15
p1021
aVnr
p1022
aVnr
p1023
aV17
p1024
aVnr
p1025
aVnr
p1026
aVnr
p1027
aV15
p1028
aVnr
p1029
aVnr
p1030
aV13
p1031
aV12
p1032
aV14
p1033
aV17
p1034
aV16
p1035
aVnr
p1036
aV7
aVnr
p1037
aVnr
p1038
aVnr
p1039
aV16
p1040
aV16
p1041
aV13
p1042
aVnr
p1043
aV16
p1044
aVnr
p1045
aV17
p1046
aV13
p1047
aVnr
p1048
aV15
p1049
aVnr
p1050
aVnr
p1051
aVnr
p1052
aVnr
p1053
aV16
p1054
aVnr
p1055
aVnr
p1056
aV17
p1057
aVnr
p1058
aV16
p1059
aV16
p1060
aasS'co'
p1061
(lp1062
(lp1063
V24-06-2018
p1064
aV2
aV0.1
p1065
aV0.3
p1066
aVnr
p1067
aVnr
p1068
aV0.4
p1069
aVnr
p1070
aV0.7
p1071
aV0.6
p1072
aV0.3
p1073
aVnr
p1074
aV0.0
p1075
aVnr
p1076
aVnr
p1077
aV0.5
p1078
aVnr
p1079
aV0.6
p1080
aVnr
p1081
aV0.7
p1082
aVnr
p1083
aV0.2
p1084
aV0.6
p1085
aVnr
p1086
aV0.4
p1087
aV0.5
p1088
aV0.6
p1089
aV0.4
p1090
aV0.2
p1091
aV0.5
p1092
aV0.4
p1093
aVnr
p1094
aV0.0
p1095
aV0.3
p1096
aVnr
p1097
aVnr
p1098
aVnr
p1099
aVnr
p1100
aVnr
p1101
aVnr
p1102
aV0.8
p1103
aVnr
p1104
aVnr
p1105
aV0.3
p1106
aV0.3
p1107
aVnr
p1108
aV0.6
p1109
aV0.3
p1110
aa(lp1111
V24-06-2018
p1112
aV3
aV0.2
p1113
aV0.3
p1114
aVnr
p1115
aVnr
p1116
aV0.5
p1117
aVnr
p1118
aV0.6
p1119
aV0.6
p1120
aV0.3
p1121
aVnr
p1122
aV0.0
p1123
aVnr
p1124
aVnr
p1125
aV0.5
p1126
aVnr
p1127
aV0.5
p1128
aVnr
p1129
aV0.2
p1130
aVnr
p1131
aV0.2
p1132
aV0.6
p1133
aVnr
p1134
aV0.4
p1135
aV0.2
p1136
aV0.6
p1137
aV0.4
p1138
aV0.2
p1139
aV0.4
p1140
aV0.5
p1141
aVnr
p1142
aV0.0
p1143
aV0.3
p1144
aVnr
p1145
aVnr
p1146
aVnr
p1147
aVnr
p1148
aVnr
p1149
aVnr
p1150
aV0.8
p1151
aVnr
p1152
aVnr
p1153
aV0.3
p1154
aV0.2
p1155
aVnr
p1156
aV0.5
p1157
aV0.3
p1158
aa(lp1159
V24-06-2018
p1160
aV4
aV0.2
p1161
aV0.4
p1162
aVnr
p1163
aVnr
p1164
aV0.6
p1165
aVnr
p1166
aV0.5
p1167
aV0.5
p1168
aV0.1
p1169
aVnr
p1170
aV0.0
p1171
aVnr
p1172
aVnr
p1173
aV0.5
p1174
aVnr
p1175
aV0.5
p1176
aVnr
p1177
aV0.2
p1178
aVnr
p1179
aV0.2
p1180
aV0.5
p1181
aVnr
p1182
aV0.4
p1183
aV0.3
p1184
aV0.6
p1185
aV0.5
p1186
aV0.2
p1187
aV0.4
p1188
aV0.4
p1189
aVnr
p1190
aV0.0
p1191
aV0.3
p1192
aVnr
p1193
aVnr
p1194
aVnr
p1195
aVnr
p1196
aVnr
p1197
aVnr
p1198
aV1.0
p1199
aV0.6
p1200
aVnr
p1201
aV0.3
p1202
aV0.3
p1203
aVnr
p1204
aV0.4
p1205
aV0.3
p1206
aa(lp1207
V24-06-2018
p1208
aV5
aV0.2
p1209
aV0.4
p1210
aVnr
p1211
aVnr
p1212
aV0.5
p1213
aVnr
p1214
aV0.6
p1215
aV0.5
p1216
aV0.1
p1217
aVnr
p1218
aV0.0
p1219
aVnr
p1220
aVnr
p1221
aV0.7
p1222
aVnr
p1223
aV0.4
p1224
aVnr
p1225
aV0.3
p1226
aVnr
p1227
aV0.2
p1228
aV0.8
p1229
aVnr
p1230
aV0.4
p1231
aV0.6
p1232
aV0.7
p1233
aV0.6
p1234
aV0.2
p1235
aV0.5
p1236
aV0.3
p1237
aVnr
p1238
aV0.0
p1239
aV0.3
p1240
aVnr
p1241
aVnr
p1242
aVnr
p1243
aVnr
p1244
aVnr
p1245
aVnr
p1246
aV0.9
p1247
aV0.9
p1248
aVnr
p1249
aV0.3
p1250
aV0.3
p1251
aVnr
p1252
aV0.2
p1253
aV0.3
p1254
aa(lp1255
V24-06-2018
p1256
aV6
aV0.3
p1257
aV0.4
p1258
aVnr
p1259
aVnr
p1260
aV0.6
p1261
aVnr
p1262
aV0.5
p1263
aV0.7
p1264
aV0.1
p1265
aVnr
p1266
aV0.1
p1267
aVnr
p1268
aVnr
p1269
aV0.8
p1270
aVnr
p1271
aV0.7
p1272
aVnr
p1273
aV0.4
p1274
aVnr
p1275
aV0.2
p1276
aV1.0
p1277
aVnr
p1278
aV0.8
p1279
aV0.5
p1280
aV0.8
p1281
aV0.8
p1282
aV0.2
p1283
aV0.6
p1284
aV0.3
p1285
aVnr
p1286
aV0.1
p1287
aV0.5
p1288
aVnr
p1289
aVnr
p1290
aVnr
p1291
aVnr
p1292
aVnr
p1293
aVnr
p1294
aV0.8
p1295
aV0.8
p1296
aVnr
p1297
aV0.4
p1298
aV0.4
p1299
aVnr
p1300
aV0.5
p1301
aV0.5
p1302
aa(lp1303
V24-06-2018
p1304
aV7
aV0.5
p1305
aV0.3
p1306
aVnr
p1307
aVnr
p1308
aV0.6
p1309
aVnr
p1310
aV0.6
p1311
aV1.0
p1312
aV0.2
p1313
aVnr
p1314
aV0.5
p1315
aVnr
p1316
aVnr
p1317
aV1.2
p1318
aVnr
p1319
aV1.0
p1320
aVnr
p1321
aV0.7
p1322
aVnr
p1323
aV0.2
p1324
aV0.9
p1325
aVnr
p1326
aV1.0
p1327
aV0.7
p1328
aV1.1
p1329
aV0.9
p1330
aV0.2
p1331
aV0.9
p1332
aV0.6
p1333
aVnr
p1334
aV0.6
p1335
aV0.6
p1336
aVnr
p1337
aVnr
p1338
aVnr
p1339
aV0.1
p1340
aVnr
p1341
aVnr
p1342
aV1.3
p1343
aV0.8
p1344
aVnr
p1345
aV0.5
p1346
aV0.4
p1347
aVnr
p1348
aV0.5
p1349
aV0.6
p1350
aa(lp1351
V24-06-2018
p1352
aV8
aV0.4
p1353
aV0.4
p1354
aVnr
p1355
aVnr
p1356
aV0.6
p1357
aVnr
p1358
aV0.6
p1359
aV0.9
p1360
aV0.3
p1361
aVnr
p1362
aV0.2
p1363
aVnr
p1364
aVnr
p1365
aV0.7
p1366
aVnr
p1367
aV0.6
p1368
aVnr
p1369
aV0.6
p1370
aVnr
p1371
aV0.3
p1372
aV0.7
p1373
aVnr
p1374
aV1.2
p1375
aV0.6
p1376
aV1.2
p1377
aV0.5
p1378
aV0.2
p1379
aV1.2
p1380
aV0.4
p1381
aVnr
p1382
aV0.4
p1383
aV0.6
p1384
aVnr
p1385
aVnr
p1386
aVnr
p1387
aV0.1
p1388
aVnr
p1389
aVnr
p1390
aV1.1
p1391
aV0.9
p1392
aVnr
p1393
aV0.5
p1394
aV0.4
p1395
aVnr
p1396
aV0.4
p1397
aV0.5
p1398
aa(lp1399
V24-06-2018
p1400
aV9
aV0.3
p1401
aV0.4
p1402
aVnr
p1403
aVnr
p1404
aV0.5
p1405
aVnr
p1406
aV0.6
p1407
aV0.8
p1408
aV0.2
p1409
aVnr
p1410
aV0.0
p1411
aVnr
p1412
aVnr
p1413
aV0.7
p1414
aVnr
p1415
aV0.5
p1416
aVnr
p1417
aV0.5
p1418
aVnr
p1419
aV0.3
p1420
aV0.8
p1421
aVnr
p1422
aV0.9
p1423
aV0.6
p1424
aV1.1
p1425
aV0.5
p1426
aV0.2
p1427
aV1.2
p1428
aV0.4
p1429
aVnr
p1430
aV0.0
p1431
aV0.4
p1432
aVnr
p1433
aVnr
p1434
aVnr
p1435
aV0.1
p1436
aVnr
p1437
aVnr
p1438
aV0.9
p1439
aV0.9
p1440
aVnr
p1441
aV0.6
p1442
aV0.5
p1443
aVnr
p1444
aV0.4
p1445
aV0.7
p1446
aa(lp1447
V24-06-2018
p1448
aV10
p1449
aV0.2
p1450
aV0.4
p1451
aVnr
p1452
aVnr
p1453
aV0.5
p1454
aVnr
p1455
aV0.6
p1456
aV0.7
p1457
aV0.2
p1458
aVnr
p1459
aV0.1
p1460
aVnr
p1461
aVnr
p1462
aV0.7
p1463
aVnr
p1464
aV0.5
p1465
aVnr
p1466
aV0.5
p1467
aVnr
p1468
aV0.3
p1469
aV0.8
p1470
aVnr
p1471
aV0.6
p1472
aV0.6
p1473
aV0.9
p1474
aV0.5
p1475
aV0.3
p1476
aV1.1
p1477
aV0.4
p1478
aVnr
p1479
aV0.0
p1480
aV0.3
p1481
aVnr
p1482
aVnr
p1483
aVnr
p1484
aV0.1
p1485
aVnr
p1486
aVnr
p1487
aV0.8
p1488
aV0.7
p1489
aVnr
p1490
aV0.5
p1491
aV0.6
p1492
aVnr
p1493
aV0.4
p1494
aV0.6
p1495
aa(lp1496
V24-06-2018
p1497
aV11
p1498
aV0.2
p1499
aV0.4
p1500
aVnr
p1501
aVnr
p1502
aV0.4
p1503
aVnr
p1504
aV0.6
p1505
aV0.5
p1506
aV0.2
p1507
aVnr
p1508
aV0.3
p1509
aVnr
p1510
aVnr
p1511
aV0.6
p1512
aVnr
p1513
aV0.5
p1514
aVnr
p1515
aV0.4
p1516
aVnr
p1517
aV0.3
p1518
aV0.7
p1519
aVnr
p1520
aV0.6
p1521
aV0.7
p1522
aV0.8
p1523
aV0.6
p1524
aV0.3
p1525
aV1.2
p1526
aV0.4
p1527
aVnr
p1528
aV0.0
p1529
aV0.3
p1530
aVnr
p1531
aVnr
p1532
aVnr
p1533
aV0.0
p1534
aVnr
p1535
aVnr
p1536
aV0.7
p1537
aV0.7
p1538
aVnr
p1539
aV0.5
p1540
aV0.6
p1541
aVnr
p1542
aV0.2
p1543
aV0.5
p1544
aa(lp1545
V24-06-2018
p1546
aV12
p1547
aV0.2
p1548
aV0.4
p1549
aVnr
p1550
aVnr
p1551
aV0.4
p1552
aVnr
p1553
aV0.5
p1554
aV0.5
p1555
aV0.3
p1556
aVnr
p1557
aV0.0
p1558
aVnr
p1559
aVnr
p1560
aV0.6
p1561
aVnr
p1562
aV0.5
p1563
aVnr
p1564
aV0.2
p1565
aVnr
p1566
aV0.3
p1567
aV0.6
p1568
aVnr
p1569
aV0.6
p1570
aV0.7
p1571
aV0.7
p1572
aV0.5
p1573
aV0.2
p1574
aV0.9
p1575
aV0.4
p1576
aVnr
p1577
aV0.1
p1578
aV0.4
p1579
aVnr
p1580
aVnr
p1581
aVnr
p1582
aV0.0
p1583
aVnr
p1584
aVnr
p1585
aV0.7
p1586
aV0.6
p1587
aVnr
p1588
aV0.5
p1589
aV0.6
p1590
aVnr
p1591
aV0.2
p1592
aV0.6
p1593
aa(lp1594
V24-06-2018
p1595
aV13
p1596
aV0.3
p1597
aV0.4
p1598
aVnr
p1599
aVnr
p1600
aV0.4
p1601
aVnr
p1602
aV0.5
p1603
aV0.6
p1604
aV0.2
p1605
aVnr
p1606
aV0.0
p1607
aVnr
p1608
aVnr
p1609
aV0.7
p1610
aVnr
p1611
aV0.5
p1612
aVnr
p1613
aV0.3
p1614
aVnr
p1615
aV0.2
p1616
aV0.7
p1617
aVnr
p1618
aV0.4
p1619
aV0.7
p1620
aV0.6
p1621
aV0.5
p1622
aV0.2
p1623
aV0.6
p1624
aV0.4
p1625
aVnr
p1626
aV0.0
p1627
aV0.4
p1628
aVnr
p1629
aVnr
p1630
aVnr
p1631
aV0.0
p1632
aVnr
p1633
aVnr
p1634
aV0.7
p1635
aV0.7
p1636
aVnr
p1637
aV0.5
p1638
aV0.4
p1639
aVnr
p1640
aV0.2
p1641
aV0.5
p1642
aa(lp1643
V24-06-2018
p1644
aV14
p1645
aV0.2
p1646
aV0.3
p1647
aVnr
p1648
aVnr
p1649
aV0.4
p1650
aVnr
p1651
aV0.6
p1652
aV0.6
p1653
aV0.2
p1654
aVnr
p1655
aV0.0
p1656
aVnr
p1657
aVnr
p1658
aV0.8
p1659
aVnr
p1660
aV0.4
p1661
aVnr
p1662
aVnr
p1663
aVnr
p1664
aV0.3
p1665
aV0.7
p1666
aVnr
p1667
aV0.4
p1668
aV0.8
p1669
aV0.7
p1670
aV0.6
p1671
aV0.2
p1672
aV0.6
p1673
aV0.4
p1674
aVnr
p1675
aV0.0
p1676
aV0.4
p1677
aVnr
p1678
aVnr
p1679
aVnr
p1680
aV0.0
p1681
aVnr
p1682
aVnr
p1683
aV0.7
p1684
aV0.7
p1685
aVnr
p1686
aV0.4
p1687
aV0.5
p1688
aVnr
p1689
aV0.1
p1690
aV0.4
p1691
aa(lp1692
V24-06-2018
p1693
aV15
p1694
aV0.2
p1695
aV0.4
p1696
aVnr
p1697
aVnr
p1698
aV0.2
p1699
aVnr
p1700
aV0.6
p1701
aV0.6
p1702
aV0.1
p1703
aVnr
p1704
aVnr
p1705
aVnr
p1706
aVnr
p1707
aV0.7
p1708
aVnr
p1709
aV0.4
p1710
aVnr
p1711
aVnr
p1712
aVnr
p1713
aV0.3
p1714
aVnr
p1715
aVnr
p1716
aV0.5
p1717
aV1.1
p1718
aV0.8
p1719
aV0.7
p1720
aV0.2
p1721
aV1.0
p1722
aV0.4
p1723
aVnr
p1724
aV0.1
p1725
aV0.4
p1726
aVnr
p1727
aVnr
p1728
aVnr
p1729
aV0.0
p1730
aVnr
p1731
aVnr
p1732
aV0.7
p1733
aV0.7
p1734
aVnr
p1735
aV0.3
p1736
aV0.4
p1737
aVnr
p1738
aV0.2
p1739
aV0.5
p1740
aa(lp1741
V24-06-2018
p1742
aV16
p1743
aV0.4
p1744
aV0.5
p1745
aVnr
p1746
aVnr
p1747
aV0.4
p1748
aVnr
p1749
aV0.6
p1750
aV0.7
p1751
aV0.2
p1752
aVnr
p1753
aV2.1
p1754
aVnr
p1755
aVnr
p1756
aV0.8
p1757
aVnr
p1758
aV0.5
p1759
aVnr
p1760
aVnr
p1761
aVnr
p1762
aV0.3
p1763
aV0.9
p1764
aVnr
p1765
aV0.7
p1766
aV0.9
p1767
aV0.8
p1768
aV0.6
p1769
aV0.3
p1770
aV1.0
p1771
aV0.5
p1772
aVnr
p1773
aV0.2
p1774
aV0.5
p1775
aVnr
p1776
aVnr
p1777
aVnr
p1778
aV0.2
p1779
aVnr
p1780
aVnr
p1781
aV0.9
p1782
aV0.7
p1783
aVnr
p1784
aV0.5
p1785
aV0.5
p1786
aVnr
p1787
aV0.3
p1788
aV0.7
p1789
aa(lp1790
V24-06-2018
p1791
aV17
p1792
aV0.3
p1793
aV0.5
p1794
aVnr
p1795
aVnr
p1796
aV0.4
p1797
aVnr
p1798
aV0.6
p1799
aV0.7
p1800
aV0.2
p1801
aVnr
p1802
aV0.3
p1803
aVnr
p1804
aVnr
p1805
aV0.6
p1806
aVnr
p1807
aV0.4
p1808
aVnr
p1809
aV0.4
p1810
aVnr
p1811
aV0.4
p1812
aV0.7
p1813
aVnr
p1814
aV0.6
p1815
aV1.1
p1816
aV1.0
p1817
aV0.5
p1818
aV0.3
p1819
aV0.9
p1820
aV0.5
p1821
aVnr
p1822
aV0.3
p1823
aV0.4
p1824
aVnr
p1825
aVnr
p1826
aVnr
p1827
aV0.2
p1828
aVnr
p1829
aVnr
p1830
aV0.6
p1831
aV0.7
p1832
aVnr
p1833
aV0.4
p1834
aV0.5
p1835
aVnr
p1836
aV0.3
p1837
aV0.7
p1838
aa(lp1839
V24-06-2018
p1840
aV18
p1841
aV0.4
p1842
aV0.4
p1843
aVnr
p1844
aVnr
p1845
aVnr
p1846
aVnr
p1847
aV0.6
p1848
aV0.6
p1849
aV0.2
p1850
aVnr
p1851
aV0.4
p1852
aVnr
p1853
aVnr
p1854
aV0.7
p1855
aVnr
p1856
aV0.5
p1857
aVnr
p1858
aV0.3
p1859
aVnr
p1860
aV0.3
p1861
aV0.7
p1862
aVnr
p1863
aV0.7
p1864
aV0.9
p1865
aV0.8
p1866
aV0.6
p1867
aV0.3
p1868
aV0.9
p1869
aV0.4
p1870
aVnr
p1871
aV0.3
p1872
aV0.4
p1873
aVnr
p1874
aVnr
p1875
aVnr
p1876
aV0.2
p1877
aVnr
p1878
aVnr
p1879
aV0.7
p1880
aV0.7
p1881
aVnr
p1882
aV0.5
p1883
aV0.5
p1884
aVnr
p1885
aV0.2
p1886
aV0.7
p1887
aa(lp1888
V24-06-2018
p1889
aV19
p1890
aV0.4
p1891
aV0.5
p1892
aVnr
p1893
aVnr
p1894
aV0.4
p1895
aVnr
p1896
aV0.6
p1897
aV1.0
p1898
aV0.2
p1899
aVnr
p1900
aV0.6
p1901
aVnr
p1902
aVnr
p1903
aV0.7
p1904
aVnr
p1905
aV0.9
p1906
aVnr
p1907
aV0.4
p1908
aVnr
p1909
aV0.3
p1910
aV0.8
p1911
aVnr
p1912
aV0.6
p1913
aV0.8
p1914
aV0.8
p1915
aV0.6
p1916
aV0.3
p1917
aV1.1
p1918
aV0.4
p1919
aVnr
p1920
aV0.2
p1921
aV0.4
p1922
aVnr
p1923
aVnr
p1924
aVnr
p1925
aV0.2
p1926
aVnr
p1927
aVnr
p1928
aV0.9
p1929
aV0.7
p1930
aVnr
p1931
aV0.5
p1932
aV0.5
p1933
aVnr
p1934
aV0.2
p1935
aV0.7
p1936
aa(lp1937
V24-06-2018
p1938
aV20
p1939
aV0.4
p1940
aV0.6
p1941
aVnr
p1942
aVnr
p1943
aV0.5
p1944
aVnr
p1945
aV0.7
p1946
aV0.9
p1947
aV0.4
p1948
aVnr
p1949
aV0.5
p1950
aVnr
p1951
aVnr
p1952
aV0.9
p1953
aVnr
p1954
aV0.7
p1955
aVnr
p1956
aV0.5
p1957
aVnr
p1958
aV0.3
p1959
aV1.0
p1960
aVnr
p1961
aV0.7
p1962
aV0.9
p1963
aV0.8
p1964
aV0.7
p1965
aV0.3
p1966
aV1.3
p1967
aV0.5
p1968
aVnr
p1969
aV0.2
p1970
aV0.5
p1971
aVnr
p1972
aVnr
p1973
aVnr
p1974
aVnr
p1975
aVnr
p1976
aVnr
p1977
aV0.8
p1978
aV0.8
p1979
aVnr
p1980
aV0.7
p1981
aV0.9
p1982
aVnr
p1983
aV0.3
p1984
aV0.6
p1985
aa(lp1986
V24-06-2018
p1987
aV21
p1988
aV0.4
p1989
aV0.7
p1990
aVnr
p1991
aVnr
p1992
aV0.5
p1993
aVnr
p1994
aV0.7
p1995
aV0.8
p1996
aV0.4
p1997
aVnr
p1998
aV0.6
p1999
aVnr
p2000
aVnr
p2001
aV1.2
p2002
aVnr
p2003
aV0.9
p2004
aVnr
p2005
aV0.5
p2006
aVnr
p2007
aV0.3
p2008
aV1.0
p2009
aVnr
p2010
aV0.7
p2011
aV0.8
p2012
aV0.8
p2013
aV0.8
p2014
aV0.4
p2015
aV1.0
p2016
aV0.5
p2017
aVnr
p2018
aV0.2
p2019
aV0.5
p2020
aVnr
p2021
aVnr
p2022
aVnr
p2023
aVnr
p2024
aVnr
p2025
aVnr
p2026
aV0.8
p2027
aV0.9
p2028
aVnr
p2029
aV0.8
p2030
aV0.8
p2031
aVnr
p2032
aV0.4
p2033
aV0.9
p2034
aa(lp2035
V24-06-2018
p2036
aV22
p2037
aV0.6
p2038
aV0.6
p2039
aVnr
p2040
aVnr
p2041
aV0.4
p2042
aVnr
p2043
aV0.9
p2044
aV1.1
p2045
aV0.4
p2046
aVnr
p2047
aV0.4
p2048
aVnr
p2049
aVnr
p2050
aV1.2
p2051
aVnr
p2052
aV0.8
p2053
aVnr
p2054
aV0.7
p2055
aVnr
p2056
aV0.3
p2057
aV1.0
p2058
aVnr
p2059
aV0.9
p2060
aV1.0
p2061
aV1.0
p2062
aV1.1
p2063
aV0.3
p2064
aV0.9
p2065
aV0.6
p2066
aVnr
p2067
aV0.4
p2068
aV0.6
p2069
aVnr
p2070
aVnr
p2071
aVnr
p2072
aVnr
p2073
aVnr
p2074
aVnr
p2075
aV0.9
p2076
aV1.0
p2077
aVnr
p2078
aV1.0
p2079
aV0.7
p2080
aVnr
p2081
aV0.5
p2082
aV0.9
p2083
aa(lp2084
V24-06-2018
p2085
aV23
p2086
aV0.4
p2087
aV0.6
p2088
aVnr
p2089
aVnr
p2090
aV0.7
p2091
aVnr
p2092
aV1.0
p2093
aV1.0
p2094
aV0.5
p2095
aVnr
p2096
aV0.2
p2097
aVnr
p2098
aVnr
p2099
aV0.7
p2100
aVnr
p2101
aV0.8
p2102
aVnr
p2103
aV0.9
p2104
aVnr
p2105
aV0.3
p2106
aV1.2
p2107
aVnr
p2108
aV0.8
p2109
aV1.0
p2110
aV1.1
p2111
aV1.1
p2112
aV0.3
p2113
aVnr
p2114
aV0.6
p2115
aVnr
p2116
aV0.5
p2117
aV0.5
p2118
aVnr
p2119
aVnr
p2120
aVnr
p2121
aVnr
p2122
aVnr
p2123
aVnr
p2124
aV1.1
p2125
aV0.9
p2126
aVnr
p2127
aV1.0
p2128
aV0.5
p2129
aVnr
p2130
aV0.3
p2131
aV1.2
p2132
aa(lp2133
V24-06-2018
p2134
aV24
p2135
aV0.3
p2136
aV0.6
p2137
aVnr
p2138
aVnr
p2139
aV0.4
p2140
aVnr
p2141
aV1.1
p2142
aV0.8
p2143
aV0.5
p2144
aVnr
p2145
aV0.2
p2146
aVnr
p2147
aVnr
p2148
aV0.5
p2149
aVnr
p2150
aV0.9
p2151
aVnr
p2152
aV0.8
p2153
aVnr
p2154
aV0.2
p2155
aV1.1
p2156
aVnr
p2157
aV0.7
p2158
aV0.6
p2159
aV1.1
p2160
aV0.9
p2161
aV0.3
p2162
aVnr
p2163
aV0.7
p2164
aVnr
p2165
aV0.2
p2166
aV0.4
p2167
aVnr
p2168
aVnr
p2169
aVnr
p2170
aVnr
p2171
aVnr
p2172
aVnr
p2173
aV0.8
p2174
aV0.8
p2175
aVnr
p2176
aV0.9
p2177
aV0.7
p2178
aVnr
p2179
aV0.2
p2180
aV0.8
p2181
aa(lp2182
V25-06-2018
p2183
aV1
aV0.3
p2184
aV0.6
p2185
aVnr
p2186
aVnr
p2187
aV0.3
p2188
aVnr
p2189
aV1.0
p2190
aV0.8
p2191
aV0.4
p2192
aVnr
p2193
aV0.2
p2194
aVnr
p2195
aVnr
p2196
aV0.5
p2197
aVnr
p2198
aV0.7
p2199
aVnr
p2200
aV0.7
p2201
aVnr
p2202
aV0.2
p2203
aV1.0
p2204
aVnr
p2205
aV0.8
p2206
aV0.7
p2207
aV0.9
p2208
aV0.6
p2209
aV0.3
p2210
aVnr
p2211
aV0.5
p2212
aVnr
p2213
aV0.1
p2214
aV0.4
p2215
aVnr
p2216
aVnr
p2217
aVnr
p2218
aVnr
p2219
aVnr
p2220
aVnr
p2221
aV0.7
p2222
aV0.7
p2223
aVnr
p2224
aV0.5
p2225
aV0.5
p2226
aVnr
p2227
aV0.3
p2228
aV1.0
p2229
aasS'pm2'
p2230
(lp2231
(lp2232
V24-06-2018
p2233
aV2
aVnr
p2234
aV5
aVnr
p2235
aVnr
p2236
aV12
p2237
aV12
p2238
aV8
aV4
aVnr
p2239
aVnr
p2240
aVnr
p2241
aVnr
p2242
aVnr
p2243
aVnr
p2244
aV13
p2245
aVnr
p2246
aVnr
p2247
aVnr
p2248
aVnr
p2249
aV18
p2250
aV4
aVnr
p2251
aV4
aVnr
p2252
aV9
aV6
aVnr
p2253
aVnr
p2254
aVnr
p2255
aVnr
p2256
aVnr
p2257
aVnr
p2258
aVnr
p2259
aV2
aV6
aVnr
p2260
aVnr
p2261
aa(lp2262
V24-06-2018
p2263
aV3
aVnr
p2264
aV4
aVnr
p2265
aVnr
p2266
aV9
aV12
p2267
aV13
p2268
aV26
p2269
aVnr
p2270
aVnr
p2271
aVnr
p2272
aVnr
p2273
aVnr
p2274
aVnr
p2275
aV13
p2276
aVnr
p2277
aVnr
p2278
aVnr
p2279
aVnr
p2280
aV7
aV14
p2281
aVnr
p2282
aV6
aVnr
p2283
aV8
aV4
aVnr
p2284
aVnr
p2285
aVnr
p2286
aVnr
p2287
aVnr
p2288
aVnr
p2289
aVnr
p2290
aV4
aV10
p2291
aVnr
p2292
aVnr
p2293
aa(lp2294
V24-06-2018
p2295
aV4
aVnr
p2296
aV2
aVnr
p2297
aVnr
p2298
aV6
aV8
aV17
p2299
aV7
aVnr
p2300
aVnr
p2301
aVnr
p2302
aVnr
p2303
aVnr
p2304
aVnr
p2305
aV7
aVnr
p2306
aVnr
p2307
aVnr
p2308
aVnr
p2309
aV6
aV7
aVnr
p2310
aV1
aVnr
p2311
aV7
aV4
aVnr
p2312
aVnr
p2313
aVnr
p2314
aVnr
p2315
aV3
aVnr
p2316
aVnr
p2317
aVnr
p2318
aV4
aVnr
p2319
aVnr
p2320
aa(lp2321
V24-06-2018
p2322
aV5
aVnr
p2323
aV7
aVnr
p2324
aVnr
p2325
aV6
aV12
p2326
aVnr
p2327
aV3
aVnr
p2328
aVnr
p2329
aVnr
p2330
aVnr
p2331
aVnr
p2332
aVnr
p2333
aV5
aVnr
p2334
aVnr
p2335
aVnr
p2336
aVnr
p2337
aV3
aV7
aVnr
p2338
aV2
aVnr
p2339
aV3
aV7
aVnr
p2340
aVnr
p2341
aVnr
p2342
aVnr
p2343
aV0
aVnr
p2344
aVnr
p2345
aV2
aV4
aVnr
p2346
aVnr
p2347
aa(lp2348
V24-06-2018
p2349
aV6
aVnr
p2350
aV7
aVnr
p2351
aVnr
p2352
aV7
aV8
aV7
aV5
aVnr
p2353
aVnr
p2354
aVnr
p2355
aVnr
p2356
aVnr
p2357
aV2
aV9
aVnr
p2358
aVnr
p2359
aVnr
p2360
aVnr
p2361
aV4
aV11
p2362
aVnr
p2363
aV6
aVnr
p2364
aV7
aVnr
p2365
aVnr
p2366
aVnr
p2367
aVnr
p2368
aVnr
p2369
aV0
aVnr
p2370
aVnr
p2371
aV5
aV18
p2372
aVnr
p2373
aVnr
p2374
aa(lp2375
V24-06-2018
p2376
aV7
aVnr
p2377
aV9
aVnr
p2378
aVnr
p2379
aV9
aV8
aV2
aV11
p2380
aVnr
p2381
aVnr
p2382
aVnr
p2383
aVnr
p2384
aVnr
p2385
aV3
aV6
aVnr
p2386
aVnr
p2387
aVnr
p2388
aVnr
p2389
aV4
aV11
p2390
aVnr
p2391
aV1
aVnr
p2392
aVnr
p2393
aV8
aVnr
p2394
aVnr
p2395
aVnr
p2396
aVnr
p2397
aVnr
p2398
aVnr
p2399
aVnr
p2400
aV3
aV1
aVnr
p2401
aVnr
p2402
aa(lp2403
V24-06-2018
p2404
aV8
aVnr
p2405
aV5
aVnr
p2406
aVnr
p2407
aV4
aV14
p2408
aV8
aV16
p2409
aVnr
p2410
aVnr
p2411
aVnr
p2412
aVnr
p2413
aVnr
p2414
aV3
aV9
aVnr
p2415
aVnr
p2416
aVnr
p2417
aVnr
p2418
aV4
aV10
p2419
aVnr
p2420
aV5
aVnr
p2421
aV19
p2422
aV10
p2423
aVnr
p2424
aVnr
p2425
aVnr
p2426
aVnr
p2427
aVnr
p2428
aVnr
p2429
aVnr
p2430
aVnr
p2431
aVnr
p2432
aVnr
p2433
aVnr
p2434
aa(lp2435
V24-06-2018
p2436
aV9
aVnr
p2437
aV8
aVnr
p2438
aVnr
p2439
aV10
p2440
aV18
p2441
aVnr
p2442
aV5
aVnr
p2443
aVnr
p2444
aVnr
p2445
aVnr
p2446
aVnr
p2447
aV7
aV14
p2448
aVnr
p2449
aVnr
p2450
aVnr
p2451
aVnr
p2452
aV12
p2453
aV7
aVnr
p2454
aV3
aVnr
p2455
aV9
aV9
aVnr
p2456
aVnr
p2457
aVnr
p2458
aVnr
p2459
aVnr
p2460
aVnr
p2461
aVnr
p2462
aVnr
p2463
aV2
aVnr
p2464
aVnr
p2465
aa(lp2466
V24-06-2018
p2467
aV10
p2468
aVnr
p2469
aV6
aVnr
p2470
aVnr
p2471
aV9
aV21
p2472
aV8
aV7
aVnr
p2473
aVnr
p2474
aVnr
p2475
aVnr
p2476
aVnr
p2477
aV10
p2478
aV11
p2479
aVnr
p2480
aVnr
p2481
aVnr
p2482
aVnr
p2483
aV23
p2484
aVnr
p2485
aVnr
p2486
aV13
p2487
aVnr
p2488
aV9
aV23
p2489
aVnr
p2490
aVnr
p2491
aVnr
p2492
aVnr
p2493
aVnr
p2494
aVnr
p2495
aVnr
p2496
aVnr
p2497
aV13
p2498
aVnr
p2499
aVnr
p2500
aa(lp2501
V24-06-2018
p2502
aV11
p2503
aVnr
p2504
aV10
p2505
aVnr
p2506
aVnr
p2507
aV12
p2508
aV20
p2509
aVnr
p2510
aV13
p2511
aVnr
p2512
aVnr
p2513
aVnr
p2514
aVnr
p2515
aVnr
p2516
aV11
p2517
aV27
p2518
aVnr
p2519
aVnr
p2520
aVnr
p2521
aVnr
p2522
aV25
p2523
aV22
p2524
aVnr
p2525
aV25
p2526
aVnr
p2527
aV12
p2528
aVnr
p2529
aVnr
p2530
aVnr
p2531
aVnr
p2532
aVnr
p2533
aVnr
p2534
aVnr
p2535
aVnr
p2536
aVnr
p2537
aV23
p2538
aVnr
p2539
aVnr
p2540
aa(lp2541
V24-06-2018
p2542
aV12
p2543
aVnr
p2544
aV6
aVnr
p2545
aVnr
p2546
aV10
p2547
aV15
p2548
aV6
aV10
p2549
aVnr
p2550
aVnr
p2551
aVnr
p2552
aVnr
p2553
aVnr
p2554
aV15
p2555
aV33
p2556
aVnr
p2557
aVnr
p2558
aVnr
p2559
aVnr
p2560
aV18
p2561
aV13
p2562
aVnr
p2563
aV28
p2564
aVnr
p2565
aV16
p2566
aV11
p2567
aVnr
p2568
aVnr
p2569
aVnr
p2570
aVnr
p2571
aVnr
p2572
aVnr
p2573
aVnr
p2574
aVnr
p2575
aVnr
p2576
aVnr
p2577
aVnr
p2578
aa(lp2579
V24-06-2018
p2580
aV13
p2581
aVnr
p2582
aV11
p2583
aVnr
p2584
aVnr
p2585
aV13
p2586
aV11
p2587
aV10
p2588
aV3
aVnr
p2589
aVnr
p2590
aVnr
p2591
aVnr
p2592
aVnr
p2593
aV20
p2594
aV20
p2595
aVnr
p2596
aVnr
p2597
aVnr
p2598
aVnr
p2599
aV10
p2600
aV28
p2601
aVnr
p2602
aV29
p2603
aVnr
p2604
aV19
p2605
aV13
p2606
aVnr
p2607
aVnr
p2608
aVnr
p2609
aVnr
p2610
aVnr
p2611
aVnr
p2612
aVnr
p2613
aVnr
p2614
aV19
p2615
aVnr
p2616
aVnr
p2617
aa(lp2618
V24-06-2018
p2619
aV14
p2620
aVnr
p2621
aV11
p2622
aVnr
p2623
aVnr
p2624
aV13
p2625
aV18
p2626
aV9
aV5
aVnr
p2627
aVnr
p2628
aVnr
p2629
aVnr
p2630
aVnr
p2631
aV24
p2632
aVnr
p2633
aVnr
p2634
aVnr
p2635
aVnr
p2636
aVnr
p2637
aV23
p2638
aV10
p2639
aVnr
p2640
aV18
p2641
aVnr
p2642
aV17
p2643
aV27
p2644
aVnr
p2645
aVnr
p2646
aVnr
p2647
aVnr
p2648
aVnr
p2649
aVnr
p2650
aVnr
p2651
aVnr
p2652
aV19
p2653
aVnr
p2654
aVnr
p2655
aa(lp2656
V24-06-2018
p2657
aV15
p2658
aVnr
p2659
aV6
aVnr
p2660
aVnr
p2661
aV14
p2662
aV21
p2663
aV12
p2664
aVnr
p2665
aVnr
p2666
aVnr
p2667
aVnr
p2668
aVnr
p2669
aVnr
p2670
aV19
p2671
aVnr
p2672
aVnr
p2673
aVnr
p2674
aVnr
p2675
aVnr
p2676
aV15
p2677
aV21
p2678
aVnr
p2679
aV9
aVnr
p2680
aV22
p2681
aV8
aVnr
p2682
aVnr
p2683
aVnr
p2684
aVnr
p2685
aVnr
p2686
aVnr
p2687
aVnr
p2688
aVnr
p2689
aV12
p2690
aVnr
p2691
aVnr
p2692
aa(lp2693
V24-06-2018
p2694
aV16
p2695
aVnr
p2696
aV7
aVnr
p2697
aVnr
p2698
aV22
p2699
aV26
p2700
aV8
aVnr
p2701
aVnr
p2702
aVnr
p2703
aVnr
p2704
aVnr
p2705
aVnr
p2706
aV25
p2707
aVnr
p2708
aVnr
p2709
aVnr
p2710
aVnr
p2711
aVnr
p2712
aV22
p2713
aV19
p2714
aVnr
p2715
aV27
p2716
aVnr
p2717
aV24
p2718
aV13
p2719
aVnr
p2720
aVnr
p2721
aVnr
p2722
aVnr
p2723
aVnr
p2724
aVnr
p2725
aVnr
p2726
aVnr
p2727
aV17
p2728
aVnr
p2729
aVnr
p2730
aa(lp2731
V24-06-2018
p2732
aV17
p2733
aVnr
p2734
aV14
p2735
aVnr
p2736
aVnr
p2737
aV10
p2738
aV16
p2739
aV7
aV6
aVnr
p2740
aVnr
p2741
aVnr
p2742
aVnr
p2743
aVnr
p2744
aV12
p2745
aV20
p2746
aVnr
p2747
aVnr
p2748
aVnr
p2749
aVnr
p2750
aV10
p2751
aV9
aVnr
p2752
aV17
p2753
aVnr
p2754
aV8
aV14
p2755
aVnr
p2756
aVnr
p2757
aVnr
p2758
aVnr
p2759
aVnr
p2760
aVnr
p2761
aVnr
p2762
aVnr
p2763
aV16
p2764
aVnr
p2765
aVnr
p2766
aa(lp2767
V24-06-2018
p2768
aV18
p2769
aVnr
p2770
aV15
p2771
aVnr
p2772
aVnr
p2773
aV5
aV11
p2774
aV12
p2775
aV14
p2776
aVnr
p2777
aVnr
p2778
aVnr
p2779
aVnr
p2780
aVnr
p2781
aV11
p2782
aV15
p2783
aVnr
p2784
aVnr
p2785
aVnr
p2786
aVnr
p2787
aV13
p2788
aV10
p2789
aVnr
p2790
aV21
p2791
aVnr
p2792
aV18
p2793
aVnr
p2794
aVnr
p2795
aVnr
p2796
aVnr
p2797
aVnr
p2798
aVnr
p2799
aVnr
p2800
aVnr
p2801
aVnr
p2802
aV11
p2803
aVnr
p2804
aVnr
p2805
aa(lp2806
V24-06-2018
p2807
aV19
p2808
aVnr
p2809
aV12
p2810
aVnr
p2811
aVnr
p2812
aV8
aV8
aV9
aV12
p2813
aVnr
p2814
aVnr
p2815
aVnr
p2816
aVnr
p2817
aVnr
p2818
aV13
p2819
aV6
aVnr
p2820
aVnr
p2821
aVnr
p2822
aVnr
p2823
aV12
p2824
aV12
p2825
aVnr
p2826
aV18
p2827
aVnr
p2828
aV17
p2829
aV10
p2830
aVnr
p2831
aVnr
p2832
aVnr
p2833
aVnr
p2834
aVnr
p2835
aVnr
p2836
aVnr
p2837
aVnr
p2838
aV9
aVnr
p2839
aVnr
p2840
aa(lp2841
V24-06-2018
p2842
aV20
p2843
aVnr
p2844
aV12
p2845
aVnr
p2846
aVnr
p2847
aV10
p2848
aV16
p2849
aV7
aV14
p2850
aVnr
p2851
aVnr
p2852
aVnr
p2853
aVnr
p2854
aVnr
p2855
aV12
p2856
aV11
p2857
aVnr
p2858
aVnr
p2859
aVnr
p2860
aVnr
p2861
aV14
p2862
aV10
p2863
aVnr
p2864
aV20
p2865
aVnr
p2866
aV12
p2867
aV25
p2868
aVnr
p2869
aVnr
p2870
aVnr
p2871
aVnr
p2872
aVnr
p2873
aVnr
p2874
aVnr
p2875
aVnr
p2876
aV8
aVnr
p2877
aVnr
p2878
aa(lp2879
V24-06-2018
p2880
aV21
p2881
aVnr
p2882
aV13
p2883
aVnr
p2884
aVnr
p2885
aV13
p2886
aV18
p2887
aV12
p2888
aV12
p2889
aVnr
p2890
aVnr
p2891
aVnr
p2892
aVnr
p2893
aVnr
p2894
aV11
p2895
aV13
p2896
aVnr
p2897
aVnr
p2898
aVnr
p2899
aVnr
p2900
aV16
p2901
aV7
aVnr
p2902
aV27
p2903
aVnr
p2904
aV8
aV11
p2905
aVnr
p2906
aVnr
p2907
aVnr
p2908
aVnr
p2909
aVnr
p2910
aVnr
p2911
aVnr
p2912
aVnr
p2913
aV12
p2914
aVnr
p2915
aVnr
p2916
aa(lp2917
V24-06-2018
p2918
aV22
p2919
aVnr
p2920
aV17
p2921
aVnr
p2922
aVnr
p2923
aV13
p2924
aV14
p2925
aV17
p2926
aV13
p2927
aVnr
p2928
aVnr
p2929
aVnr
p2930
aVnr
p2931
aVnr
p2932
aV14
p2933
aV14
p2934
aVnr
p2935
aVnr
p2936
aVnr
p2937
aVnr
p2938
aV12
p2939
aV12
p2940
aVnr
p2941
aV33
p2942
aVnr
p2943
aV14
p2944
aV18
p2945
aVnr
p2946
aVnr
p2947
aVnr
p2948
aVnr
p2949
aVnr
p2950
aVnr
p2951
aVnr
p2952
aVnr
p2953
aV18
p2954
aVnr
p2955
aVnr
p2956
aa(lp2957
V24-06-2018
p2958
aV23
p2959
aVnr
p2960
aV15
p2961
aVnr
p2962
aVnr
p2963
aV17
p2964
aV19
p2965
aV12
p2966
aV14
p2967
aVnr
p2968
aVnr
p2969
aVnr
p2970
aVnr
p2971
aVnr
p2972
aV15
p2973
aV12
p2974
aVnr
p2975
aVnr
p2976
aVnr
p2977
aVnr
p2978
aV17
p2979
aV20
p2980
aVnr
p2981
aVnr
p2982
aVnr
p2983
aV13
p2984
aV18
p2985
aVnr
p2986
aVnr
p2987
aVnr
p2988
aVnr
p2989
aVnr
p2990
aVnr
p2991
aVnr
p2992
aVnr
p2993
aV16
p2994
aVnr
p2995
aVnr
p2996
aa(lp2997
V24-06-2018
p2998
aV24
p2999
aVnr
p3000
aV21
p3001
aVnr
p3002
aVnr
p3003
aV16
p3004
aV19
p3005
aV19
p3006
aV6
aVnr
p3007
aVnr
p3008
aVnr
p3009
aVnr
p3010
aVnr
p3011
aV23
p3012
aV18
p3013
aVnr
p3014
aVnr
p3015
aVnr
p3016
aVnr
p3017
aV14
p3018
aV14
p3019
aVnr
p3020
aVnr
p3021
aVnr
p3022
aV13
p3023
aV16
p3024
aVnr
p3025
aVnr
p3026
aVnr
p3027
aVnr
p3028
aVnr
p3029
aVnr
p3030
aVnr
p3031
aVnr
p3032
aV17
p3033
aVnr
p3034
aVnr
p3035
aa(lp3036
V25-06-2018
p3037
aV1
aVnr
p3038
aV21
p3039
aVnr
p3040
aVnr
p3041
aV21
p3042
aV20
p3043
aVnr
p3044
aV9
aVnr
p3045
aVnr
p3046
aVnr
p3047
aVnr
p3048
aVnr
p3049
aV25
p3050
aV20
p3051
aVnr
p3052
aVnr
p3053
aVnr
p3054
aVnr
p3055
aV22
p3056
aV14
p3057
aVnr
p3058
aVnr
p3059
aVnr
p3060
aV11
p3061
aV10
p3062
aVnr
p3063
aVnr
p3064
aVnr
p3065
aVnr
p3066
aVnr
p3067
aVnr
p3068
aVnr
p3069
aVnr
p3070
aV18
p3071
aVnr
p3072
aVnr
p3073
aasS'pm10'
p3074
(lp3075
(lp3076
V24-06-2018
p3077
aV2
aV19
p3078
aV7
aVnr
p3079
aV19
p3080
aV16
p3081
aV19
p3082
aVnr
p3083
aVnr
p3084
aVnr
p3085
aVnr
p3086
aVnr
p3087
aV3
aV17
p3088
aVnr
p3089
aVnr
p3090
aV19
p3091
aVnr
p3092
aV16
p3093
aVnr
p3094
aVnr
p3095
aVnr
p3096
aV28
p3097
aV12
p3098
aVnr
p3099
aVnr
p3100
aVnr
p3101
aVnr
p3102
aV15
p3103
aV10
p3104
aVnr
p3105
aVnr
p3106
aVnr
p3107
aVnr
p3108
aVnr
p3109
aVnr
p3110
aVnr
p3111
aVnr
p3112
aVnr
p3113
aV10
p3114
aV30
p3115
aVnr
p3116
aa(lp3117
V24-06-2018
p3118
aV3
aV8
aV5
aVnr
p3119
aV13
p3120
aV13
p3121
aV18
p3122
aVnr
p3123
aVnr
p3124
aVnr
p3125
aVnr
p3126
aVnr
p3127
aV12
p3128
aV11
p3129
aV18
p3130
aVnr
p3131
aV18
p3132
aVnr
p3133
aV15
p3134
aVnr
p3135
aVnr
p3136
aVnr
p3137
aV14
p3138
aV19
p3139
aVnr
p3140
aVnr
p3141
aVnr
p3142
aVnr
p3143
aV13
p3144
aV8
aVnr
p3145
aVnr
p3146
aVnr
p3147
aVnr
p3148
aVnr
p3149
aV2
aVnr
p3150
aVnr
p3151
aVnr
p3152
aV13
p3153
aV37
p3154
aVnr
p3155
aa(lp3156
V24-06-2018
p3157
aV4
aV11
p3158
aV4
aVnr
p3159
aV17
p3160
aV11
p3161
aV18
p3162
aVnr
p3163
aVnr
p3164
aVnr
p3165
aVnr
p3166
aVnr
p3167
aV12
p3168
aV12
p3169
aV20
p3170
aVnr
p3171
aV10
p3172
aVnr
p3173
aV16
p3174
aVnr
p3175
aVnr
p3176
aVnr
p3177
aV10
p3178
aV11
p3179
aVnr
p3180
aVnr
p3181
aVnr
p3182
aVnr
p3183
aV11
p3184
aV7
aVnr
p3185
aVnr
p3186
aVnr
p3187
aVnr
p3188
aVnr
p3189
aV2
aVnr
p3190
aVnr
p3191
aVnr
p3192
aV7
aV32
p3193
aVnr
p3194
aa(lp3195
V24-06-2018
p3196
aV5
aV7
aV9
aVnr
p3197
aV15
p3198
aV10
p3199
aV19
p3200
aVnr
p3201
aVnr
p3202
aVnr
p3203
aVnr
p3204
aVnr
p3205
aV10
p3206
aV10
p3207
aVnr
p3208
aVnr
p3209
aV7
aVnr
p3210
aV9
aVnr
p3211
aVnr
p3212
aVnr
p3213
aV8
aV13
p3214
aVnr
p3215
aVnr
p3216
aVnr
p3217
aVnr
p3218
aV5
aV11
p3219
aVnr
p3220
aVnr
p3221
aVnr
p3222
aVnr
p3223
aVnr
p3224
aV2
aVnr
p3225
aVnr
p3226
aVnr
p3227
aV6
aV25
p3228
aVnr
p3229
aa(lp3230
V24-06-2018
p3231
aV6
aV15
p3232
aV10
p3233
aVnr
p3234
aV17
p3235
aV12
p3236
aV11
p3237
aVnr
p3238
aVnr
p3239
aVnr
p3240
aVnr
p3241
aVnr
p3242
aV3
aV16
p3243
aV3
aVnr
p3244
aV12
p3245
aVnr
p3246
aV10
p3247
aVnr
p3248
aVnr
p3249
aVnr
p3250
aV11
p3251
aV16
p3252
aVnr
p3253
aVnr
p3254
aVnr
p3255
aVnr
p3256
aV11
p3257
aV3
aVnr
p3258
aVnr
p3259
aVnr
p3260
aVnr
p3261
aVnr
p3262
aVnr
p3263
aVnr
p3264
aVnr
p3265
aVnr
p3266
aV19
p3267
aV4
aVnr
p3268
aa(lp3269
V24-06-2018
p3270
aV7
aV17
p3271
aV12
p3272
aVnr
p3273
aV13
p3274
aV12
p3275
aV20
p3276
aVnr
p3277
aVnr
p3278
aVnr
p3279
aVnr
p3280
aVnr
p3281
aVnr
p3282
aV11
p3283
aV6
aVnr
p3284
aV9
aVnr
p3285
aV13
p3286
aVnr
p3287
aVnr
p3288
aVnr
p3289
aV11
p3290
aV19
p3291
aVnr
p3292
aVnr
p3293
aVnr
p3294
aVnr
p3295
aV6
aV14
p3296
aVnr
p3297
aVnr
p3298
aV6
aVnr
p3299
aVnr
p3300
aVnr
p3301
aVnr
p3302
aVnr
p3303
aVnr
p3304
aV6
aV29
p3305
aVnr
p3306
aa(lp3307
V24-06-2018
p3308
aV8
aV26
p3309
aV7
aVnr
p3310
aV27
p3311
aV8
aV37
p3312
aVnr
p3313
aVnr
p3314
aVnr
p3315
aVnr
p3316
aVnr
p3317
aV42
p3318
aV42
p3319
aV54
p3320
aVnr
p3321
aV15
p3322
aVnr
p3323
aV8
aVnr
p3324
aVnr
p3325
aVnr
p3326
aV14
p3327
aV19
p3328
aVnr
p3329
aVnr
p3330
aVnr
p3331
aVnr
p3332
aV36
p3333
aV20
p3334
aVnr
p3335
aVnr
p3336
aV12
p3337
aVnr
p3338
aVnr
p3339
aVnr
p3340
aVnr
p3341
aVnr
p3342
aVnr
p3343
aVnr
p3344
aV37
p3345
aVnr
p3346
aa(lp3347
V24-06-2018
p3348
aV9
aV21
p3349
aV11
p3350
aVnr
p3351
aV26
p3352
aV15
p3353
aV38
p3354
aVnr
p3355
aVnr
p3356
aVnr
p3357
aVnr
p3358
aVnr
p3359
aV15
p3360
aV57
p3361
aVnr
p3362
aVnr
p3363
aV21
p3364
aVnr
p3365
aV1
aVnr
p3366
aVnr
p3367
aVnr
p3368
aV27
p3369
aV13
p3370
aVnr
p3371
aVnr
p3372
aVnr
p3373
aVnr
p3374
aV23
p3375
aV19
p3376
aVnr
p3377
aVnr
p3378
aV17
p3379
aVnr
p3380
aVnr
p3381
aVnr
p3382
aVnr
p3383
aVnr
p3384
aVnr
p3385
aV7
aV28
p3386
aVnr
p3387
aa(lp3388
V24-06-2018
p3389
aV10
p3390
aV8
aV9
aVnr
p3391
aV21
p3392
aV14
p3393
aV41
p3394
aVnr
p3395
aVnr
p3396
aVnr
p3397
aVnr
p3398
aVnr
p3399
aV13
p3400
aV26
p3401
aV11
p3402
aVnr
p3403
aV17
p3404
aVnr
p3405
aV8
aVnr
p3406
aVnr
p3407
aVnr
p3408
aV40
p3409
aVnr
p3410
aVnr
p3411
aVnr
p3412
aVnr
p3413
aVnr
p3414
aV15
p3415
aV30
p3416
aVnr
p3417
aVnr
p3418
aV15
p3419
aVnr
p3420
aVnr
p3421
aVnr
p3422
aVnr
p3423
aVnr
p3424
aVnr
p3425
aV18
p3426
aV41
p3427
aVnr
p3428
aa(lp3429
V24-06-2018
p3430
aV11
p3431
aV9
aV12
p3432
aVnr
p3433
aV18
p3434
aV16
p3435
aV35
p3436
aVnr
p3437
aVnr
p3438
aVnr
p3439
aVnr
p3440
aVnr
p3441
aV22
p3442
aV35
p3443
aV5
aVnr
p3444
aV34
p3445
aVnr
p3446
aV20
p3447
aVnr
p3448
aVnr
p3449
aVnr
p3450
aV45
p3451
aV27
p3452
aVnr
p3453
aVnr
p3454
aVnr
p3455
aVnr
p3456
aV21
p3457
aVnr
p3458
aVnr
p3459
aVnr
p3460
aV2
aVnr
p3461
aVnr
p3462
aVnr
p3463
aVnr
p3464
aVnr
p3465
aVnr
p3466
aV30
p3467
aV32
p3468
aVnr
p3469
aa(lp3470
V24-06-2018
p3471
aV12
p3472
aV8
aV9
aVnr
p3473
aV20
p3474
aV15
p3475
aV23
p3476
aVnr
p3477
aVnr
p3478
aVnr
p3479
aVnr
p3480
aVnr
p3481
aV22
p3482
aV34
p3483
aV5
aVnr
p3484
aV38
p3485
aVnr
p3486
aV25
p3487
aVnr
p3488
aVnr
p3489
aVnr
p3490
aV31
p3491
aV19
p3492
aVnr
p3493
aVnr
p3494
aVnr
p3495
aVnr
p3496
aV26
p3497
aV16
p3498
aVnr
p3499
aVnr
p3500
aVnr
p3501
aVnr
p3502
aVnr
p3503
aVnr
p3504
aVnr
p3505
aVnr
p3506
aVnr
p3507
aVnr
p3508
aV11
p3509
aVnr
p3510
aa(lp3511
V24-06-2018
p3512
aV13
p3513
aV14
p3514
aV14
p3515
aVnr
p3516
aV17
p3517
aV18
p3518
aV17
p3519
aVnr
p3520
aVnr
p3521
aVnr
p3522
aVnr
p3523
aVnr
p3524
aV15
p3525
aV38
p3526
aV9
aVnr
p3527
aV22
p3528
aVnr
p3529
aV16
p3530
aVnr
p3531
aVnr
p3532
aVnr
p3533
aV22
p3534
aV36
p3535
aVnr
p3536
aVnr
p3537
aVnr
p3538
aVnr
p3539
aV30
p3540
aV14
p3541
aVnr
p3542
aVnr
p3543
aV12
p3544
aVnr
p3545
aVnr
p3546
aVnr
p3547
aVnr
p3548
aVnr
p3549
aVnr
p3550
aV26
p3551
aV33
p3552
aVnr
p3553
aa(lp3554
V24-06-2018
p3555
aV14
p3556
aV9
aV14
p3557
aVnr
p3558
aV29
p3559
aV18
p3560
aV30
p3561
aVnr
p3562
aVnr
p3563
aVnr
p3564
aVnr
p3565
aVnr
p3566
aV26
p3567
aV17
p3568
aV18
p3569
aVnr
p3570
aVnr
p3571
aVnr
p3572
aV12
p3573
aVnr
p3574
aVnr
p3575
aVnr
p3576
aV32
p3577
aV18
p3578
aVnr
p3579
aVnr
p3580
aVnr
p3581
aVnr
p3582
aV28
p3583
aV30
p3584
aVnr
p3585
aVnr
p3586
aVnr
p3587
aVnr
p3588
aVnr
p3589
aVnr
p3590
aVnr
p3591
aVnr
p3592
aVnr
p3593
aV26
p3594
aV22
p3595
aVnr
p3596
aa(lp3597
V24-06-2018
p3598
aV15
p3599
aV11
p3600
aV14
p3601
aVnr
p3602
aV4
aV22
p3603
aV36
p3604
aVnr
p3605
aVnr
p3606
aVnr
p3607
aVnr
p3608
aVnr
p3609
aV31
p3610
aVnr
p3611
aV24
p3612
aVnr
p3613
aVnr
p3614
aVnr
p3615
aVnr
p3616
aVnr
p3617
aVnr
p3618
aVnr
p3619
aV29
p3620
aV26
p3621
aVnr
p3622
aVnr
p3623
aVnr
p3624
aVnr
p3625
aV30
p3626
aV12
p3627
aVnr
p3628
aVnr
p3629
aVnr
p3630
aVnr
p3631
aVnr
p3632
aVnr
p3633
aVnr
p3634
aVnr
p3635
aVnr
p3636
aV22
p3637
aV7
aVnr
p3638
aa(lp3639
V24-06-2018
p3640
aV16
p3641
aV12
p3642
aV10
p3643
aVnr
p3644
aVnr
p3645
aV30
p3646
aV35
p3647
aVnr
p3648
aVnr
p3649
aVnr
p3650
aVnr
p3651
aVnr
p3652
aV4
aVnr
p3653
aVnr
p3654
aVnr
p3655
aVnr
p3656
aVnr
p3657
aVnr
p3658
aVnr
p3659
aVnr
p3660
aVnr
p3661
aV31
p3662
aV26
p3663
aVnr
p3664
aVnr
p3665
aVnr
p3666
aVnr
p3667
aV40
p3668
aV17
p3669
aVnr
p3670
aVnr
p3671
aV33
p3672
aVnr
p3673
aVnr
p3674
aVnr
p3675
aVnr
p3676
aVnr
p3677
aVnr
p3678
aV21
p3679
aV30
p3680
aVnr
p3681
aa(lp3682
V24-06-2018
p3683
aV17
p3684
aV69
p3685
aV18
p3686
aVnr
p3687
aV23
p3688
aV12
p3689
aV19
p3690
aVnr
p3691
aVnr
p3692
aVnr
p3693
aVnr
p3694
aVnr
p3695
aV8
aV22
p3696
aV16
p3697
aVnr
p3698
aV21
p3699
aVnr
p3700
aV29
p3701
aVnr
p3702
aVnr
p3703
aVnr
p3704
aV16
p3705
aV14
p3706
aVnr
p3707
aVnr
p3708
aVnr
p3709
aVnr
p3710
aV15
p3711
aV20
p3712
aVnr
p3713
aVnr
p3714
aV38
p3715
aVnr
p3716
aVnr
p3717
aVnr
p3718
aVnr
p3719
aVnr
p3720
aVnr
p3721
aV19
p3722
aV10
p3723
aVnr
p3724
aa(lp3725
V24-06-2018
p3726
aV18
p3727
aV15
p3728
aV19
p3729
aVnr
p3730
aVnr
p3731
aV8
aV18
p3732
aVnr
p3733
aVnr
p3734
aVnr
p3735
aVnr
p3736
aVnr
p3737
aVnr
p3738
aV18
p3739
aV4
aVnr
p3740
aV19
p3741
aVnr
p3742
aV11
p3743
aVnr
p3744
aVnr
p3745
aVnr
p3746
aV27
p3747
aV14
p3748
aVnr
p3749
aVnr
p3750
aVnr
p3751
aVnr
p3752
aV23
p3753
aVnr
p3754
aVnr
p3755
aVnr
p3756
aV17
p3757
aVnr
p3758
aVnr
p3759
aVnr
p3760
aVnr
p3761
aVnr
p3762
aVnr
p3763
aV15
p3764
aV17
p3765
aVnr
p3766
aa(lp3767
V24-06-2018
p3768
aV19
p3769
aV6
aV16
p3770
aVnr
p3771
aVnr
p3772
aV13
p3773
aV16
p3774
aVnr
p3775
aVnr
p3776
aVnr
p3777
aVnr
p3778
aVnr
p3779
aV15
p3780
aV15
p3781
aV25
p3782
aVnr
p3783
aV10
p3784
aVnr
p3785
aV16
p3786
aVnr
p3787
aVnr
p3788
aVnr
p3789
aV22
p3790
aV17
p3791
aVnr
p3792
aVnr
p3793
aVnr
p3794
aVnr
p3795
aV24
p3796
aV18
p3797
aVnr
p3798
aVnr
p3799
aV19
p3800
aVnr
p3801
aVnr
p3802
aVnr
p3803
aVnr
p3804
aVnr
p3805
aVnr
p3806
aV14
p3807
aV31
p3808
aVnr
p3809
aa(lp3810
V24-06-2018
p3811
aV20
p3812
aV17
p3813
aV15
p3814
aVnr
p3815
aV32
p3816
aV16
p3817
aV29
p3818
aVnr
p3819
aVnr
p3820
aVnr
p3821
aVnr
p3822
aVnr
p3823
aV16
p3824
aV14
p3825
aV25
p3826
aVnr
p3827
aV15
p3828
aVnr
p3829
aV24
p3830
aVnr
p3831
aVnr
p3832
aVnr
p3833
aV24
p3834
aV15
p3835
aVnr
p3836
aVnr
p3837
aVnr
p3838
aVnr
p3839
aV23
p3840
aV34
p3841
aVnr
p3842
aVnr
p3843
aVnr
p3844
aVnr
p3845
aVnr
p3846
aVnr
p3847
aVnr
p3848
aVnr
p3849
aVnr
p3850
aV13
p3851
aV27
p3852
aVnr
p3853
aa(lp3854
V24-06-2018
p3855
aV21
p3856
aV20
p3857
aV17
p3858
aVnr
p3859
aV15
p3860
aV22
p3861
aV33
p3862
aVnr
p3863
aVnr
p3864
aVnr
p3865
aVnr
p3866
aVnr
p3867
aV13
p3868
aV27
p3869
aV20
p3870
aVnr
p3871
aV23
p3872
aVnr
p3873
aV29
p3874
aVnr
p3875
aVnr
p3876
aVnr
p3877
aV34
p3878
aV15
p3879
aVnr
p3880
aVnr
p3881
aVnr
p3882
aVnr
p3883
aV18
p3884
aV22
p3885
aVnr
p3886
aVnr
p3887
aVnr
p3888
aVnr
p3889
aVnr
p3890
aVnr
p3891
aVnr
p3892
aVnr
p3893
aVnr
p3894
aV22
p3895
aV14
p3896
aVnr
p3897
aa(lp3898
V24-06-2018
p3899
aV22
p3900
aV23
p3901
aV27
p3902
aVnr
p3903
aV22
p3904
aV22
p3905
aV28
p3906
aVnr
p3907
aVnr
p3908
aVnr
p3909
aVnr
p3910
aVnr
p3911
aV11
p3912
aV28
p3913
aV34
p3914
aVnr
p3915
aV24
p3916
aVnr
p3917
aV34
p3918
aVnr
p3919
aVnr
p3920
aVnr
p3921
aV26
p3922
aV22
p3923
aVnr
p3924
aVnr
p3925
aVnr
p3926
aVnr
p3927
aV23
p3928
aV35
p3929
aVnr
p3930
aVnr
p3931
aVnr
p3932
aVnr
p3933
aVnr
p3934
aVnr
p3935
aVnr
p3936
aVnr
p3937
aVnr
p3938
aV28
p3939
aV29
p3940
aVnr
p3941
aa(lp3942
V24-06-2018
p3943
aV23
p3944
aV31
p3945
aV24
p3946
aVnr
p3947
aV19
p3948
aV26
p3949
aV36
p3950
aVnr
p3951
aVnr
p3952
aVnr
p3953
aVnr
p3954
aVnr
p3955
aV32
p3956
aV38
p3957
aV27
p3958
aVnr
p3959
aV20
p3960
aVnr
p3961
aV27
p3962
aVnr
p3963
aVnr
p3964
aVnr
p3965
aV26
p3966
aV32
p3967
aVnr
p3968
aVnr
p3969
aVnr
p3970
aVnr
p3971
aV24
p3972
aV32
p3973
aVnr
p3974
aVnr
p3975
aVnr
p3976
aVnr
p3977
aVnr
p3978
aVnr
p3979
aVnr
p3980
aVnr
p3981
aVnr
p3982
aV29
p3983
aV51
p3984
aVnr
p3985
aa(lp3986
V24-06-2018
p3987
aV24
p3988
aV32
p3989
aV31
p3990
aVnr
p3991
aV36
p3992
aV26
p3993
aV36
p3994
aVnr
p3995
aVnr
p3996
aVnr
p3997
aVnr
p3998
aVnr
p3999
aV37
p4000
aV39
p4001
aV30
p4002
aVnr
p4003
aV28
p4004
aVnr
p4005
aV37
p4006
aVnr
p4007
aVnr
p4008
aVnr
p4009
aV27
p4010
aV26
p4011
aVnr
p4012
aVnr
p4013
aVnr
p4014
aVnr
p4015
aV28
p4016
aV24
p4017
aVnr
p4018
aVnr
p4019
aVnr
p4020
aVnr
p4021
aVnr
p4022
aVnr
p4023
aVnr
p4024
aVnr
p4025
aVnr
p4026
aV27
p4027
aV34
p4028
aVnr
p4029
aa(lp4030
V25-06-2018
p4031
aV1
aVnr
p4032
aV27
p4033
aVnr
p4034
aV16
p4035
aV33
p4036
aV37
p4037
aVnr
p4038
aVnr
p4039
aVnr
p4040
aVnr
p4041
aVnr
p4042
aVnr
p4043
aV21
p4044
aV28
p4045
aVnr
p4046
aV32
p4047
aVnr
p4048
aVnr
p4049
aVnr
p4050
aVnr
p4051
aVnr
p4052
aV41
p4053
aV22
p4054
aVnr
p4055
aVnr
p4056
aVnr
p4057
aVnr
p4058
aV22
p4059
aV16
p4060
aVnr
p4061
aVnr
p4062
aVnr
p4063
aVnr
p4064
aVnr
p4065
aVnr
p4066
aVnr
p4067
aVnr
p4068
aVnr
p4069
aV30
p4070
aV21
p4071
aVnr
p4072
aasS'no'
p4073
(lp4074
(lp4075
V24-06-2018
p4076
aV2
aV0
aV0
aVnr
p4077
aV1
aVnr
p4078
aVnr
p4079
aV0
aV1
aVnr
p4080
aVnr
p4081
aVnr
p4082
aVnr
p4083
aVnr
p4084
aVnr
p4085
aV7
aVnr
p4086
aV4
aVnr
p4087
aV2
aVnr
p4088
aV1
aVnr
p4089
aV2
aV1
aVnr
p4090
aV0
aVnr
p4091
aVnr
p4092
aV1
aV0
aVnr
p4093
aVnr
p4094
aVnr
p4095
aVnr
p4096
aVnr
p4097
aVnr
p4098
aV5
aVnr
p4099
aVnr
p4100
aV1
aVnr
p4101
aV3
aV1
aa(lp4102
V24-06-2018
p4103
aV3
aV1
aV1
aVnr
p4104
aV2
aVnr
p4105
aVnr
p4106
aV2
aV1
aVnr
p4107
aVnr
p4108
aVnr
p4109
aVnr
p4110
aVnr
p4111
aVnr
p4112
aV6
aVnr
p4113
aV0
aVnr
p4114
aV1
aVnr
p4115
aV1
aVnr
p4116
aV1
aV1
aVnr
p4117
aV0
aV1
aVnr
p4118
aV1
aV0
aVnr
p4119
aVnr
p4120
aVnr
p4121
aVnr
p4122
aVnr
p4123
aVnr
p4124
aV4
aVnr
p4125
aVnr
p4126
aV1
aVnr
p4127
aV4
aV1
aa(lp4128
V24-06-2018
p4129
aV4
aV0
aV1
aVnr
p4130
aV4
aVnr
p4131
aVnr
p4132
aV1
aVnr
p4133
aVnr
p4134
aVnr
p4135
aVnr
p4136
aVnr
p4137
aVnr
p4138
aVnr
p4139
aV6
aVnr
p4140
aV0
aVnr
p4141
aV1
aVnr
p4142
aV0
aVnr
p4143
aV2
aV2
aVnr
p4144
aV0
aVnr
p4145
aVnr
p4146
aV1
aV1
aVnr
p4147
aVnr
p4148
aVnr
p4149
aVnr
p4150
aVnr
p4151
aVnr
p4152
aV3
aV1
aVnr
p4153
aV1
aVnr
p4154
aV2
aV1
aa(lp4155
V24-06-2018
p4156
aV5
aV2
aV0
aVnr
p4157
aV8
aVnr
p4158
aVnr
p4159
aV1
aVnr
p4160
aVnr
p4161
aVnr
p4162
aVnr
p4163
aVnr
p4164
aV5
aVnr
p4165
aV8
aVnr
p4166
aV0
aVnr
p4167
aV5
aVnr
p4168
aV1
aVnr
p4169
aV3
aV9
aVnr
p4170
aV0
aVnr
p4171
aVnr
p4172
aV1
aV3
aVnr
p4173
aVnr
p4174
aVnr
p4175
aVnr
p4176
aVnr
p4177
aVnr
p4178
aV2
aV11
p4179
aVnr
p4180
aV1
aV0
aV1
aV1
aa(lp4181
V24-06-2018
p4182
aV6
aV3
aV0
aVnr
p4183
aV11
p4184
aVnr
p4185
aVnr
p4186
aV19
p4187
aVnr
p4188
aVnr
p4189
aV2
aVnr
p4190
aVnr
p4191
aV3
aVnr
p4192
aV18
p4193
aVnr
p4194
aV1
aVnr
p4195
aV13
p4196
aVnr
p4197
aV14
p4198
aVnr
p4199
aV8
aV25
p4200
aVnr
p4201
aV1
aV0
aVnr
p4202
aV0
aV15
p4203
aVnr
p4204
aVnr
p4205
aVnr
p4206
aVnr
p4207
aVnr
p4208
aVnr
p4209
aV6
aV18
p4210
aVnr
p4211
aV1
aV1
aV12
p4212
aV12
p4213
aa(lp4214
V24-06-2018
p4215
aV7
aV10
p4216
aV1
aVnr
p4217
aV11
p4218
aVnr
p4219
aVnr
p4220
aV34
p4221
aV5
aVnr
p4222
aV18
p4223
aVnr
p4224
aVnr
p4225
aV27
p4226
aVnr
p4227
aV50
p4228
aVnr
p4229
aV26
p4230
aVnr
p4231
aV12
p4232
aVnr
p4233
aV28
p4234
aVnr
p4235
aV31
p4236
aV44
p4237
aVnr
p4238
aV6
aV8
aVnr
p4239
aV22
p4240
aV36
p4241
aVnr
p4242
aVnr
p4243
aVnr
p4244
aVnr
p4245
aVnr
p4246
aVnr
p4247
aV43
p4248
aV9
aVnr
p4249
aV2
aV2
aV19
p4250
aV17
p4251
aa(lp4252
V24-06-2018
p4253
aV8
aV8
aV6
aVnr
p4254
aV14
p4255
aVnr
p4256
aVnr
p4257
aV24
p4258
aV10
p4259
aVnr
p4260
aV14
p4261
aVnr
p4262
aVnr
p4263
aV11
p4264
aVnr
p4265
aV19
p4266
aVnr
p4267
aV25
p4268
aVnr
p4269
aV9
aVnr
p4270
aV36
p4271
aVnr
p4272
aV37
p4273
aV9
aVnr
p4274
aV19
p4275
aV3
aVnr
p4276
aV16
p4277
aV30
p4278
aVnr
p4279
aVnr
p4280
aVnr
p4281
aVnr
p4282
aVnr
p4283
aVnr
p4284
aV39
p4285
aV18
p4286
aVnr
p4287
aV6
aV6
aV8
aV9
aa(lp4288
V24-06-2018
p4289
aV9
aV6
aV4
aVnr
p4290
aV10
p4291
aVnr
p4292
aVnr
p4293
aV21
p4294
aV5
aVnr
p4295
aV1
aVnr
p4296
aVnr
p4297
aV4
aVnr
p4298
aV10
p4299
aVnr
p4300
aV12
p4301
aVnr
p4302
aV13
p4303
aVnr
p4304
aV23
p4305
aVnr
p4306
aV26
p4307
aV5
aVnr
p4308
aV20
p4309
aV3
aVnr
p4310
aV4
aV9
aVnr
p4311
aVnr
p4312
aVnr
p4313
aVnr
p4314
aVnr
p4315
aVnr
p4316
aV23
p4317
aV16
p4318
aVnr
p4319
aV8
aV8
aV12
p4320
aV12
p4321
aa(lp4322
V24-06-2018
p4323
aV10
p4324
aV3
aV4
aVnr
p4325
aV6
aVnr
p4326
aVnr
p4327
aV11
p4328
aV5
aVnr
p4329
aV2
aVnr
p4330
aVnr
p4331
aV5
aVnr
p4332
aV13
p4333
aVnr
p4334
aV9
aVnr
p4335
aV12
p4336
aVnr
p4337
aV8
aVnr
p4338
aV16
p4339
aV3
aVnr
p4340
aV14
p4341
aV3
aVnr
p4342
aV3
aV4
aVnr
p4343
aVnr
p4344
aVnr
p4345
aVnr
p4346
aVnr
p4347
aVnr
p4348
aV14
p4349
aV9
aVnr
p4350
aV7
aV9
aV10
p4351
aV10
p4352
aa(lp4353
V24-06-2018
p4354
aV11
p4355
aV2
aV4
aVnr
p4356
aV5
aVnr
p4357
aVnr
p4358
aV5
aV4
aVnr
p4359
aV2
aVnr
p4360
aVnr
p4361
aV4
aVnr
p4362
aV9
aVnr
p4363
aV7
aVnr
p4364
aV8
aVnr
p4365
aV6
aVnr
p4366
aV10
p4367
aV5
aVnr
p4368
aV12
p4369
aV3
aVnr
p4370
aV3
aV3
aVnr
p4371
aVnr
p4372
aVnr
p4373
aVnr
p4374
aVnr
p4375
aVnr
p4376
aV10
p4377
aV5
aVnr
p4378
aV4
aV8
aV3
aV7
aa(lp4379
V24-06-2018
p4380
aV12
p4381
aV2
aV2
aVnr
p4382
aV2
aVnr
p4383
aVnr
p4384
aV3
aV3
aVnr
p4385
aV1
aVnr
p4386
aVnr
p4387
aV2
aVnr
p4388
aV7
aVnr
p4389
aV3
aVnr
p4390
aV5
aVnr
p4391
aV3
aVnr
p4392
aV7
aV3
aVnr
p4393
aV6
aV2
aVnr
p4394
aV3
aV2
aVnr
p4395
aVnr
p4396
aVnr
p4397
aVnr
p4398
aVnr
p4399
aVnr
p4400
aV8
aV2
aVnr
p4401
aV4
aV6
aV1
aV7
aa(lp4402
V24-06-2018
p4403
aV13
p4404
aV1
aV1
aVnr
p4405
aV2
aVnr
p4406
aVnr
p4407
aV3
aV1
aVnr
p4408
aV0
aVnr
p4409
aVnr
p4410
aV1
aVnr
p4411
aV5
aVnr
p4412
aV3
aVnr
p4413
aV4
aVnr
p4414
aV1
aVnr
p4415
aV4
aV2
aVnr
p4416
aV2
aV1
aVnr
p4417
aV2
aV1
aVnr
p4418
aVnr
p4419
aVnr
p4420
aVnr
p4421
aVnr
p4422
aVnr
p4423
aV4
aV2
aVnr
p4424
aV3
aV3
aV1
aV5
aa(lp4425
V24-06-2018
p4426
aV14
p4427
aV1
aV2
aVnr
p4428
aV1
aVnr
p4429
aVnr
p4430
aV2
aV1
aVnr
p4431
aV0
aVnr
p4432
aVnr
p4433
aV3
aVnr
p4434
aV1
aVnr
p4435
aVnr
p4436
aVnr
p4437
aV2
aVnr
p4438
aV1
aVnr
p4439
aV2
aV1
aVnr
p4440
aV1
aV1
aVnr
p4441
aV1
aV2
aVnr
p4442
aVnr
p4443
aVnr
p4444
aVnr
p4445
aVnr
p4446
aVnr
p4447
aV3
aV1
aVnr
p4448
aV2
aV0
aV0
aV3
aa(lp4449
V24-06-2018
p4450
aV15
p4451
aV1
aV2
aVnr
p4452
aV1
aVnr
p4453
aVnr
p4454
aV1
aV1
aVnr
p4455
aVnr
p4456
aVnr
p4457
aVnr
p4458
aV2
aVnr
p4459
aV3
aVnr
p4460
aVnr
p4461
aVnr
p4462
aVnr
p4463
aVnr
p4464
aV1
aVnr
p4465
aV3
aV2
aVnr
p4466
aV2
aV1
aVnr
p4467
aV1
aV2
aVnr
p4468
aVnr
p4469
aVnr
p4470
aVnr
p4471
aVnr
p4472
aVnr
p4473
aV3
aV4
aVnr
p4474
aV2
aV1
aV1
aV5
aa(lp4475
V24-06-2018
p4476
aV16
p4477
aV2
aV2
aVnr
p4478
aV2
aVnr
p4479
aVnr
p4480
aV4
aV1
aVnr
p4481
aV0
aVnr
p4482
aVnr
p4483
aV4
aVnr
p4484
aV4
aVnr
p4485
aVnr
p4486
aVnr
p4487
aV3
aVnr
p4488
aV2
aVnr
p4489
aV5
aV2
aVnr
p4490
aV3
aV1
aVnr
p4491
aV1
aV4
aVnr
p4492
aVnr
p4493
aVnr
p4494
aVnr
p4495
aVnr
p4496
aVnr
p4497
aV7
aV1
aVnr
p4498
aV2
aV2
aV2
aV8
aa(lp4499
V24-06-2018
p4500
aV17
p4501
aV2
aV2
aVnr
p4502
aV2
aVnr
p4503
aVnr
p4504
aV2
aV2
aVnr
p4505
aV1
aVnr
p4506
aVnr
p4507
aV2
aVnr
p4508
aV3
aVnr
p4509
aVnr
p4510
aVnr
p4511
aV3
aVnr
p4512
aV3
aVnr
p4513
aV12
p4514
aV3
aVnr
p4515
aV3
aV1
aVnr
p4516
aV3
aV5
aVnr
p4517
aVnr
p4518
aVnr
p4519
aVnr
p4520
aVnr
p4521
aVnr
p4522
aV2
aV3
aVnr
p4523
aV3
aV2
aV2
aV12
p4524
aa(lp4525
V24-06-2018
p4526
aV18
p4527
aV3
aV1
aVnr
p4528
aVnr
p4529
aVnr
p4530
aVnr
p4531
aV1
aV1
aVnr
p4532
aV1
aVnr
p4533
aVnr
p4534
aV3
aVnr
p4535
aV4
aVnr
p4536
aVnr
p4537
aVnr
p4538
aV2
aVnr
p4539
aV3
aVnr
p4540
aV7
aV4
aVnr
p4541
aV2
aV1
aVnr
p4542
aV3
aV2
aVnr
p4543
aVnr
p4544
aVnr
p4545
aVnr
p4546
aVnr
p4547
aVnr
p4548
aV4
aV1
aVnr
p4549
aV2
aV1
aV2
aV10
p4550
aa(lp4551
V24-06-2018
p4552
aV19
p4553
aV2
aV1
aVnr
p4554
aV1
aVnr
p4555
aVnr
p4556
aV8
aV0
aVnr
p4557
aV1
aVnr
p4558
aVnr
p4559
aV2
aVnr
p4560
aV17
p4561
aVnr
p4562
aVnr
p4563
aVnr
p4564
aV2
aVnr
p4565
aV1
aVnr
p4566
aV5
aV3
aVnr
p4567
aV2
aV1
aVnr
p4568
aV1
aV2
aVnr
p4569
aVnr
p4570
aVnr
p4571
aVnr
p4572
aVnr
p4573
aVnr
p4574
aV8
aV1
aVnr
p4575
aV2
aV0
aV1
aV8
aa(lp4576
V24-06-2018
p4577
aV20
p4578
aV1
aV1
aVnr
p4579
aV1
aVnr
p4580
aVnr
p4581
aV5
aV0
aVnr
p4582
aV1
aVnr
p4583
aVnr
p4584
aV3
aVnr
p4585
aV5
aVnr
p4586
aVnr
p4587
aVnr
p4588
aV3
aVnr
p4589
aV1
aVnr
p4590
aV3
aV3
aVnr
p4591
aV2
aVnr
p4592
aVnr
p4593
aV2
aV5
aVnr
p4594
aVnr
p4595
aVnr
p4596
aVnr
p4597
aVnr
p4598
aVnr
p4599
aV7
aV1
aVnr
p4600
aV2
aV1
aV1
aV6
aa(lp4601
V24-06-2018
p4602
aV21
p4603
aV2
aV1
aVnr
p4604
aV1
aVnr
p4605
aVnr
p4606
aV2
aVnr
p4607
aVnr
p4608
aV1
aVnr
p4609
aVnr
p4610
aV16
p4611
aVnr
p4612
aV29
p4613
aVnr
p4614
aVnr
p4615
aVnr
p4616
aV4
aVnr
p4617
aV2
aVnr
p4618
aV4
aV5
aVnr
p4619
aV1
aVnr
p4620
aVnr
p4621
aV2
aV7
aVnr
p4622
aVnr
p4623
aVnr
p4624
aVnr
p4625
aVnr
p4626
aVnr
p4627
aV2
aV1
aVnr
p4628
aV2
aV0
aV1
aV11
p4629
aa(lp4630
V24-06-2018
p4631
aV22
p4632
aV3
aV1
aVnr
p4633
aV1
aVnr
p4634
aVnr
p4635
aV7
aV1
aVnr
p4636
aV1
aVnr
p4637
aVnr
p4638
aV27
p4639
aVnr
p4640
aV18
p4641
aVnr
p4642
aVnr
p4643
aVnr
p4644
aV2
aVnr
p4645
aV4
aVnr
p4646
aV6
aV14
p4647
aVnr
p4648
aV1
aV0
aVnr
p4649
aV2
aV4
aVnr
p4650
aVnr
p4651
aVnr
p4652
aVnr
p4653
aVnr
p4654
aVnr
p4655
aV4
aV1
aVnr
p4656
aV3
aV1
aV1
aV13
p4657
aa(lp4658
V24-06-2018
p4659
aV23
p4660
aV1
aV0
aVnr
p4661
aV10
p4662
aVnr
p4663
aVnr
p4664
aV16
p4665
aV1
aVnr
p4666
aVnr
p4667
aVnr
p4668
aVnr
p4669
aV3
aVnr
p4670
aV18
p4671
aVnr
p4672
aVnr
p4673
aVnr
p4674
aV9
aVnr
p4675
aV2
aVnr
p4676
aV6
aV31
p4677
aVnr
p4678
aVnr
p4679
aV1
aVnr
p4680
aV4
aV2
aVnr
p4681
aVnr
p4682
aVnr
p4683
aVnr
p4684
aVnr
p4685
aVnr
p4686
aV4
aV1
aVnr
p4687
aV3
aV0
aV0
aV42
p4688
aa(lp4689
V24-06-2018
p4690
aV24
p4691
aV1
aV0
aVnr
p4692
aV1
aVnr
p4693
aVnr
p4694
aV2
aV1
aVnr
p4695
aV2
aVnr
p4696
aVnr
p4697
aVnr
p4698
aVnr
p4699
aV16
p4700
aVnr
p4701
aVnr
p4702
aVnr
p4703
aV8
aVnr
p4704
aV1
aVnr
p4705
aV13
p4706
aV13
p4707
aVnr
p4708
aVnr
p4709
aVnr
p4710
aVnr
p4711
aV2
aV1
aVnr
p4712
aVnr
p4713
aVnr
p4714
aVnr
p4715
aVnr
p4716
aVnr
p4717
aV3
aV1
aVnr
p4718
aV3
aV7
aV0
aV17
p4719
aa(lp4720
V25-06-2018
p4721
aV1
aV1
aV0
aVnr
p4722
aV1
aVnr
p4723
aVnr
p4724
aV7
aVnr
p4725
aVnr
p4726
aV1
aVnr
p4727
aVnr
p4728
aVnr
p4729
aVnr
p4730
aV4
aVnr
p4731
aVnr
p4732
aVnr
p4733
aV10
p4734
aVnr
p4735
aV6
aVnr
p4736
aV5
aV23
p4737
aVnr
p4738
aVnr
p4739
aVnr
p4740
aVnr
p4741
aV1
aV0
aVnr
p4742
aVnr
p4743
aVnr
p4744
aVnr
p4745
aVnr
p4746
aVnr
p4747
aV1
aV0
aVnr
p4748
aV2
aV1
aV1
aV43
p4749
aasS'rh'
p4750
(lp4751
(lp4752
V24-06-2018
p4753
aV2
aV77
p4754
aV67
p4755
aV90
p4756
aVnr
p4757
aV76
p4758
aVnr
p4759
aVnr
p4760
aVnr
p4761
aV76
p4762
aVnr
p4763
aVnr
p4764
aV74
p4765
aV93
p4766
aVnr
p4767
aV75
p4768
aV69
p4769
aVnr
p4770
aVnr
p4771
aVnr
p4772
aVnr
p4773
aVnr
p4774
aV70
p4775
aV62
p4776
aV79
p4777
aV74
p4778
aV76
p4779
aVnr
p4780
aV64
p4781
aV46
p4782
aVnr
p4783
aV75
p4784
aVnr
p4785
aVnr
p4786
aVnr
p4787
aVnr
p4788
aV69
p4789
aVnr
p4790
aVnr
p4791
aV75
p4792
aVnr
p4793
aV78
p4794
aV69
p4795
aa(lp4796
V24-06-2018
p4797
aV3
aV76
p4798
aV67
p4799
aV91
p4800
aVnr
p4801
aV75
p4802
aVnr
p4803
aVnr
p4804
aVnr
p4805
aV74
p4806
aVnr
p4807
aVnr
p4808
aV74
p4809
aV95
p4810
aVnr
p4811
aV76
p4812
aV59
p4813
aVnr
p4814
aVnr
p4815
aVnr
p4816
aVnr
p4817
aVnr
p4818
aV72
p4819
aV64
p4820
aV79
p4821
aV74
p4822
aV77
p4823
aVnr
p4824
aV64
p4825
aV45
p4826
aVnr
p4827
aV78
p4828
aVnr
p4829
aVnr
p4830
aVnr
p4831
aVnr
p4832
aV70
p4833
aVnr
p4834
aVnr
p4835
aV76
p4836
aVnr
p4837
aV81
p4838
aV69
p4839
aa(lp4840
V24-06-2018
p4841
aV4
aV76
p4842
aV73
p4843
aV90
p4844
aVnr
p4845
aV77
p4846
aVnr
p4847
aVnr
p4848
aVnr
p4849
aV72
p4850
aVnr
p4851
aVnr
p4852
aV75
p4853
aV96
p4854
aVnr
p4855
aV76
p4856
aV64
p4857
aVnr
p4858
aVnr
p4859
aVnr
p4860
aVnr
p4861
aVnr
p4862
aV73
p4863
aV67
p4864
aV81
p4865
aV73
p4866
aV77
p4867
aVnr
p4868
aV63
p4869
aV50
p4870
aVnr
p4871
aV80
p4872
aVnr
p4873
aVnr
p4874
aVnr
p4875
aVnr
p4876
aV70
p4877
aVnr
p4878
aVnr
p4879
aV78
p4880
aVnr
p4881
aV82
p4882
aV69
p4883
aa(lp4884
V24-06-2018
p4885
aV5
aV83
p4886
aV76
p4887
aV90
p4888
aVnr
p4889
aV81
p4890
aVnr
p4891
aVnr
p4892
aVnr
p4893
aV74
p4894
aVnr
p4895
aVnr
p4896
aV79
p4897
aV96
p4898
aVnr
p4899
aV78
p4900
aV69
p4901
aVnr
p4902
aVnr
p4903
aVnr
p4904
aVnr
p4905
aVnr
p4906
aV74
p4907
aV72
p4908
aV81
p4909
aV73
p4910
aV83
p4911
aVnr
p4912
aV64
p4913
aV51
p4914
aVnr
p4915
aV82
p4916
aVnr
p4917
aVnr
p4918
aVnr
p4919
aVnr
p4920
aV70
p4921
aVnr
p4922
aVnr
p4923
aV79
p4924
aVnr
p4925
aV78
p4926
aV70
p4927
aa(lp4928
V24-06-2018
p4929
aV6
aV87
p4930
aV76
p4931
aV93
p4932
aVnr
p4933
aV82
p4934
aVnr
p4935
aVnr
p4936
aVnr
p4937
aV82
p4938
aVnr
p4939
aVnr
p4940
aV83
p4941
aV96
p4942
aVnr
p4943
aV79
p4944
aV71
p4945
aVnr
p4946
aVnr
p4947
aVnr
p4948
aVnr
p4949
aVnr
p4950
aV75
p4951
aV76
p4952
aV78
p4953
aV71
p4954
aV85
p4955
aVnr
p4956
aV65
p4957
aV50
p4958
aVnr
p4959
aV82
p4960
aVnr
p4961
aVnr
p4962
aVnr
p4963
aVnr
p4964
aV71
p4965
aVnr
p4966
aVnr
p4967
aV80
p4968
aVnr
p4969
aV88
p4970
aV70
p4971
aa(lp4972
V24-06-2018
p4973
aV7
aV86
p4974
aV72
p4975
aVnr
p4976
aVnr
p4977
aV80
p4978
aVnr
p4979
aVnr
p4980
aVnr
p4981
aV84
p4982
aVnr
p4983
aVnr
p4984
aV83
p4985
aV96
p4986
aVnr
p4987
aV75
p4988
aV72
p4989
aVnr
p4990
aVnr
p4991
aVnr
p4992
aVnr
p4993
aVnr
p4994
aV75
p4995
aV75
p4996
aV76
p4997
aV71
p4998
aV84
p4999
aVnr
p5000
aV65
p5001
aV50
p5002
aVnr
p5003
aV80
p5004
aVnr
p5005
aVnr
p5006
aV75
p5007
aVnr
p5008
aV74
p5009
aVnr
p5010
aVnr
p5011
aV79
p5012
aVnr
p5013
aV88
p5014
aV65
p5015
aa(lp5016
V24-06-2018
p5017
aV8
aV83
p5018
aV71
p5019
aV91
p5020
aVnr
p5021
aV72
p5022
aVnr
p5023
aVnr
p5024
aVnr
p5025
aV73
p5026
aVnr
p5027
aVnr
p5028
aV75
p5029
aV93
p5030
aVnr
p5031
aV70
p5032
aV64
p5033
aVnr
p5034
aVnr
p5035
aVnr
p5036
aVnr
p5037
aVnr
p5038
aV71
p5039
aV67
p5040
aV73
p5041
aV69
p5042
aV73
p5043
aVnr
p5044
aV61
p5045
aV47
p5046
aVnr
p5047
aV77
p5048
aVnr
p5049
aVnr
p5050
aV70
p5051
aVnr
p5052
aV67
p5053
aVnr
p5054
aVnr
p5055
aV74
p5056
aVnr
p5057
aV84
p5058
aV60
p5059
aa(lp5060
V24-06-2018
p5061
aV9
aV74
p5062
aV67
p5063
aV79
p5064
aVnr
p5065
aV63
p5066
aVnr
p5067
aVnr
p5068
aVnr
p5069
aV63
p5070
aVnr
p5071
aVnr
p5072
aV71
p5073
aV79
p5074
aVnr
p5075
aV65
p5076
aV54
p5077
aVnr
p5078
aVnr
p5079
aVnr
p5080
aVnr
p5081
aVnr
p5082
aV65
p5083
aV60
p5084
aV70
p5085
aV63
p5086
aV64
p5087
aVnr
p5088
aV52
p5089
aV43
p5090
aVnr
p5091
aV70
p5092
aVnr
p5093
aVnr
p5094
aV64
p5095
aVnr
p5096
aV55
p5097
aVnr
p5098
aVnr
p5099
aV69
p5100
aVnr
p5101
aV79
p5102
aV56
p5103
aa(lp5104
V24-06-2018
p5105
aV10
p5106
aV64
p5107
aV59
p5108
aV79
p5109
aVnr
p5110
aV56
p5111
aVnr
p5112
aVnr
p5113
aVnr
p5114
aV61
p5115
aVnr
p5116
aVnr
p5117
aV64
p5118
aV69
p5119
aVnr
p5120
aV58
p5121
aV50
p5122
aVnr
p5123
aVnr
p5124
aVnr
p5125
aVnr
p5126
aVnr
p5127
aV57
p5128
aV53
p5129
aV66
p5130
aV59
p5131
aV57
p5132
aVnr
p5133
aV46
p5134
aV41
p5135
aVnr
p5136
aV61
p5137
aVnr
p5138
aVnr
p5139
aV60
p5140
aVnr
p5141
aV48
p5142
aVnr
p5143
aVnr
p5144
aV62
p5145
aVnr
p5146
aV70
p5147
aV50
p5148
aa(lp5149
V24-06-2018
p5150
aV11
p5151
aV58
p5152
aV56
p5153
aV65
p5154
aVnr
p5155
aV50
p5156
aVnr
p5157
aVnr
p5158
aVnr
p5159
aV56
p5160
aVnr
p5161
aVnr
p5162
aV58
p5163
aV62
p5164
aVnr
p5165
aV50
p5166
aV45
p5167
aVnr
p5168
aVnr
p5169
aVnr
p5170
aVnr
p5171
aVnr
p5172
aV47
p5173
aV48
p5174
aV60
p5175
aV52
p5176
aV52
p5177
aVnr
p5178
aV38
p5179
aV38
p5180
aVnr
p5181
aV53
p5182
aVnr
p5183
aVnr
p5184
aV44
p5185
aVnr
p5186
aV45
p5187
aVnr
p5188
aVnr
p5189
aV52
p5190
aVnr
p5191
aV55
p5192
aV44
p5193
aa(lp5194
V24-06-2018
p5195
aV12
p5196
aV52
p5197
aV46
p5198
aV60
p5199
aVnr
p5200
aV40
p5201
aVnr
p5202
aVnr
p5203
aVnr
p5204
aV46
p5205
aVnr
p5206
aVnr
p5207
aV54
p5208
aV59
p5209
aVnr
p5210
aV45
p5211
aV34
p5212
aVnr
p5213
aVnr
p5214
aVnr
p5215
aVnr
p5216
aVnr
p5217
aV39
p5218
aV39
p5219
aV54
p5220
aV44
p5221
aV45
p5222
aVnr
p5223
aV35
p5224
aV33
p5225
aVnr
p5226
aV45
p5227
aVnr
p5228
aVnr
p5229
aV39
p5230
aVnr
p5231
aV39
p5232
aVnr
p5233
aVnr
p5234
aV44
p5235
aVnr
p5236
aV49
p5237
aV42
p5238
aa(lp5239
V24-06-2018
p5240
aV13
p5241
aV45
p5242
aV51
p5243
aVnr
p5244
aVnr
p5245
aV33
p5246
aVnr
p5247
aVnr
p5248
aVnr
p5249
aV42
p5250
aVnr
p5251
aVnr
p5252
aV56
p5253
aV54
p5254
aVnr
p5255
aV41
p5256
aV31
p5257
aVnr
p5258
aVnr
p5259
aVnr
p5260
aVnr
p5261
aVnr
p5262
aV36
p5263
aV32
p5264
aV52
p5265
aV37
p5266
aV41
p5267
aVnr
p5268
aV29
p5269
aV35
p5270
aVnr
p5271
aV40
p5272
aVnr
p5273
aVnr
p5274
aV34
p5275
aVnr
p5276
aV38
p5277
aVnr
p5278
aVnr
p5279
aV37
p5280
aVnr
p5281
aV46
p5282
aV37
p5283
aa(lp5284
V24-06-2018
p5285
aV14
p5286
aV39
p5287
aV39
p5288
aV84
p5289
aVnr
p5290
aV40
p5291
aVnr
p5292
aVnr
p5293
aVnr
p5294
aV38
p5295
aVnr
p5296
aVnr
p5297
aV78
p5298
aV43
p5299
aVnr
p5300
aV39
p5301
aVnr
p5302
aVnr
p5303
aVnr
p5304
aVnr
p5305
aVnr
p5306
aVnr
p5307
aV37
p5308
aV38
p5309
aV54
p5310
aV37
p5311
aV47
p5312
aVnr
p5313
aV27
p5314
aV35
p5315
aVnr
p5316
aV44
p5317
aVnr
p5318
aVnr
p5319
aV35
p5320
aVnr
p5321
aV39
p5322
aVnr
p5323
aVnr
p5324
aV40
p5325
aVnr
p5326
aV40
p5327
aV35
p5328
aa(lp5329
V24-06-2018
p5330
aV15
p5331
aV38
p5332
aV41
p5333
aV85
p5334
aVnr
p5335
aV54
p5336
aVnr
p5337
aVnr
p5338
aVnr
p5339
aV56
p5340
aVnr
p5341
aVnr
p5342
aV73
p5343
aV43
p5344
aVnr
p5345
aV74
p5346
aV62
p5347
aVnr
p5348
aVnr
p5349
aVnr
p5350
aVnr
p5351
aVnr
p5352
aV73
p5353
aV59
p5354
aV48
p5355
aV66
p5356
aV49
p5357
aVnr
p5358
aV38
p5359
aV39
p5360
aVnr
p5361
aV89
p5362
aVnr
p5363
aVnr
p5364
aV29
p5365
aVnr
p5366
aV50
p5367
aVnr
p5368
aVnr
p5369
aV42
p5370
aVnr
p5371
aV44
p5372
aV58
p5373
aa(lp5374
V24-06-2018
p5375
aV16
p5376
aV72
p5377
aV58
p5378
aV83
p5379
aVnr
p5380
aV56
p5381
aVnr
p5382
aVnr
p5383
aVnr
p5384
aV84
p5385
aVnr
p5386
aVnr
p5387
aV71
p5388
aV48
p5389
aVnr
p5390
aV83
p5391
aV60
p5392
aVnr
p5393
aVnr
p5394
aVnr
p5395
aVnr
p5396
aVnr
p5397
aV74
p5398
aV58
p5399
aV52
p5400
aV59
p5401
aV57
p5402
aVnr
p5403
aV63
p5404
aV45
p5405
aVnr
p5406
aV86
p5407
aVnr
p5408
aVnr
p5409
aV46
p5410
aVnr
p5411
aV56
p5412
aVnr
p5413
aVnr
p5414
aV51
p5415
aVnr
p5416
aV51
p5417
aV64
p5418
aa(lp5419
V24-06-2018
p5420
aV17
p5421
aV69
p5422
aV54
p5423
aV76
p5424
aVnr
p5425
aV48
p5426
aVnr
p5427
aVnr
p5428
aVnr
p5429
aV77
p5430
aVnr
p5431
aVnr
p5432
aV71
p5433
aV53
p5434
aVnr
p5435
aV70
p5436
aV51
p5437
aVnr
p5438
aVnr
p5439
aVnr
p5440
aVnr
p5441
aVnr
p5442
aV62
p5443
aV47
p5444
aV60
p5445
aV58
p5446
aV55
p5447
aVnr
p5448
aV54
p5449
aV45
p5450
aVnr
p5451
aV73
p5452
aVnr
p5453
aVnr
p5454
aV45
p5455
aVnr
p5456
aV46
p5457
aVnr
p5458
aVnr
p5459
aV47
p5460
aVnr
p5461
aV48
p5462
aV54
p5463
aa(lp5464
V24-06-2018
p5465
aV18
p5466
aV65
p5467
aV55
p5468
aV76
p5469
aVnr
p5470
aV45
p5471
aVnr
p5472
aVnr
p5473
aVnr
p5474
aV65
p5475
aVnr
p5476
aVnr
p5477
aV62
p5478
aV60
p5479
aVnr
p5480
aV57
p5481
aV44
p5482
aVnr
p5483
aVnr
p5484
aVnr
p5485
aVnr
p5486
aVnr
p5487
aV52
p5488
aV43
p5489
aV57
p5490
aV50
p5491
aV53
p5492
aVnr
p5493
aV43
p5494
aV39
p5495
aVnr
p5496
aV65
p5497
aVnr
p5498
aVnr
p5499
aV43
p5500
aVnr
p5501
aV44
p5502
aVnr
p5503
aVnr
p5504
aV46
p5505
aVnr
p5506
aV50
p5507
aV48
p5508
aa(lp5509
V24-06-2018
p5510
aV19
p5511
aV64
p5512
aV51
p5513
aV77
p5514
aVnr
p5515
aV47
p5516
aVnr
p5517
aVnr
p5518
aVnr
p5519
aV68
p5520
aVnr
p5521
aVnr
p5522
aV61
p5523
aV63
p5524
aVnr
p5525
aV57
p5526
aV46
p5527
aVnr
p5528
aVnr
p5529
aVnr
p5530
aVnr
p5531
aVnr
p5532
aV52
p5533
aV46
p5534
aV63
p5535
aV51
p5536
aV52
p5537
aVnr
p5538
aV42
p5539
aV42
p5540
aVnr
p5541
aV76
p5542
aVnr
p5543
aVnr
p5544
aV46
p5545
aVnr
p5546
aV49
p5547
aVnr
p5548
aVnr
p5549
aV48
p5550
aVnr
p5551
aV62
p5552
aV49
p5553
aa(lp5554
V24-06-2018
p5555
aV20
p5556
aV67
p5557
aV52
p5558
aVnr
p5559
aVnr
p5560
aV52
p5561
aVnr
p5562
aVnr
p5563
aVnr
p5564
aV70
p5565
aVnr
p5566
aVnr
p5567
aV69
p5568
aV70
p5569
aVnr
p5570
aV63
p5571
aV52
p5572
aVnr
p5573
aVnr
p5574
aVnr
p5575
aVnr
p5576
aVnr
p5577
aV59
p5578
aV51
p5579
aV68
p5580
aV58
p5581
aV54
p5582
aVnr
p5583
aV48
p5584
aV48
p5585
aVnr
p5586
aV72
p5587
aVnr
p5588
aVnr
p5589
aVnr
p5590
aVnr
p5591
aV51
p5592
aVnr
p5593
aVnr
p5594
aV53
p5595
aVnr
p5596
aV65
p5597
aV54
p5598
aa(lp5599
V24-06-2018
p5600
aV21
p5601
aV69
p5602
aV60
p5603
aVnr
p5604
aVnr
p5605
aV60
p5606
aVnr
p5607
aVnr
p5608
aVnr
p5609
aV71
p5610
aVnr
p5611
aVnr
p5612
aV74
p5613
aV72
p5614
aVnr
p5615
aV67
p5616
aVnr
p5617
aVnr
p5618
aVnr
p5619
aVnr
p5620
aVnr
p5621
aVnr
p5622
aV63
p5623
aV54
p5624
aV71
p5625
aV58
p5626
aV59
p5627
aVnr
p5628
aV51
p5629
aV49
p5630
aVnr
p5631
aV79
p5632
aVnr
p5633
aVnr
p5634
aVnr
p5635
aVnr
p5636
aV53
p5637
aVnr
p5638
aVnr
p5639
aV58
p5640
aVnr
p5641
aV59
p5642
aV57
p5643
aa(lp5644
V24-06-2018
p5645
aV22
p5646
aV73
p5647
aV65
p5648
aV90
p5649
aVnr
p5650
aV65
p5651
aVnr
p5652
aVnr
p5653
aVnr
p5654
aV72
p5655
aVnr
p5656
aVnr
p5657
aV74
p5658
aV79
p5659
aVnr
p5660
aV69
p5661
aV60
p5662
aVnr
p5663
aVnr
p5664
aVnr
p5665
aVnr
p5666
aVnr
p5667
aV65
p5668
aV60
p5669
aV73
p5670
aV63
p5671
aV63
p5672
aVnr
p5673
aV50
p5674
aV47
p5675
aVnr
p5676
aV86
p5677
aVnr
p5678
aVnr
p5679
aVnr
p5680
aVnr
p5681
aV58
p5682
aVnr
p5683
aVnr
p5684
aV63
p5685
aVnr
p5686
aV66
p5687
aV62
p5688
aa(lp5689
V24-06-2018
p5690
aV23
p5691
aV74
p5692
aV66
p5693
aVnr
p5694
aVnr
p5695
aV62
p5696
aVnr
p5697
aVnr
p5698
aVnr
p5699
aV74
p5700
aVnr
p5701
aVnr
p5702
aV72
p5703
aV86
p5704
aVnr
p5705
aV71
p5706
aV63
p5707
aVnr
p5708
aVnr
p5709
aVnr
p5710
aVnr
p5711
aVnr
p5712
aV68
p5713
aV63
p5714
aV70
p5715
aVnr
p5716
aV65
p5717
aVnr
p5718
aV52
p5719
aV49
p5720
aVnr
p5721
aV86
p5722
aVnr
p5723
aVnr
p5724
aVnr
p5725
aVnr
p5726
aV59
p5727
aVnr
p5728
aVnr
p5729
aV67
p5730
aVnr
p5731
aV75
p5732
aV61
p5733
aa(lp5734
V24-06-2018
p5735
aV24
p5736
aV71
p5737
aV65
p5738
aVnr
p5739
aVnr
p5740
aV64
p5741
aVnr
p5742
aVnr
p5743
aVnr
p5744
aV71
p5745
aVnr
p5746
aVnr
p5747
aV74
p5748
aV91
p5749
aVnr
p5750
aV70
p5751
aV63
p5752
aVnr
p5753
aVnr
p5754
aVnr
p5755
aVnr
p5756
aVnr
p5757
aV68
p5758
aV61
p5759
aV73
p5760
aVnr
p5761
aV64
p5762
aVnr
p5763
aV57
p5764
aV50
p5765
aVnr
p5766
aV81
p5767
aVnr
p5768
aVnr
p5769
aVnr
p5770
aVnr
p5771
aV61
p5772
aVnr
p5773
aVnr
p5774
aV69
p5775
aVnr
p5776
aV76
p5777
aV61
p5778
aa(lp5779
V25-06-2018
p5780
aV1
aV75
p5781
aV68
p5782
aV94
p5783
aVnr
p5784
aV67
p5785
aVnr
p5786
aVnr
p5787
aVnr
p5788
aV77
p5789
aVnr
p5790
aVnr
p5791
aV72
p5792
aV93
p5793
aVnr
p5794
aV74
p5795
aV63
p5796
aVnr
p5797
aVnr
p5798
aVnr
p5799
aVnr
p5800
aVnr
p5801
aV68
p5802
aV62
p5803
aV75
p5804
aVnr
p5805
aV64
p5806
aVnr
p5807
aV64
p5808
aV51
p5809
aVnr
p5810
aV86
p5811
aVnr
p5812
aVnr
p5813
aVnr
p5814
aVnr
p5815
aV61
p5816
aVnr
p5817
aVnr
p5818
aV72
p5819
aVnr
p5820
aV80
p5821
aV64
p5822
aasS'wsp'
p5823
(lp5824
(lp5825
V24-06-2018
p5826
aV2
aV4.9
p5827
aV5.1
p5828
aV4.2
p5829
aVnr
p5830
aVnr
p5831
aVnr
p5832
aVnr
p5833
aVnr
p5834
aV4.3
p5835
aVnr
p5836
aVnr
p5837
aV1.9
p5838
aV0.9
p5839
aV0.5
p5840
aV2.5
p5841
aV0.2
p5842
aVnr
p5843
aV0.4
p5844
aVnr
p5845
aVnr
p5846
aVnr
p5847
aV1.7
p5848
aV1.9
p5849
aV1.7
p5850
aV4.3
p5851
aV1.1
p5852
aVnr
p5853
aV1
aVnr
p5854
aVnr
p5855
aV0.8
p5856
aVnr
p5857
aVnr
p5858
aVnr
p5859
aVnr
p5860
aVnr
p5861
aVnr
p5862
aVnr
p5863
aV1.3
p5864
aV1.9
p5865
aV1.2
p5866
aV3.8
p5867
aa(lp5868
V24-06-2018
p5869
aV3
aV4.4
p5870
aV2.2
p5871
aV3.8
p5872
aVnr
p5873
aV1.6
p5874
aVnr
p5875
aVnr
p5876
aVnr
p5877
aV3.7
p5878
aVnr
p5879
aVnr
p5880
aV2.3
p5881
aV0.4
p5882
aV0.7
p5883
aV1.3
p5884
aV1.1
p5885
aVnr
p5886
aV0.6
p5887
aVnr
p5888
aVnr
p5889
aVnr
p5890
aVnr
p5891
aV1.5
p5892
aV0.8
p5893
aVnr
p5894
aVnr
p5895
aVnr
p5896
aV1.2
p5897
aVnr
p5898
aVnr
p5899
aV1.1
p5900
aVnr
p5901
aVnr
p5902
aVnr
p5903
aVnr
p5904
aV1.2
p5905
aVnr
p5906
aVnr
p5907
aV2
aVnr
p5908
aV0.7
p5909
aV3.5
p5910
aa(lp5911
V24-06-2018
p5912
aV4
aV2.4
p5913
aV1.5
p5914
aV2.1
p5915
aVnr
p5916
aV1.2
p5917
aVnr
p5918
aVnr
p5919
aVnr
p5920
aV3.1
p5921
aVnr
p5922
aVnr
p5923
aV1.5
p5924
aVnr
p5925
aV0.7
p5926
aV1.6
p5927
aV1.2
p5928
aVnr
p5929
aV0.7
p5930
aVnr
p5931
aVnr
p5932
aVnr
p5933
aV2
aV1.1
p5934
aV1.2
p5935
aV3.6
p5936
aV1.1
p5937
aVnr
p5938
aV0.9
p5939
aVnr
p5940
aVnr
p5941
aV1.6
p5942
aVnr
p5943
aVnr
p5944
aVnr
p5945
aVnr
p5946
aV1.8
p5947
aVnr
p5948
aVnr
p5949
aV2.3
p5950
aV1.1
p5951
aV0.8
p5952
aV1
aa(lp5953
V24-06-2018
p5954
aV5
aV1.3
p5955
aV2.2
p5956
aV2.4
p5957
aVnr
p5958
aV0.5
p5959
aVnr
p5960
aVnr
p5961
aVnr
p5962
aV1.7
p5963
aVnr
p5964
aVnr
p5965
aV1
aVnr
p5966
aV0.6
p5967
aV1.1
p5968
aV1
aVnr
p5969
aV0.5
p5970
aVnr
p5971
aVnr
p5972
aVnr
p5973
aV1.7
p5974
aV0.8
p5975
aV2.3
p5976
aV3.3
p5977
aV0.7
p5978
aVnr
p5979
aV0.3
p5980
aVnr
p5981
aVnr
p5982
aV1.3
p5983
aVnr
p5984
aVnr
p5985
aVnr
p5986
aVnr
p5987
aV1.7
p5988
aVnr
p5989
aVnr
p5990
aV1.5
p5991
aV0.8
p5992
aV1.6
p5993
aV1.1
p5994
aa(lp5995
V24-06-2018
p5996
aV6
aV1.5
p5997
aV2.3
p5998
aV1.9
p5999
aVnr
p6000
aV1.1
p6001
aVnr
p6002
aVnr
p6003
aVnr
p6004
aV0.8
p6005
aVnr
p6006
aVnr
p6007
aV1.3
p6008
aV0.5
p6009
aV0.9
p6010
aV0
aV0.6
p6011
aVnr
p6012
aVnr
p6013
aVnr
p6014
aVnr
p6015
aVnr
p6016
aV1
aV0.9
p6017
aV3.3
p6018
aV2.4
p6019
aV0.3
p6020
aVnr
p6021
aV0.2
p6022
aVnr
p6023
aVnr
p6024
aV0.7
p6025
aVnr
p6026
aVnr
p6027
aVnr
p6028
aVnr
p6029
aV0.8
p6030
aVnr
p6031
aVnr
p6032
aV1
aV1.2
p6033
aV0.7
p6034
aV0.9
p6035
aa(lp6036
V24-06-2018
p6037
aV7
aV2.1
p6038
aV2.1
p6039
aVnr
p6040
aVnr
p6041
aVnr
p6042
aVnr
p6043
aVnr
p6044
aVnr
p6045
aV0.7
p6046
aVnr
p6047
aVnr
p6048
aV0.7
p6049
aV0.5
p6050
aV0.8
p6051
aV0.4
p6052
aV1.3
p6053
aVnr
p6054
aV0.5
p6055
aVnr
p6056
aVnr
p6057
aVnr
p6058
aV1.6
p6059
aV1.1
p6060
aV1.4
p6061
aV1.7
p6062
aV0.9
p6063
aVnr
p6064
aV0.4
p6065
aVnr
p6066
aVnr
p6067
aV1
aVnr
p6068
aVnr
p6069
aV1.8
p6070
aVnr
p6071
aV1.5
p6072
aVnr
p6073
aVnr
p6074
aV0.5
p6075
aV1.7
p6076
aV1.1
p6077
aV0.4
p6078
aa(lp6079
V24-06-2018
p6080
aV8
aV1.6
p6081
aV1.9
p6082
aV1.7
p6083
aVnr
p6084
aVnr
p6085
aVnr
p6086
aVnr
p6087
aVnr
p6088
aV1.4
p6089
aVnr
p6090
aVnr
p6091
aV1
aV0.7
p6092
aVnr
p6093
aV1
aVnr
p6094
aVnr
p6095
aV0.2
p6096
aVnr
p6097
aVnr
p6098
aVnr
p6099
aV1.5
p6100
aV1.4
p6101
aV0.7
p6102
aV0.8
p6103
aV1.3
p6104
aVnr
p6105
aV1.1
p6106
aVnr
p6107
aVnr
p6108
aV1.3
p6109
aVnr
p6110
aVnr
p6111
aV1.9
p6112
aVnr
p6113
aV1
aVnr
p6114
aVnr
p6115
aV0.7
p6116
aV0.9
p6117
aV1
aV1.7
p6118
aa(lp6119
V24-06-2018
p6120
aV9
aV1.1
p6121
aV1.5
p6122
aV1.1
p6123
aVnr
p6124
aV1
aVnr
p6125
aVnr
p6126
aVnr
p6127
aV2
aVnr
p6128
aVnr
p6129
aV1.1
p6130
aV0.8
p6131
aV1.1
p6132
aV1.3
p6133
aV1.1
p6134
aVnr
p6135
aV0.4
p6136
aVnr
p6137
aVnr
p6138
aVnr
p6139
aV1.1
p6140
aV1.4
p6141
aV1.4
p6142
aV1.4
p6143
aV1.1
p6144
aVnr
p6145
aV1
aVnr
p6146
aVnr
p6147
aV1.3
p6148
aVnr
p6149
aVnr
p6150
aV1.7
p6151
aVnr
p6152
aV0.8
p6153
aVnr
p6154
aVnr
p6155
aV1.1
p6156
aV1.2
p6157
aV1.1
p6158
aV1
aa(lp6159
V24-06-2018
p6160
aV10
p6161
aV1.4
p6162
aV1.9
p6163
aV1.1
p6164
aVnr
p6165
aV1.3
p6166
aVnr
p6167
aVnr
p6168
aVnr
p6169
aV1.7
p6170
aVnr
p6171
aVnr
p6172
aV1.4
p6173
aV1.3
p6174
aV1.3
p6175
aV1.4
p6176
aV0.8
p6177
aVnr
p6178
aV1
aVnr
p6179
aVnr
p6180
aVnr
p6181
aV1.5
p6182
aV1.4
p6183
aV1.5
p6184
aV1.4
p6185
aV1.3
p6186
aVnr
p6187
aV1
aVnr
p6188
aVnr
p6189
aV1.4
p6190
aVnr
p6191
aVnr
p6192
aV2
aVnr
p6193
aV0.5
p6194
aVnr
p6195
aVnr
p6196
aV1.3
p6197
aV1.3
p6198
aV1.3
p6199
aV1.3
p6200
aa(lp6201
V24-06-2018
p6202
aV11
p6203
aV1.6
p6204
aV3
aV1.5
p6205
aVnr
p6206
aV1.4
p6207
aVnr
p6208
aVnr
p6209
aVnr
p6210
aVnr
p6211
aVnr
p6212
aVnr
p6213
aV1.8
p6214
aV1.5
p6215
aV1.5
p6216
aV1.7
p6217
aV1
aVnr
p6218
aV2.1
p6219
aVnr
p6220
aVnr
p6221
aVnr
p6222
aV1.6
p6223
aV1.7
p6224
aV1.7
p6225
aV1.6
p6226
aV1.6
p6227
aVnr
p6228
aV1.4
p6229
aVnr
p6230
aVnr
p6231
aV1.4
p6232
aVnr
p6233
aVnr
p6234
aV1.9
p6235
aVnr
p6236
aV0.6
p6237
aVnr
p6238
aVnr
p6239
aV1.6
p6240
aV1.6
p6241
aV1.6
p6242
aV1.4
p6243
aa(lp6244
V24-06-2018
p6245
aV12
p6246
aV1.8
p6247
aV3
aV2.1
p6248
aVnr
p6249
aV1.6
p6250
aVnr
p6251
aVnr
p6252
aVnr
p6253
aV1.9
p6254
aVnr
p6255
aVnr
p6256
aV2.5
p6257
aV1.9
p6258
aV1.7
p6259
aV2.2
p6260
aV1.3
p6261
aVnr
p6262
aV2.8
p6263
aVnr
p6264
aVnr
p6265
aVnr
p6266
aV1.9
p6267
aV1.9
p6268
aV2.4
p6269
aV2.1
p6270
aV1.8
p6271
aVnr
p6272
aV1.6
p6273
aVnr
p6274
aVnr
p6275
aV1.7
p6276
aVnr
p6277
aVnr
p6278
aV2
aVnr
p6279
aV1.7
p6280
aVnr
p6281
aVnr
p6282
aV1.7
p6283
aV2.1
p6284
aV2.1
p6285
aV2.9
p6286
aa(lp6287
V24-06-2018
p6288
aV13
p6289
aV2.2
p6290
aV4.2
p6291
aVnr
p6292
aVnr
p6293
aV2.1
p6294
aVnr
p6295
aVnr
p6296
aVnr
p6297
aV2.3
p6298
aVnr
p6299
aVnr
p6300
aV2.8
p6301
aV2.2
p6302
aV2
aV2.4
p6303
aV0.7
p6304
aVnr
p6305
aV2.5
p6306
aVnr
p6307
aVnr
p6308
aVnr
p6309
aV1.7
p6310
aV2
aV2.6
p6311
aV2.5
p6312
aV2.7
p6313
aVnr
p6314
aV1.9
p6315
aVnr
p6316
aVnr
p6317
aV1.9
p6318
aVnr
p6319
aVnr
p6320
aV2.5
p6321
aVnr
p6322
aV1.7
p6323
aVnr
p6324
aVnr
p6325
aV1.6
p6326
aV1.9
p6327
aV2.8
p6328
aV2.6
p6329
aa(lp6330
V24-06-2018
p6331
aV14
p6332
aV2.1
p6333
aV5.1
p6334
aV2.5
p6335
aVnr
p6336
aV3.4
p6337
aVnr
p6338
aVnr
p6339
aVnr
p6340
aV2.5
p6341
aVnr
p6342
aVnr
p6343
aV2.3
p6344
aV1.8
p6345
aV3.2
p6346
aV3
aV1.6
p6347
aVnr
p6348
aV3
aVnr
p6349
aVnr
p6350
aVnr
p6351
aV2.5
p6352
aV3.3
p6353
aV2.7
p6354
aV2.8
p6355
aV3.5
p6356
aVnr
p6357
aVnr
p6358
aVnr
p6359
aVnr
p6360
aVnr
p6361
aVnr
p6362
aVnr
p6363
aV2.8
p6364
aVnr
p6365
aV3.1
p6366
aVnr
p6367
aVnr
p6368
aV4.2
p6369
aV3
aV2.3
p6370
aV3.7
p6371
aa(lp6372
V24-06-2018
p6373
aV15
p6374
aV3.8
p6375
aV4.8
p6376
aV3
aVnr
p6377
aV4.3
p6378
aVnr
p6379
aVnr
p6380
aVnr
p6381
aV3.5
p6382
aVnr
p6383
aVnr
p6384
aV2.5
p6385
aV3.1
p6386
aV3.3
p6387
aV4.8
p6388
aV4.3
p6389
aVnr
p6390
aV1.7
p6391
aVnr
p6392
aVnr
p6393
aVnr
p6394
aV4.5
p6395
aV3.7
p6396
aV2.5
p6397
aV4.9
p6398
aV3.9
p6399
aVnr
p6400
aVnr
p6401
aVnr
p6402
aVnr
p6403
aV3.4
p6404
aVnr
p6405
aVnr
p6406
aV3.7
p6407
aVnr
p6408
aV2.9
p6409
aVnr
p6410
aVnr
p6411
aV4.3
p6412
aV4.2
p6413
aV2.8
p6414
aV5.7
p6415
aa(lp6416
V24-06-2018
p6417
aV16
p6418
aV4.5
p6419
aV2.8
p6420
aV2.3
p6421
aVnr
p6422
aV2.5
p6423
aVnr
p6424
aVnr
p6425
aVnr
p6426
aV2.1
p6427
aVnr
p6428
aVnr
p6429
aV1.4
p6430
aV2.8
p6431
aV2.7
p6432
aV1.9
p6433
aV1.9
p6434
aVnr
p6435
aV1.4
p6436
aVnr
p6437
aVnr
p6438
aVnr
p6439
aV3
aV1.6
p6440
aV5.1
p6441
aV4
aV1.7
p6442
aVnr
p6443
aV1.5
p6444
aVnr
p6445
aVnr
p6446
aV2.1
p6447
aVnr
p6448
aVnr
p6449
aV4.1
p6450
aVnr
p6451
aV3.5
p6452
aVnr
p6453
aVnr
p6454
aV3.4
p6455
aV2.8
p6456
aV3.8
p6457
aV2.1
p6458
aa(lp6459
V24-06-2018
p6460
aV17
p6461
aV3.1
p6462
aV2.2
p6463
aV1.6
p6464
aVnr
p6465
aV1.9
p6466
aVnr
p6467
aVnr
p6468
aVnr
p6469
aVnr
p6470
aVnr
p6471
aVnr
p6472
aV1.7
p6473
aV3.7
p6474
aV2
aV1.8
p6475
aV1.7
p6476
aVnr
p6477
aV1.7
p6478
aVnr
p6479
aVnr
p6480
aVnr
p6481
aV2
aV2.8
p6482
aV2.5
p6483
aV2.1
p6484
aV2.2
p6485
aVnr
p6486
aV0.9
p6487
aVnr
p6488
aVnr
p6489
aV1.5
p6490
aVnr
p6491
aVnr
p6492
aV1.9
p6493
aVnr
p6494
aV2.3
p6495
aVnr
p6496
aVnr
p6497
aV1.5
p6498
aV1.6
p6499
aV3.3
p6500
aV2
aa(lp6501
V24-06-2018
p6502
aV18
p6503
aV1.8
p6504
aV1.7
p6505
aV1
aVnr
p6506
aV1.2
p6507
aVnr
p6508
aVnr
p6509
aVnr
p6510
aV1.9
p6511
aVnr
p6512
aVnr
p6513
aV1.7
p6514
aV2.1
p6515
aV1.2
p6516
aV1.6
p6517
aV1.3
p6518
aVnr
p6519
aV1.2
p6520
aVnr
p6521
aVnr
p6522
aVnr
p6523
aV1.4
p6524
aV1.8
p6525
aV1.7
p6526
aV1.4
p6527
aV1.1
p6528
aVnr
p6529
aV1.2
p6530
aVnr
p6531
aVnr
p6532
aV1.1
p6533
aVnr
p6534
aVnr
p6535
aV1.5
p6536
aVnr
p6537
aV1.1
p6538
aVnr
p6539
aVnr
p6540
aV1.2
p6541
aV1.7
p6542
aV3
aV2.3
p6543
aa(lp6544
V24-06-2018
p6545
aV19
p6546
aV1.7
p6547
aV1.2
p6548
aV0.8
p6549
aVnr
p6550
aV1.3
p6551
aVnr
p6552
aVnr
p6553
aVnr
p6554
aV1.8
p6555
aVnr
p6556
aVnr
p6557
aV0.8
p6558
aV2
aV0.8
p6559
aV2.4
p6560
aV1
aVnr
p6561
aV1.3
p6562
aVnr
p6563
aVnr
p6564
aVnr
p6565
aVnr
p6566
aV1.3
p6567
aV1.1
p6568
aV1.9
p6569
aV1.3
p6570
aVnr
p6571
aV2
aVnr
p6572
aVnr
p6573
aV0.4
p6574
aVnr
p6575
aVnr
p6576
aV1.2
p6577
aVnr
p6578
aV1.2
p6579
aVnr
p6580
aVnr
p6581
aV1.1
p6582
aV1.4
p6583
aV3.6
p6584
aV5
aa(lp6585
V24-06-2018
p6586
aV20
p6587
aV1.9
p6588
aV1.7
p6589
aVnr
p6590
aVnr
p6591
aV2.3
p6592
aVnr
p6593
aVnr
p6594
aVnr
p6595
aV1.7
p6596
aVnr
p6597
aVnr
p6598
aV0.8
p6599
aV1.1
p6600
aV2
aV3.2
p6601
aV2.1
p6602
aVnr
p6603
aV1.1
p6604
aVnr
p6605
aVnr
p6606
aVnr
p6607
aV2.8
p6608
aV1.5
p6609
aV1.1
p6610
aV2.5
p6611
aV1.4
p6612
aVnr
p6613
aV1.6
p6614
aVnr
p6615
aVnr
p6616
aV1.4
p6617
aVnr
p6618
aVnr
p6619
aVnr
p6620
aVnr
p6621
aV0.8
p6622
aVnr
p6623
aVnr
p6624
aV1.2
p6625
aV2.2
p6626
aV2.7
p6627
aV3.4
p6628
aa(lp6629
V24-06-2018
p6630
aV21
p6631
aV1
aV1.8
p6632
aVnr
p6633
aVnr
p6634
aV1.1
p6635
aVnr
p6636
aVnr
p6637
aVnr
p6638
aV1.3
p6639
aVnr
p6640
aVnr
p6641
aV1.2
p6642
aV1
aV1.3
p6643
aV1.7
p6644
aVnr
p6645
aVnr
p6646
aV1.1
p6647
aVnr
p6648
aVnr
p6649
aVnr
p6650
aV1.3
p6651
aV1.1
p6652
aVnr
p6653
aV1.8
p6654
aV1.6
p6655
aVnr
p6656
aV0.8
p6657
aVnr
p6658
aVnr
p6659
aV0.7
p6660
aVnr
p6661
aVnr
p6662
aVnr
p6663
aVnr
p6664
aV1.8
p6665
aVnr
p6666
aVnr
p6667
aV1.3
p6668
aV1.6
p6669
aV2.1
p6670
aV0.7
p6671
aa(lp6672
V24-06-2018
p6673
aV22
p6674
aV1.4
p6675
aV2.1
p6676
aV1.4
p6677
aVnr
p6678
aV0.5
p6679
aVnr
p6680
aVnr
p6681
aVnr
p6682
aV2.5
p6683
aVnr
p6684
aVnr
p6685
aV1.5
p6686
aVnr
p6687
aV1.4
p6688
aV0.4
p6689
aV0.4
p6690
aVnr
p6691
aV0.8
p6692
aVnr
p6693
aVnr
p6694
aVnr
p6695
aV0.7
p6696
aV1.6
p6697
aV3.7
p6698
aV2.8
p6699
aV1.9
p6700
aVnr
p6701
aV0.7
p6702
aVnr
p6703
aVnr
p6704
aV0.4
p6705
aVnr
p6706
aVnr
p6707
aVnr
p6708
aVnr
p6709
aV1.1
p6710
aVnr
p6711
aVnr
p6712
aV0.8
p6713
aV1.3
p6714
aV2.1
p6715
aV1
aa(lp6716
V24-06-2018
p6717
aV23
p6718
aV1.3
p6719
aV1.7
p6720
aVnr
p6721
aVnr
p6722
aV1.1
p6723
aVnr
p6724
aVnr
p6725
aVnr
p6726
aV2.2
p6727
aVnr
p6728
aVnr
p6729
aV1.7
p6730
aV0.4
p6731
aV0.7
p6732
aV1
aV1.3
p6733
aVnr
p6734
aV0.8
p6735
aVnr
p6736
aVnr
p6737
aVnr
p6738
aV1.3
p6739
aV1.3
p6740
aV2.1
p6741
aVnr
p6742
aV1.9
p6743
aVnr
p6744
aV1.2
p6745
aVnr
p6746
aVnr
p6747
aV0.9
p6748
aVnr
p6749
aVnr
p6750
aVnr
p6751
aVnr
p6752
aV0.7
p6753
aVnr
p6754
aVnr
p6755
aV1.2
p6756
aV1.4
p6757
aV1.6
p6758
aV1.3
p6759
aa(lp6760
V24-06-2018
p6761
aV24
p6762
aV1.2
p6763
aVnr
p6764
aVnr
p6765
aVnr
p6766
aVnr
p6767
aVnr
p6768
aVnr
p6769
aVnr
p6770
aV1.3
p6771
aVnr
p6772
aVnr
p6773
aV1.7
p6774
aV0.5
p6775
aVnr
p6776
aV0.8
p6777
aV0.9
p6778
aVnr
p6779
aV0.7
p6780
aVnr
p6781
aVnr
p6782
aVnr
p6783
aV1.5
p6784
aV1
aV1.2
p6785
aVnr
p6786
aV1.3
p6787
aVnr
p6788
aV0.4
p6789
aVnr
p6790
aVnr
p6791
aV0.8
p6792
aVnr
p6793
aVnr
p6794
aVnr
p6795
aVnr
p6796
aV1.3
p6797
aVnr
p6798
aVnr
p6799
aV0.8
p6800
aV0.8
p6801
aV0.7
p6802
aV1.3
p6803
aa(lp6804
V25-06-2018
p6805
aV1
aVnr
p6806
aVnr
p6807
aV1.6
p6808
aVnr
p6809
aV0.6
p6810
aVnr
p6811
aVnr
p6812
aVnr
p6813
aV1.2
p6814
aVnr
p6815
aVnr
p6816
aV2
aV0.4
p6817
aV0.6
p6818
aV0.7
p6819
aV0.5
p6820
aVnr
p6821
aV0.7
p6822
aVnr
p6823
aVnr
p6824
aVnr
p6825
aV1.4
p6826
aV0.7
p6827
aV3.5
p6828
aVnr
p6829
aVnr
p6830
aVnr
p6831
aV0.1
p6832
aVnr
p6833
aVnr
p6834
aV0.5
p6835
aVnr
p6836
aVnr
p6837
aVnr
p6838
aVnr
p6839
aV1.4
p6840
aVnr
p6841
aVnr
p6842
aV1.7
p6843
aV1.5
p6844
aV1
aV0.6
p6845
aasS'wdr'
p6846
(lp6847
(lp6848
V24-06-2018
p6849
aV2
aV177
p6850
aV194
p6851
aV192
p6852
aVnr
p6853
aV257
p6854
aVnr
p6855
aVnr
p6856
aVnr
p6857
aV168
p6858
aVnr
p6859
aVnr
p6860
aV264
p6861
aV245
p6862
aV252
p6863
aV129
p6864
aV267
p6865
aVnr
p6866
aV257
p6867
aVnr
p6868
aVnr
p6869
aVnr
p6870
aV151
p6871
aV227
p6872
aV311
p6873
aV145
p6874
aV275
p6875
aVnr
p6876
aV162
p6877
aVnr
p6878
aVnr
p6879
aV79
p6880
aVnr
p6881
aVnr
p6882
aVnr
p6883
aVnr
p6884
aV198
p6885
aVnr
p6886
aVnr
p6887
aV110
p6888
aV122
p6889
aV314
p6890
aV133
p6891
aa(lp6892
V24-06-2018
p6893
aV3
aV181
p6894
aV324
p6895
aV189
p6896
aVnr
p6897
aV60
p6898
aVnr
p6899
aVnr
p6900
aVnr
p6901
aV162
p6902
aVnr
p6903
aVnr
p6904
aV258
p6905
aV191
p6906
aV233
p6907
aV122
p6908
aV251
p6909
aVnr
p6910
aV54
p6911
aVnr
p6912
aVnr
p6913
aVnr
p6914
aV118
p6915
aV268
p6916
aV89
p6917
aV141
p6918
aV303
p6919
aVnr
p6920
aV157
p6921
aVnr
p6922
aVnr
p6923
aV310
p6924
aVnr
p6925
aVnr
p6926
aVnr
p6927
aVnr
p6928
aV149
p6929
aVnr
p6930
aVnr
p6931
aV108
p6932
aV88
p6933
aV306
p6934
aV139
p6935
aa(lp6936
V24-06-2018
p6937
aV4
aV171
p6938
aV259
p6939
aV176
p6940
aVnr
p6941
aV81
p6942
aVnr
p6943
aVnr
p6944
aVnr
p6945
aV169
p6946
aVnr
p6947
aVnr
p6948
aV249
p6949
aV248
p6950
aV263
p6951
aV118
p6952
aV37
p6953
aVnr
p6954
aV112
p6955
aVnr
p6956
aVnr
p6957
aVnr
p6958
aV104
p6959
aV168
p6960
aV138
p6961
aV142
p6962
aV20
p6963
aVnr
p6964
aVnr
p6965
aVnr
p6966
aVnr
p6967
aV279
p6968
aVnr
p6969
aVnr
p6970
aVnr
p6971
aVnr
p6972
aV107
p6973
aVnr
p6974
aVnr
p6975
aV119
p6976
aV64
p6977
aV335
p6978
aV122
p6979
aa(lp6980
V24-06-2018
p6981
aV5
aV358
p6982
aV263
p6983
aV176
p6984
aVnr
p6985
aV154
p6986
aVnr
p6987
aVnr
p6988
aVnr
p6989
aV164
p6990
aVnr
p6991
aVnr
p6992
aV184
p6993
aV51
p6994
aV250
p6995
aV125
p6996
aV49
p6997
aVnr
p6998
aV129
p6999
aVnr
p7000
aVnr
p7001
aVnr
p7002
aV110
p7003
aV218
p7004
aV160
p7005
aV143
p7006
aV46
p7007
aVnr
p7008
aV199
p7009
aVnr
p7010
aVnr
p7011
aV272
p7012
aVnr
p7013
aVnr
p7014
aVnr
p7015
aVnr
p7016
aV125
p7017
aVnr
p7018
aVnr
p7019
aV104
p7020
aV47
p7021
aV108
p7022
aV89
p7023
aa(lp7024
V24-06-2018
p7025
aV6
aV1
aV263
p7026
aV218
p7027
aVnr
p7028
aV176
p7029
aVnr
p7030
aVnr
p7031
aVnr
p7032
aV41
p7033
aVnr
p7034
aVnr
p7035
aV219
p7036
aV294
p7037
aV249
p7038
aV59
p7039
aV92
p7040
aVnr
p7041
aV140
p7042
aVnr
p7043
aVnr
p7044
aVnr
p7045
aV139
p7046
aV238
p7047
aV162
p7048
aV150
p7049
aV208
p7050
aVnr
p7051
aV250
p7052
aVnr
p7053
aVnr
p7054
aV245
p7055
aVnr
p7056
aVnr
p7057
aVnr
p7058
aVnr
p7059
aV129
p7060
aVnr
p7061
aVnr
p7062
aV206
p7063
aV268
p7064
aV240
p7065
aV356
p7066
aa(lp7067
V24-06-2018
p7068
aV7
aV24
p7069
aV259
p7070
aVnr
p7071
aVnr
p7072
aV219
p7073
aVnr
p7074
aVnr
p7075
aVnr
p7076
aV40
p7077
aVnr
p7078
aVnr
p7079
aV247
p7080
aV194
p7081
aV265
p7082
aV124
p7083
aV211
p7084
aVnr
p7085
aV145
p7086
aVnr
p7087
aVnr
p7088
aVnr
p7089
aV216
p7090
aV262
p7091
aV157
p7092
aV149
p7093
aV238
p7094
aVnr
p7095
aV82
p7096
aVnr
p7097
aVnr
p7098
aV172
p7099
aVnr
p7100
aVnr
p7101
aV311
p7102
aVnr
p7103
aV261
p7104
aVnr
p7105
aVnr
p7106
aV216
p7107
aV215
p7108
aV295
p7109
aV30
p7110
aa(lp7111
V24-06-2018
p7112
aV8
aV13
p7113
aV313
p7114
aV201
p7115
aVnr
p7116
aV261
p7117
aVnr
p7118
aVnr
p7119
aVnr
p7120
aV103
p7121
aVnr
p7122
aVnr
p7123
aV11
p7124
aV203
p7125
aV346
p7126
aV54
p7127
aV248
p7128
aVnr
p7129
aV122
p7130
aVnr
p7131
aVnr
p7132
aVnr
p7133
aV257
p7134
aV323
p7135
aV107
p7136
aV319
p7137
aV262
p7138
aVnr
p7139
aV72
p7140
aVnr
p7141
aVnr
p7142
aV146
p7143
aVnr
p7144
aVnr
p7145
aV294
p7146
aVnr
p7147
aV294
p7148
aVnr
p7149
aVnr
p7150
aV338
p7151
aV245
p7152
aV326
p7153
aV102
p7154
aa(lp7155
V24-06-2018
p7156
aV9
aV329
p7157
aV341
p7158
aV27
p7159
aVnr
p7160
aV19
p7161
aVnr
p7162
aVnr
p7163
aVnr
p7164
aV149
p7165
aVnr
p7166
aVnr
p7167
aV37
p7168
aV50
p7169
aV6
aV33
p7170
aV338
p7171
aVnr
p7172
aV324
p7173
aVnr
p7174
aVnr
p7175
aVnr
p7176
aV333
p7177
aV28
p7178
aV344
p7179
aV348
p7180
aV313
p7181
aVnr
p7182
aV108
p7183
aVnr
p7184
aVnr
p7185
aV145
p7186
aVnr
p7187
aVnr
p7188
aV313
p7189
aVnr
p7190
aV352
p7191
aVnr
p7192
aVnr
p7193
aV85
p7194
aV214
p7195
aV330
p7196
aV87
p7197
aa(lp7198
V24-06-2018
p7199
aV10
p7200
aV179
p7201
aV9
aV30
p7202
aVnr
p7203
aV27
p7204
aVnr
p7205
aVnr
p7206
aVnr
p7207
aV231
p7208
aVnr
p7209
aVnr
p7210
aV55
p7211
aV13
p7212
aV113
p7213
aV74
p7214
aV334
p7215
aVnr
p7216
aV303
p7217
aVnr
p7218
aVnr
p7219
aVnr
p7220
aV283
p7221
aV293
p7222
aV332
p7223
aV70
p7224
aV15
p7225
aVnr
p7226
aV65
p7227
aVnr
p7228
aVnr
p7229
aV334
p7230
aVnr
p7231
aVnr
p7232
aV327
p7233
aVnr
p7234
aV212
p7235
aVnr
p7236
aVnr
p7237
aV47
p7238
aV218
p7239
aV357
p7240
aV83
p7241
aa(lp7242
V24-06-2018
p7243
aV11
p7244
aV225
p7245
aV36
p7246
aV85
p7247
aVnr
p7248
aV43
p7249
aVnr
p7250
aVnr
p7251
aVnr
p7252
aV285
p7253
aVnr
p7254
aVnr
p7255
aV72
p7256
aV29
p7257
aV91
p7258
aV36
p7259
aV37
p7260
aVnr
p7261
aV310
p7262
aVnr
p7263
aVnr
p7264
aVnr
p7265
aV295
p7266
aV99
p7267
aV334
p7268
aV54
p7269
aV78
p7270
aVnr
p7271
aV35
p7272
aVnr
p7273
aVnr
p7274
aV55
p7275
aVnr
p7276
aVnr
p7277
aV351
p7278
aVnr
p7279
aV238
p7280
aVnr
p7281
aVnr
p7282
aV79
p7283
aV355
p7284
aV307
p7285
aV72
p7286
aa(lp7287
V24-06-2018
p7288
aV12
p7289
aV319
p7290
aV54
p7291
aV27
p7292
aVnr
p7293
aV54
p7294
aVnr
p7295
aVnr
p7296
aVnr
p7297
aV330
p7298
aVnr
p7299
aVnr
p7300
aV72
p7301
aV56
p7302
aV71
p7303
aV33
p7304
aV297
p7305
aVnr
p7306
aV291
p7307
aVnr
p7308
aVnr
p7309
aVnr
p7310
aV346
p7311
aV93
p7312
aV1
aV19
p7313
aV68
p7314
aVnr
p7315
aV39
p7316
aVnr
p7317
aVnr
p7318
aV190
p7319
aVnr
p7320
aVnr
p7321
aV358
p7322
aVnr
p7323
aV357
p7324
aVnr
p7325
aVnr
p7326
aV23
p7327
aV19
p7328
aV341
p7329
aV29
p7330
aa(lp7331
V24-06-2018
p7332
aV13
p7333
aV349
p7334
aV213
p7335
aVnr
p7336
aVnr
p7337
aV181
p7338
aVnr
p7339
aVnr
p7340
aVnr
p7341
aV338
p7342
aVnr
p7343
aVnr
p7344
aV135
p7345
aV48
p7346
aV25
p7347
aV11
p7348
aV18
p7349
aVnr
p7350
aV300
p7351
aVnr
p7352
aVnr
p7353
aVnr
p7354
aV35
p7355
aV77
p7356
aV91
p7357
aV56
p7358
aV219
p7359
aVnr
p7360
aV42
p7361
aVnr
p7362
aVnr
p7363
aV247
p7364
aVnr
p7365
aVnr
p7366
aV49
p7367
aVnr
p7368
aV344
p7369
aVnr
p7370
aVnr
p7371
aV119
p7372
aV8
aV348
p7373
aV22
p7374
aa(lp7375
V24-06-2018
p7376
aV14
p7377
aV23
p7378
aV162
p7379
aV109
p7380
aVnr
p7381
aV211
p7382
aVnr
p7383
aVnr
p7384
aVnr
p7385
aV35
p7386
aVnr
p7387
aVnr
p7388
aV248
p7389
aV5
aV295
p7390
aV33
p7391
aV150
p7392
aVnr
p7393
aV288
p7394
aVnr
p7395
aVnr
p7396
aVnr
p7397
aV147
p7398
aV247
p7399
aV224
p7400
aV38
p7401
aV229
p7402
aVnr
p7403
aV31
p7404
aVnr
p7405
aVnr
p7406
aV130
p7407
aVnr
p7408
aVnr
p7409
aV204
p7410
aVnr
p7411
aV272
p7412
aVnr
p7413
aVnr
p7414
aV189
p7415
aV217
p7416
aV356
p7417
aV47
p7418
aa(lp7419
V24-06-2018
p7420
aV15
p7421
aV179
p7422
aV287
p7423
aV207
p7424
aVnr
p7425
aV1
aVnr
p7426
aVnr
p7427
aVnr
p7428
aV182
p7429
aVnr
p7430
aVnr
p7431
aV255
p7432
aV251
p7433
aV187
p7434
aV214
p7435
aV318
p7436
aVnr
p7437
aV230
p7438
aVnr
p7439
aVnr
p7440
aVnr
p7441
aV308
p7442
aV50
p7443
aV201
p7444
aV289
p7445
aV302
p7446
aVnr
p7447
aV199
p7448
aVnr
p7449
aVnr
p7450
aV38
p7451
aVnr
p7452
aVnr
p7453
aV223
p7454
aVnr
p7455
aV127
p7456
aVnr
p7457
aVnr
p7458
aV291
p7459
aV357
p7460
aV269
p7461
aV235
p7462
aa(lp7463
V24-06-2018
p7464
aV16
p7465
aV199
p7466
aV333
p7467
aV1
aVnr
p7468
aV7
aVnr
p7469
aVnr
p7470
aVnr
p7471
aV334
p7472
aVnr
p7473
aVnr
p7474
aV261
p7475
aV210
p7476
aV134
p7477
aV57
p7478
aV347
p7479
aVnr
p7480
aV147
p7481
aVnr
p7482
aVnr
p7483
aVnr
p7484
aV18
p7485
aV298
p7486
aV291
p7487
aV1
aV328
p7488
aVnr
p7489
aV222
p7490
aVnr
p7491
aVnr
p7492
aV278
p7493
aVnr
p7494
aVnr
p7495
aV314
p7496
aVnr
p7497
aV103
p7498
aVnr
p7499
aVnr
p7500
aV348
p7501
aV11
p7502
aV157
p7503
aV149
p7504
aa(lp7505
V24-06-2018
p7506
aV17
p7507
aV171
p7508
aV283
p7509
aV17
p7510
aVnr
p7511
aV260
p7512
aVnr
p7513
aVnr
p7514
aVnr
p7515
aV97
p7516
aVnr
p7517
aVnr
p7518
aV273
p7519
aV244
p7520
aV224
p7521
aV202
p7522
aV210
p7523
aVnr
p7524
aV135
p7525
aVnr
p7526
aVnr
p7527
aVnr
p7528
aV232
p7529
aV251
p7530
aV264
p7531
aV136
p7532
aV254
p7533
aVnr
p7534
aV222
p7535
aVnr
p7536
aVnr
p7537
aV25
p7538
aVnr
p7539
aVnr
p7540
aV299
p7541
aVnr
p7542
aV189
p7543
aVnr
p7544
aVnr
p7545
aV267
p7546
aV188
p7547
aV146
p7548
aV283
p7549
aa(lp7550
V24-06-2018
p7551
aV18
p7552
aV66
p7553
aV188
p7554
aV73
p7555
aVnr
p7556
aV214
p7557
aVnr
p7558
aVnr
p7559
aVnr
p7560
aV215
p7561
aVnr
p7562
aVnr
p7563
aV229
p7564
aV352
p7565
aV228
p7566
aV249
p7567
aV239
p7568
aVnr
p7569
aV193
p7570
aVnr
p7571
aVnr
p7572
aVnr
p7573
aV221
p7574
aV258
p7575
aV322
p7576
aV241
p7577
aV258
p7578
aVnr
p7579
aV263
p7580
aVnr
p7581
aVnr
p7582
aV82
p7583
aVnr
p7584
aVnr
p7585
aV286
p7586
aVnr
p7587
aV162
p7588
aVnr
p7589
aVnr
p7590
aV175
p7591
aV249
p7592
aV301
p7593
aV311
p7594
aa(lp7595
V24-06-2018
p7596
aV19
p7597
aV36
p7598
aV118
p7599
aV203
p7600
aVnr
p7601
aV16
p7602
aVnr
p7603
aVnr
p7604
aVnr
p7605
aV24
p7606
aVnr
p7607
aVnr
p7608
aV303
p7609
aV354
p7610
aV257
p7611
aV10
p7612
aV300
p7613
aVnr
p7614
aV184
p7615
aVnr
p7616
aVnr
p7617
aVnr
p7618
aV9
aV330
p7619
aV147
p7620
aV44
p7621
aV214
p7622
aVnr
p7623
aV6
aVnr
p7624
aVnr
p7625
aV269
p7626
aVnr
p7627
aVnr
p7628
aV24
p7629
aVnr
p7630
aV21
p7631
aVnr
p7632
aVnr
p7633
aV120
p7634
aV33
p7635
aV15
p7636
aV21
p7637
aa(lp7638
V24-06-2018
p7639
aV20
p7640
aV53
p7641
aV57
p7642
aVnr
p7643
aVnr
p7644
aV15
p7645
aVnr
p7646
aVnr
p7647
aVnr
p7648
aV54
p7649
aVnr
p7650
aVnr
p7651
aV336
p7652
aV209
p7653
aV19
p7654
aV17
p7655
aV341
p7656
aVnr
p7657
aV119
p7658
aVnr
p7659
aVnr
p7660
aVnr
p7661
aV25
p7662
aV21
p7663
aV164
p7664
aV68
p7665
aV31
p7666
aVnr
p7667
aV36
p7668
aVnr
p7669
aVnr
p7670
aV246
p7671
aVnr
p7672
aVnr
p7673
aVnr
p7674
aVnr
p7675
aV359
p7676
aVnr
p7677
aVnr
p7678
aV67
p7679
aV45
p7680
aV129
p7681
aV17
p7682
aa(lp7683
V24-06-2018
p7684
aV21
p7685
aV125
p7686
aV343
p7687
aVnr
p7688
aVnr
p7689
aV36
p7690
aVnr
p7691
aVnr
p7692
aVnr
p7693
aV103
p7694
aVnr
p7695
aVnr
p7696
aV252
p7697
aV249
p7698
aV224
p7699
aV66
p7700
aVnr
p7701
aVnr
p7702
aV142
p7703
aVnr
p7704
aVnr
p7705
aVnr
p7706
aV54
p7707
aV268
p7708
aV206
p7709
aV89
p7710
aV306
p7711
aVnr
p7712
aV127
p7713
aVnr
p7714
aVnr
p7715
aV317
p7716
aVnr
p7717
aVnr
p7718
aVnr
p7719
aVnr
p7720
aV162
p7721
aVnr
p7722
aVnr
p7723
aV47
p7724
aV72
p7725
aV125
p7726
aV70
p7727
aa(lp7728
V24-06-2018
p7729
aV22
p7730
aV349
p7731
aV214
p7732
aV199
p7733
aVnr
p7734
aV160
p7735
aVnr
p7736
aVnr
p7737
aVnr
p7738
aV178
p7739
aVnr
p7740
aVnr
p7741
aV234
p7742
aV341
p7743
aV232
p7744
aV289
p7745
aV74
p7746
aVnr
p7747
aV139
p7748
aVnr
p7749
aVnr
p7750
aVnr
p7751
aV179
p7752
aV230
p7753
aV164
p7754
aV151
p7755
aV224
p7756
aVnr
p7757
aV337
p7758
aVnr
p7759
aVnr
p7760
aV330
p7761
aVnr
p7762
aVnr
p7763
aVnr
p7764
aVnr
p7765
aV155
p7766
aVnr
p7767
aVnr
p7768
aV144
p7769
aV158
p7770
aV12
p7771
aV348
p7772
aa(lp7773
V24-06-2018
p7774
aV23
p7775
aV18
p7776
aV179
p7777
aVnr
p7778
aVnr
p7779
aV252
p7780
aVnr
p7781
aVnr
p7782
aVnr
p7783
aV142
p7784
aVnr
p7785
aVnr
p7786
aV258
p7787
aV282
p7788
aV264
p7789
aV355
p7790
aV301
p7791
aVnr
p7792
aV145
p7793
aVnr
p7794
aVnr
p7795
aVnr
p7796
aV1
aV287
p7797
aV178
p7798
aVnr
p7799
aV236
p7800
aVnr
p7801
aV32
p7802
aVnr
p7803
aVnr
p7804
aV158
p7805
aVnr
p7806
aVnr
p7807
aVnr
p7808
aVnr
p7809
aV24
p7810
aVnr
p7811
aVnr
p7812
aV144
p7813
aV204
p7814
aV37
p7815
aV7
aa(lp7816
V24-06-2018
p7817
aV24
p7818
aV9
aV234
p7819
aVnr
p7820
aVnr
p7821
aV348
p7822
aVnr
p7823
aVnr
p7824
aVnr
p7825
aV138
p7826
aVnr
p7827
aVnr
p7828
aV266
p7829
aV283
p7830
aV252
p7831
aV38
p7832
aV307
p7833
aVnr
p7834
aV157
p7835
aVnr
p7836
aVnr
p7837
aVnr
p7838
aV332
p7839
aV283
p7840
aV149
p7841
aVnr
p7842
aV227
p7843
aVnr
p7844
aV46
p7845
aVnr
p7846
aVnr
p7847
aV71
p7848
aVnr
p7849
aVnr
p7850
aVnr
p7851
aVnr
p7852
aV301
p7853
aVnr
p7854
aVnr
p7855
aV97
p7856
aV300
p7857
aV26
p7858
aV36
p7859
aa(lp7860
V25-06-2018
p7861
aV1
aV353
p7862
aV196
p7863
aV209
p7864
aVnr
p7865
aV77
p7866
aVnr
p7867
aVnr
p7868
aVnr
p7869
aV143
p7870
aVnr
p7871
aVnr
p7872
aV247
p7873
aV276
p7874
aV242
p7875
aV94
p7876
aV343
p7877
aVnr
p7878
aV158
p7879
aVnr
p7880
aVnr
p7881
aVnr
p7882
aV353
p7883
aV277
p7884
aV164
p7885
aVnr
p7886
aV201
p7887
aVnr
p7888
aV213
p7889
aVnr
p7890
aVnr
p7891
aV318
p7892
aVnr
p7893
aVnr
p7894
aVnr
p7895
aVnr
p7896
aV322
p7897
aVnr
p7898
aVnr
p7899
aV126
p7900
aV205
p7901
aV320
p7902
aV4
aasS'so2'
p7903
(lp7904
(lp7905
V24-06-2018
p7906
aV2
aV0
aV0
aVnr
p7907
aVnr
p7908
aV1
aVnr
p7909
aV4
aV0
aV1
aVnr
p7910
aV1
aVnr
p7911
aVnr
p7912
aV1
aV0
aV1
aVnr
p7913
aV1
aV0
aV0
aVnr
p7914
aV0
aV1
aVnr
p7915
aV1
aV1
aV0
aV1
aV1
aVnr
p7916
aV0
aV0
aVnr
p7917
aVnr
p7918
aVnr
p7919
aVnr
p7920
aVnr
p7921
aVnr
p7922
aV3
aVnr
p7923
aVnr
p7924
aV0
aV1
aVnr
p7925
aV2
aV2
aa(lp7926
V24-06-2018
p7927
aV3
aV0
aV0
aVnr
p7928
aVnr
p7929
aV1
aVnr
p7930
aV4
aV0
aV1
aVnr
p7931
aV1
aVnr
p7932
aVnr
p7933
aV1
aV0
aV1
aVnr
p7934
aV0
aV0
aV0
aVnr
p7935
aV1
aV1
aVnr
p7936
aV1
aV1
aV0
aV0
aV1
aVnr
p7937
aV0
aV0
aVnr
p7938
aVnr
p7939
aVnr
p7940
aVnr
p7941
aVnr
p7942
aVnr
p7943
aV3
aVnr
p7944
aVnr
p7945
aV0
aV1
aVnr
p7946
aV2
aV2
aa(lp7947
V24-06-2018
p7948
aV4
aV0
aV0
aVnr
p7949
aVnr
p7950
aV1
aVnr
p7951
aV4
aV0
aV1
aVnr
p7952
aV1
aVnr
p7953
aVnr
p7954
aV1
aV0
aV1
aVnr
p7955
aV0
aV0
aV0
aVnr
p7956
aV1
aV1
aVnr
p7957
aV1
aV1
aV0
aV1
aV1
aVnr
p7958
aV0
aV0
aVnr
p7959
aVnr
p7960
aVnr
p7961
aVnr
p7962
aVnr
p7963
aVnr
p7964
aV3
aV4
aVnr
p7965
aV0
aV1
aVnr
p7966
aV2
aV2
aa(lp7967
V24-06-2018
p7968
aV5
aV0
aV0
aVnr
p7969
aVnr
p7970
aV0
aVnr
p7971
aV4
aV0
aV1
aVnr
p7972
aV1
aVnr
p7973
aVnr
p7974
aV1
aV0
aV1
aVnr
p7975
aV0
aV0
aV0
aVnr
p7976
aV0
aV1
aVnr
p7977
aV1
aV0
aV0
aV1
aV1
aVnr
p7978
aV0
aV0
aVnr
p7979
aVnr
p7980
aVnr
p7981
aVnr
p7982
aVnr
p7983
aVnr
p7984
aV3
aV4
aVnr
p7985
aV0
aV1
aVnr
p7986
aV1
aV2
aa(lp7987
V24-06-2018
p7988
aV6
aV0
aV0
aVnr
p7989
aVnr
p7990
aV1
aVnr
p7991
aV2
aV1
aV1
aVnr
p7992
aV0
aVnr
p7993
aVnr
p7994
aV1
aV1
aV1
aVnr
p7995
aV0
aV1
aV0
aVnr
p7996
aV1
aV1
aVnr
p7997
aV1
aV1
aV0
aV1
aV1
aVnr
p7998
aV0
aV0
aVnr
p7999
aVnr
p8000
aVnr
p8001
aVnr
p8002
aVnr
p8003
aVnr
p8004
aV3
aV4
aVnr
p8005
aV0
aV1
aVnr
p8006
aV2
aV2
aa(lp8007
V24-06-2018
p8008
aV7
aV0
aV0
aVnr
p8009
aVnr
p8010
aV1
aVnr
p8011
aV2
aV1
aV1
aVnr
p8012
aV1
aVnr
p8013
aVnr
p8014
aV2
aV1
aV1
aVnr
p8015
aV1
aV1
aV0
aVnr
p8016
aV1
aV1
aVnr
p8017
aV2
aV1
aV0
aV1
aV1
aVnr
p8018
aV0
aV0
aVnr
p8019
aVnr
p8020
aVnr
p8021
aV1
aVnr
p8022
aVnr
p8023
aV4
aV3
aVnr
p8024
aV0
aV1
aVnr
p8025
aV2
aV2
aa(lp8026
V24-06-2018
p8027
aV8
aV0
aV0
aVnr
p8028
aVnr
p8029
aV1
aVnr
p8030
aV3
aV2
aV1
aVnr
p8031
aV1
aVnr
p8032
aVnr
p8033
aV1
aV2
aV1
aVnr
p8034
aV1
aV1
aV0
aVnr
p8035
aV1
aV1
aVnr
p8036
aV2
aV1
aV0
aV1
aV1
aVnr
p8037
aV1
aV0
aVnr
p8038
aVnr
p8039
aVnr
p8040
aV1
aVnr
p8041
aVnr
p8042
aV4
aV4
aVnr
p8043
aV0
aV1
aVnr
p8044
aV3
aV2
aa(lp8045
V24-06-2018
p8046
aV9
aV1
aV0
aVnr
p8047
aVnr
p8048
aV3
aVnr
p8049
aV1
aV3
aV1
aVnr
p8050
aV1
aVnr
p8051
aVnr
p8052
aV1
aV2
aV1
aVnr
p8053
aV2
aV1
aV1
aVnr
p8054
aV1
aV1
aVnr
p8055
aV2
aV1
aV1
aV1
aV1
aVnr
p8056
aV1
aV0
aVnr
p8057
aVnr
p8058
aVnr
p8059
aV1
aVnr
p8060
aVnr
p8061
aV5
aV4
aVnr
p8062
aV0
aV1
aVnr
p8063
aV3
aV3
aa(lp8064
V24-06-2018
p8065
aV10
p8066
aV1
aV0
aVnr
p8067
aVnr
p8068
aV1
aVnr
p8069
aV2
aV2
aV1
aVnr
p8070
aV1
aVnr
p8071
aVnr
p8072
aV1
aV2
aV1
aVnr
p8073
aV1
aV1
aV1
aVnr
p8074
aV2
aV1
aVnr
p8075
aV2
aV1
aV1
aV2
aV1
aVnr
p8076
aV0
aV0
aVnr
p8077
aVnr
p8078
aVnr
p8079
aV1
aVnr
p8080
aVnr
p8081
aV5
aV5
aVnr
p8082
aV0
aV2
aVnr
p8083
aV3
aV4
aa(lp8084
V24-06-2018
p8085
aV11
p8086
aV1
aV0
aVnr
p8087
aVnr
p8088
aV1
aVnr
p8089
aV3
aV1
aV2
aVnr
p8090
aV1
aVnr
p8091
aVnr
p8092
aV1
aV1
aV2
aVnr
p8093
aV1
aV1
aV1
aVnr
p8094
aV2
aV2
aVnr
p8095
aV2
aV1
aV0
aV2
aV1
aVnr
p8096
aV1
aV0
aVnr
p8097
aVnr
p8098
aVnr
p8099
aV1
aVnr
p8100
aVnr
p8101
aV5
aV4
aVnr
p8102
aV1
aV2
aVnr
p8103
aV2
aV3
aa(lp8104
V24-06-2018
p8105
aV12
p8106
aV1
aV0
aVnr
p8107
aVnr
p8108
aV1
aVnr
p8109
aV3
aV1
aV2
aVnr
p8110
aV1
aVnr
p8111
aVnr
p8112
aV1
aV3
aV2
aVnr
p8113
aV1
aV1
aV1
aVnr
p8114
aV1
aV2
aVnr
p8115
aV2
aV2
aV1
aV2
aV1
aVnr
p8116
aV1
aV0
aVnr
p8117
aVnr
p8118
aVnr
p8119
aV1
aVnr
p8120
aVnr
p8121
aV5
aV4
aVnr
p8122
aV1
aV2
aVnr
p8123
aV6
aV4
aa(lp8124
V24-06-2018
p8125
aV13
p8126
aV1
aV0
aVnr
p8127
aVnr
p8128
aV1
aVnr
p8129
aV3
aV1
aV2
aVnr
p8130
aV1
aVnr
p8131
aVnr
p8132
aV2
aV2
aV2
aVnr
p8133
aV1
aV1
aV1
aVnr
p8134
aV1
aV2
aVnr
p8135
aV2
aV1
aV1
aV2
aV1
aVnr
p8136
aV1
aV0
aVnr
p8137
aVnr
p8138
aVnr
p8139
aV1
aVnr
p8140
aVnr
p8141
aV3
aV7
aVnr
p8142
aV1
aV2
aVnr
p8143
aV10
p8144
aV3
aa(lp8145
V24-06-2018
p8146
aV14
p8147
aV1
aV0
aVnr
p8148
aVnr
p8149
aV1
aVnr
p8150
aV3
aV2
aV2
aVnr
p8151
aV1
aVnr
p8152
aVnr
p8153
aV1
aV1
aV1
aVnr
p8154
aVnr
p8155
aV1
aV1
aVnr
p8156
aV4
aV3
aVnr
p8157
aV3
aV1
aV1
aV2
aV1
aVnr
p8158
aV1
aV0
aVnr
p8159
aVnr
p8160
aVnr
p8161
aV1
aVnr
p8162
aVnr
p8163
aV5
aV7
aVnr
p8164
aV1
aV3
aVnr
p8165
aV3
aV3
aa(lp8166
V24-06-2018
p8167
aV15
p8168
aV1
aV1
aVnr
p8169
aVnr
p8170
aV0
aVnr
p8171
aV3
aV0
aV2
aVnr
p8172
aVnr
p8173
aVnr
p8174
aVnr
p8175
aV1
aV0
aVnr
p8176
aVnr
p8177
aVnr
p8178
aV1
aVnr
p8179
aVnr
p8180
aV3
aV1
aVnr
p8181
aV2
aV1
aV1
aV1
aV1
aVnr
p8182
aV1
aV0
aVnr
p8183
aVnr
p8184
aVnr
p8185
aV1
aVnr
p8186
aVnr
p8187
aV3
aV6
aVnr
p8188
aV1
aV2
aVnr
p8189
aV2
aV3
aa(lp8190
V24-06-2018
p8191
aV16
p8192
aV0
aV0
aVnr
p8193
aVnr
p8194
aV2
aVnr
p8195
aV1
aV0
aV1
aVnr
p8196
aV1
aVnr
p8197
aVnr
p8198
aV1
aV1
aV1
aVnr
p8199
aVnr
p8200
aV1
aV0
aVnr
p8201
aV1
aV1
aVnr
p8202
aV1
aV1
aV1
aV1
aV1
aVnr
p8203
aV0
aV0
aVnr
p8204
aVnr
p8205
aVnr
p8206
aV1
aVnr
p8207
aVnr
p8208
aV5
aV4
aVnr
p8209
aV0
aV1
aVnr
p8210
aV2
aV2
aa(lp8211
V24-06-2018
p8212
aV17
p8213
aV0
aV0
aVnr
p8214
aVnr
p8215
aV1
aVnr
p8216
aV2
aV1
aV2
aVnr
p8217
aV1
aVnr
p8218
aVnr
p8219
aV1
aV0
aV1
aVnr
p8220
aV1
aV1
aV0
aVnr
p8221
aV1
aV1
aVnr
p8222
aV2
aV1
aV0
aV1
aV1
aVnr
p8223
aV0
aV0
aVnr
p8224
aVnr
p8225
aVnr
p8226
aV1
aVnr
p8227
aVnr
p8228
aV3
aV4
aVnr
p8229
aV1
aV2
aVnr
p8230
aV2
aV2
aa(lp8231
V24-06-2018
p8232
aV18
p8233
aV0
aV0
aVnr
p8234
aVnr
p8235
aVnr
p8236
aVnr
p8237
aV3
aV1
aV2
aVnr
p8238
aV1
aVnr
p8239
aVnr
p8240
aV1
aV0
aV1
aVnr
p8241
aV1
aV1
aV0
aVnr
p8242
aV1
aV1
aVnr
p8243
aV2
aV1
aV1
aV1
aV1
aVnr
p8244
aV0
aV0
aVnr
p8245
aVnr
p8246
aVnr
p8247
aV1
aVnr
p8248
aVnr
p8249
aV3
aV4
aVnr
p8250
aV1
aV1
aVnr
p8251
aV2
aV3
aa(lp8252
V24-06-2018
p8253
aV19
p8254
aV0
aV0
aVnr
p8255
aVnr
p8256
aV0
aVnr
p8257
aV3
aV0
aV2
aVnr
p8258
aV1
aVnr
p8259
aVnr
p8260
aV1
aV0
aV1
aVnr
p8261
aV1
aV1
aV1
aVnr
p8262
aV1
aV1
aVnr
p8263
aV2
aV1
aV1
aV1
aV1
aVnr
p8264
aV0
aV0
aVnr
p8265
aVnr
p8266
aVnr
p8267
aV1
aVnr
p8268
aVnr
p8269
aV4
aV3
aVnr
p8270
aV1
aV2
aVnr
p8271
aV2
aV2
aa(lp8272
V24-06-2018
p8273
aV20
p8274
aV1
aV0
aVnr
p8275
aVnr
p8276
aV0
aVnr
p8277
aV4
aV0
aV2
aVnr
p8278
aV1
aVnr
p8279
aVnr
p8280
aV1
aV1
aV1
aVnr
p8281
aV1
aV1
aV1
aVnr
p8282
aV1
aV1
aVnr
p8283
aV2
aV1
aV1
aV1
aV1
aVnr
p8284
aV0
aV0
aVnr
p8285
aVnr
p8286
aVnr
p8287
aVnr
p8288
aVnr
p8289
aVnr
p8290
aV4
aV3
aVnr
p8291
aV1
aV2
aVnr
p8292
aV2
aV2
aa(lp8293
V24-06-2018
p8294
aV21
p8295
aV1
aV0
aVnr
p8296
aVnr
p8297
aV0
aVnr
p8298
aV3
aV1
aV2
aVnr
p8299
aV1
aVnr
p8300
aVnr
p8301
aV2
aV1
aV2
aVnr
p8302
aV1
aV0
aV1
aVnr
p8303
aV1
aV1
aVnr
p8304
aV2
aV1
aV0
aV1
aV1
aVnr
p8305
aV0
aV0
aVnr
p8306
aVnr
p8307
aVnr
p8308
aVnr
p8309
aVnr
p8310
aVnr
p8311
aV4
aV4
aVnr
p8312
aV1
aV1
aVnr
p8313
aV2
aV3
aa(lp8314
V24-06-2018
p8315
aV22
p8316
aV1
aV0
aVnr
p8317
aVnr
p8318
aV0
aVnr
p8319
aV3
aV1
aV1
aVnr
p8320
aV1
aVnr
p8321
aVnr
p8322
aV2
aV1
aV1
aVnr
p8323
aV1
aV1
aV1
aVnr
p8324
aV1
aV1
aVnr
p8325
aV2
aV1
aV0
aV1
aV1
aVnr
p8326
aV0
aV1
aVnr
p8327
aVnr
p8328
aVnr
p8329
aVnr
p8330
aVnr
p8331
aVnr
p8332
aV3
aV4
aVnr
p8333
aV1
aV1
aVnr
p8334
aV2
aV2
aa(lp8335
V24-06-2018
p8336
aV23
p8337
aV1
aV0
aVnr
p8338
aVnr
p8339
aV1
aVnr
p8340
aV3
aV1
aV1
aVnr
p8341
aV0
aVnr
p8342
aVnr
p8343
aV1
aV0
aV1
aVnr
p8344
aV1
aV0
aV1
aVnr
p8345
aV1
aV1
aVnr
p8346
aV2
aV1
aV0
aVnr
p8347
aV1
aVnr
p8348
aV1
aV0
aVnr
p8349
aVnr
p8350
aVnr
p8351
aVnr
p8352
aVnr
p8353
aVnr
p8354
aV3
aV4
aVnr
p8355
aV1
aV1
aVnr
p8356
aV3
aV3
aa(lp8357
V24-06-2018
p8358
aV24
p8359
aV1
aV0
aVnr
p8360
aVnr
p8361
aV5
aVnr
p8362
aV4
aV1
aV1
aVnr
p8363
aV0
aVnr
p8364
aVnr
p8365
aV1
aV0
aV1
aVnr
p8366
aV1
aV0
aV1
aVnr
p8367
aV1
aV1
aVnr
p8368
aV2
aV1
aV0
aVnr
p8369
aV1
aVnr
p8370
aV1
aV0
aVnr
p8371
aVnr
p8372
aVnr
p8373
aVnr
p8374
aVnr
p8375
aVnr
p8376
aV4
aV4
aVnr
p8377
aV1
aV2
aVnr
p8378
aV3
aV3
aa(lp8379
V25-06-2018
p8380
aV1
aV1
aV0
aVnr
p8381
aVnr
p8382
aV1
aVnr
p8383
aV4
aV0
aV1
aVnr
p8384
aV1
aVnr
p8385
aVnr
p8386
aV1
aV0
aV1
aVnr
p8387
aV1
aV1
aV1
aVnr
p8388
aV1
aV1
aVnr
p8389
aV2
aV1
aV0
aVnr
p8390
aV1
aVnr
p8391
aV0
aV0
aVnr
p8392
aVnr
p8393
aVnr
p8394
aVnr
p8395
aVnr
p8396
aVnr
p8397
aV3
aV4
aVnr
p8398
aV0
aV1
aVnr
p8399
aV2
aV3
aasS'nox'
p8400
(lp8401
(lp8402
V24-06-2018
p8403
aV2
aV5
aV2
aVnr
p8404
aV19
p8405
aVnr
p8406
aVnr
p8407
aV19
p8408
aV15
p8409
aVnr
p8410
aVnr
p8411
aVnr
p8412
aVnr
p8413
aVnr
p8414
aVnr
p8415
aV27
p8416
aVnr
p8417
aV44
p8418
aVnr
p8419
aV17
p8420
aVnr
p8421
aV7
aVnr
p8422
aV21
p8423
aV20
p8424
aVnr
p8425
aV7
aVnr
p8426
aVnr
p8427
aV12
p8428
aV13
p8429
aVnr
p8430
aVnr
p8431
aVnr
p8432
aVnr
p8433
aVnr
p8434
aVnr
p8435
aV42
p8436
aVnr
p8437
aVnr
p8438
aV7
aVnr
p8439
aV38
p8440
aV12
p8441
aa(lp8442
V24-06-2018
p8443
aV3
aV6
aV8
aVnr
p8444
aV20
p8445
aVnr
p8446
aVnr
p8447
aV22
p8448
aV19
p8449
aVnr
p8450
aVnr
p8451
aVnr
p8452
aVnr
p8453
aVnr
p8454
aVnr
p8455
aV27
p8456
aVnr
p8457
aV15
p8458
aVnr
p8459
aV21
p8460
aVnr
p8461
aV6
aVnr
p8462
aV18
p8463
aV10
p8464
aVnr
p8465
aV5
aV17
p8466
aVnr
p8467
aV12
p8468
aV10
p8469
aVnr
p8470
aVnr
p8471
aVnr
p8472
aVnr
p8473
aVnr
p8474
aVnr
p8475
aV36
p8476
aVnr
p8477
aVnr
p8478
aV6
aVnr
p8479
aV41
p8480
aV8
aa(lp8481
V24-06-2018
p8482
aV4
aV8
aV12
p8483
aVnr
p8484
aV25
p8485
aVnr
p8486
aVnr
p8487
aV21
p8488
aVnr
p8489
aVnr
p8490
aVnr
p8491
aVnr
p8492
aVnr
p8493
aVnr
p8494
aVnr
p8495
aV23
p8496
aVnr
p8497
aV14
p8498
aVnr
p8499
aV16
p8500
aVnr
p8501
aV8
aVnr
p8502
aV23
p8503
aV22
p8504
aVnr
p8505
aV6
aVnr
p8506
aVnr
p8507
aV10
p8508
aV11
p8509
aVnr
p8510
aVnr
p8511
aVnr
p8512
aVnr
p8513
aVnr
p8514
aVnr
p8515
aV25
p8516
aV18
p8517
aVnr
p8518
aV4
aVnr
p8519
aV31
p8520
aV9
aa(lp8521
V24-06-2018
p8522
aV5
aV14
p8523
aV11
p8524
aVnr
p8525
aV28
p8526
aVnr
p8527
aVnr
p8528
aV20
p8529
aVnr
p8530
aVnr
p8531
aVnr
p8532
aVnr
p8533
aVnr
p8534
aV27
p8535
aVnr
p8536
aV23
p8537
aVnr
p8538
aV24
p8539
aVnr
p8540
aV33
p8541
aVnr
p8542
aV15
p8543
aVnr
p8544
aV32
p8545
aV35
p8546
aVnr
p8547
aV11
p8548
aVnr
p8549
aVnr
p8550
aV14
p8551
aV18
p8552
aVnr
p8553
aVnr
p8554
aVnr
p8555
aVnr
p8556
aVnr
p8557
aVnr
p8558
aV20
p8559
aV41
p8560
aVnr
p8561
aV5
aV13
p8562
aV12
p8563
aV13
p8564
aa(lp8565
V24-06-2018
p8566
aV6
aV16
p8567
aV11
p8568
aVnr
p8569
aV31
p8570
aVnr
p8571
aVnr
p8572
aV50
p8573
aVnr
p8574
aVnr
p8575
aV21
p8576
aVnr
p8577
aVnr
p8578
aV27
p8579
aVnr
p8580
aV37
p8581
aVnr
p8582
aV30
p8583
aVnr
p8584
aV47
p8585
aVnr
p8586
aV45
p8587
aVnr
p8588
aV43
p8589
aV54
p8590
aVnr
p8591
aV18
p8592
aV11
p8593
aVnr
p8594
aV13
p8595
aV37
p8596
aVnr
p8597
aVnr
p8598
aVnr
p8599
aVnr
p8600
aVnr
p8601
aVnr
p8602
aV31
p8603
aV46
p8604
aVnr
p8605
aV12
p8606
aV22
p8607
aV38
p8608
aV33
p8609
aa(lp8610
V24-06-2018
p8611
aV7
aV31
p8612
aV10
p8613
aVnr
p8614
aV31
p8615
aVnr
p8616
aVnr
p8617
aV67
p8618
aV20
p8619
aVnr
p8620
aV41
p8621
aVnr
p8622
aVnr
p8623
aV57
p8624
aVnr
p8625
aV70
p8626
aVnr
p8627
aV60
p8628
aVnr
p8629
aV42
p8630
aVnr
p8631
aV59
p8632
aVnr
p8633
aV67
p8634
aV76
p8635
aVnr
p8636
aV31
p8637
aV28
p8638
aVnr
p8639
aV51
p8640
aV61
p8641
aVnr
p8642
aVnr
p8643
aVnr
p8644
aVnr
p8645
aVnr
p8646
aVnr
p8647
aV72
p8648
aV34
p8649
aVnr
p8650
aV16
p8651
aV23
p8652
aV45
p8653
aV43
p8654
aa(lp8655
V24-06-2018
p8656
aV8
aV21
p8657
aV17
p8658
aVnr
p8659
aV35
p8660
aVnr
p8661
aVnr
p8662
aV51
p8663
aV28
p8664
aVnr
p8665
aV26
p8666
aVnr
p8667
aVnr
p8668
aV31
p8669
aVnr
p8670
aV37
p8671
aVnr
p8672
aV54
p8673
aVnr
p8674
aV28
p8675
aVnr
p8676
aV66
p8677
aVnr
p8678
aV71
p8679
aV24
p8680
aVnr
p8681
aV46
p8682
aV15
p8683
aVnr
p8684
aV40
p8685
aV51
p8686
aVnr
p8687
aVnr
p8688
aVnr
p8689
aVnr
p8690
aVnr
p8691
aVnr
p8692
aV68
p8693
aV45
p8694
aVnr
p8695
aV19
p8696
aV22
p8697
aV25
p8698
aV28
p8699
aa(lp8700
V24-06-2018
p8701
aV9
aV16
p8702
aV15
p8703
aVnr
p8704
aV30
p8705
aVnr
p8706
aVnr
p8707
aV50
p8708
aV16
p8709
aVnr
p8710
aV5
aVnr
p8711
aVnr
p8712
aV16
p8713
aVnr
p8714
aV27
p8715
aVnr
p8716
aV36
p8717
aVnr
p8718
aV35
p8719
aVnr
p8720
aV50
p8721
aVnr
p8722
aV61
p8723
aV15
p8724
aVnr
p8725
aV49
p8726
aV13
p8727
aVnr
p8728
aV13
p8729
aV24
p8730
aVnr
p8731
aVnr
p8732
aVnr
p8733
aVnr
p8734
aVnr
p8735
aVnr
p8736
aV49
p8737
aV39
p8738
aVnr
p8739
aV21
p8740
aV25
p8741
aV31
p8742
aV33
p8743
aa(lp8744
V24-06-2018
p8745
aV10
p8746
aV11
p8747
aV12
p8748
aVnr
p8749
aV21
p8750
aVnr
p8751
aVnr
p8752
aV36
p8753
aV18
p8754
aVnr
p8755
aV8
aVnr
p8756
aVnr
p8757
aV19
p8758
aVnr
p8759
aV35
p8760
aVnr
p8761
aV35
p8762
aVnr
p8763
aV39
p8764
aVnr
p8765
aV21
p8766
aVnr
p8767
aV47
p8768
aV12
p8769
aVnr
p8770
aV42
p8771
aV14
p8772
aVnr
p8773
aV12
p8774
aV13
p8775
aVnr
p8776
aVnr
p8777
aVnr
p8778
aVnr
p8779
aVnr
p8780
aVnr
p8781
aV38
p8782
aV28
p8783
aVnr
p8784
aV19
p8785
aV33
p8786
aV29
p8787
aV28
p8788
aa(lp8789
V24-06-2018
p8790
aV11
p8791
aV8
aV14
p8792
aVnr
p8793
aV20
p8794
aVnr
p8795
aVnr
p8796
aV21
p8797
aV16
p8798
aVnr
p8799
aV11
p8800
aVnr
p8801
aVnr
p8802
aV15
p8803
aVnr
p8804
aV30
p8805
aVnr
p8806
aV29
p8807
aVnr
p8808
aV29
p8809
aVnr
p8810
aV20
p8811
aVnr
p8812
aV36
p8813
aV18
p8814
aVnr
p8815
aV44
p8816
aV13
p8817
aVnr
p8818
aV14
p8819
aV10
p8820
aVnr
p8821
aVnr
p8822
aVnr
p8823
aVnr
p8824
aVnr
p8825
aVnr
p8826
aV34
p8827
aV20
p8828
aVnr
p8829
aV14
p8830
aV35
p8831
aV13
p8832
aV26
p8833
aa(lp8834
V24-06-2018
p8835
aV12
p8836
aV7
aV13
p8837
aVnr
p8838
aV14
p8839
aVnr
p8840
aVnr
p8841
aV13
p8842
aV17
p8843
aVnr
p8844
aV6
aVnr
p8845
aVnr
p8846
aV13
p8847
aVnr
p8848
aV29
p8849
aVnr
p8850
aV16
p8851
aVnr
p8852
aV21
p8853
aVnr
p8854
aV16
p8855
aVnr
p8856
aV28
p8857
aV17
p8858
aVnr
p8859
aV30
p8860
aV12
p8861
aVnr
p8862
aV18
p8863
aV13
p8864
aVnr
p8865
aVnr
p8866
aVnr
p8867
aVnr
p8868
aVnr
p8869
aVnr
p8870
aV29
p8871
aV15
p8872
aVnr
p8873
aV18
p8874
aV32
p8875
aV9
aV30
p8876
aa(lp8877
V24-06-2018
p8878
aV13
p8879
aV7
aV12
p8880
aVnr
p8881
aV14
p8882
aVnr
p8883
aVnr
p8884
aV17
p8885
aV12
p8886
aVnr
p8887
aV3
aVnr
p8888
aVnr
p8889
aV15
p8890
aVnr
p8891
aV25
p8892
aVnr
p8893
aV19
p8894
aVnr
p8895
aV22
p8896
aVnr
p8897
aV8
aVnr
p8898
aV20
p8899
aV12
p8900
aVnr
p8901
aV13
p8902
aV13
p8903
aVnr
p8904
aV14
p8905
aV10
p8906
aVnr
p8907
aVnr
p8908
aVnr
p8909
aVnr
p8910
aVnr
p8911
aVnr
p8912
aV20
p8913
aV13
p8914
aVnr
p8915
aV17
p8916
aV23
p8917
aV7
aV23
p8918
aa(lp8919
V24-06-2018
p8920
aV14
p8921
aV6
aV11
p8922
aVnr
p8923
aV11
p8924
aVnr
p8925
aVnr
p8926
aV18
p8927
aV11
p8928
aVnr
p8929
aV4
aVnr
p8930
aVnr
p8931
aV27
p8932
aVnr
p8933
aV12
p8934
aVnr
p8935
aVnr
p8936
aVnr
p8937
aV19
p8938
aVnr
p8939
aV6
aVnr
p8940
aV21
p8941
aV19
p8942
aVnr
p8943
aV8
aV13
p8944
aVnr
p8945
aV11
p8946
aV16
p8947
aVnr
p8948
aVnr
p8949
aVnr
p8950
aVnr
p8951
aVnr
p8952
aVnr
p8953
aV18
p8954
aV12
p8955
aVnr
p8956
aV13
p8957
aV18
p8958
aV5
aV18
p8959
aa(lp8960
V24-06-2018
p8961
aV15
p8962
aV7
aV12
p8963
aVnr
p8964
aV9
aVnr
p8965
aVnr
p8966
aV17
p8967
aV12
p8968
aVnr
p8969
aVnr
p8970
aVnr
p8971
aVnr
p8972
aV20
p8973
aVnr
p8974
aV17
p8975
aVnr
p8976
aVnr
p8977
aVnr
p8978
aVnr
p8979
aVnr
p8980
aV12
p8981
aVnr
p8982
aV26
p8983
aV20
p8984
aVnr
p8985
aV24
p8986
aV14
p8987
aVnr
p8988
aV18
p8989
aV19
p8990
aVnr
p8991
aVnr
p8992
aVnr
p8993
aVnr
p8994
aVnr
p8995
aVnr
p8996
aV18
p8997
aV23
p8998
aVnr
p8999
aV11
p9000
aV20
p9001
aV9
aV32
p9002
aa(lp9003
V24-06-2018
p9004
aV16
p9005
aV17
p9006
aV20
p9007
aVnr
p9008
aV22
p9009
aVnr
p9010
aVnr
p9011
aV27
p9012
aV14
p9013
aVnr
p9014
aV5
aVnr
p9015
aVnr
p9016
aV29
p9017
aVnr
p9018
aV24
p9019
aVnr
p9020
aVnr
p9021
aVnr
p9022
aV28
p9023
aVnr
p9024
aV25
p9025
aVnr
p9026
aV35
p9027
aV20
p9028
aVnr
p9029
aV26
p9030
aV17
p9031
aVnr
p9032
aV21
p9033
aV27
p9034
aVnr
p9035
aVnr
p9036
aVnr
p9037
aVnr
p9038
aVnr
p9039
aVnr
p9040
aV35
p9041
aV14
p9042
aVnr
p9043
aV19
p9044
aV30
p9045
aV13
p9046
aV45
p9047
aa(lp9048
V24-06-2018
p9049
aV17
p9050
aV13
p9051
aV15
p9052
aVnr
p9053
aV17
p9054
aVnr
p9055
aVnr
p9056
aV21
p9057
aV16
p9058
aVnr
p9059
aV10
p9060
aVnr
p9061
aVnr
p9062
aV16
p9063
aVnr
p9064
aV22
p9065
aVnr
p9066
aVnr
p9067
aVnr
p9068
aV23
p9069
aVnr
p9070
aV17
p9071
aVnr
p9072
aV47
p9073
aV20
p9074
aVnr
p9075
aV24
p9076
aV17
p9077
aVnr
p9078
aV26
p9079
aV22
p9080
aVnr
p9081
aVnr
p9082
aVnr
p9083
aVnr
p9084
aVnr
p9085
aVnr
p9086
aV20
p9087
aV20
p9088
aVnr
p9089
aV18
p9090
aV25
p9091
aV16
p9092
aV43
p9093
aa(lp9094
V24-06-2018
p9095
aV18
p9096
aV18
p9097
aV10
p9098
aVnr
p9099
aVnr
p9100
aVnr
p9101
aVnr
p9102
aV15
p9103
aV13
p9104
aVnr
p9105
aV14
p9106
aVnr
p9107
aVnr
p9108
aV22
p9109
aVnr
p9110
aV25
p9111
aVnr
p9112
aVnr
p9113
aVnr
p9114
aV21
p9115
aVnr
p9116
aV25
p9117
aVnr
p9118
aV41
p9119
aV33
p9120
aVnr
p9121
aV28
p9122
aV15
p9123
aVnr
p9124
aV27
p9125
aV17
p9126
aVnr
p9127
aVnr
p9128
aVnr
p9129
aVnr
p9130
aVnr
p9131
aVnr
p9132
aV25
p9133
aV21
p9134
aVnr
p9135
aV17
p9136
aV22
p9137
aV16
p9138
aV45
p9139
aa(lp9140
V24-06-2018
p9141
aV19
p9142
aV16
p9143
aV13
p9144
aVnr
p9145
aV21
p9146
aVnr
p9147
aVnr
p9148
aV42
p9149
aV12
p9150
aVnr
p9151
aV19
p9152
aVnr
p9153
aVnr
p9154
aV25
p9155
aVnr
p9156
aV61
p9157
aVnr
p9158
aVnr
p9159
aVnr
p9160
aV29
p9161
aVnr
p9162
aV22
p9163
aVnr
p9164
aV44
p9165
aV30
p9166
aVnr
p9167
aV35
p9168
aV12
p9169
aVnr
p9170
aV23
p9171
aV20
p9172
aVnr
p9173
aVnr
p9174
aVnr
p9175
aVnr
p9176
aVnr
p9177
aVnr
p9178
aV42
p9179
aV20
p9180
aVnr
p9181
aV21
p9182
aV23
p9183
aV12
p9184
aV45
p9185
aa(lp9186
V24-06-2018
p9187
aV20
p9188
aV21
p9189
aV23
p9190
aVnr
p9191
aV24
p9192
aVnr
p9193
aVnr
p9194
aV39
p9195
aV24
p9196
aVnr
p9197
aV22
p9198
aVnr
p9199
aVnr
p9200
aV37
p9201
aVnr
p9202
aV37
p9203
aVnr
p9204
aVnr
p9205
aVnr
p9206
aV43
p9207
aVnr
p9208
aV30
p9209
aVnr
p9210
aV42
p9211
aV36
p9212
aVnr
p9213
aV39
p9214
aVnr
p9215
aVnr
p9216
aV26
p9217
aV32
p9218
aVnr
p9219
aVnr
p9220
aVnr
p9221
aVnr
p9222
aVnr
p9223
aVnr
p9224
aV32
p9225
aV21
p9226
aVnr
p9227
aV31
p9228
aV48
p9229
aV16
p9230
aV39
p9231
aa(lp9232
V24-06-2018
p9233
aV21
p9234
aV25
p9235
aV31
p9236
aVnr
p9237
aV25
p9238
aVnr
p9239
aVnr
p9240
aV39
p9241
aVnr
p9242
aVnr
p9243
aV26
p9244
aVnr
p9245
aVnr
p9246
aV53
p9247
aVnr
p9248
aV69
p9249
aVnr
p9250
aVnr
p9251
aVnr
p9252
aV37
p9253
aVnr
p9254
aV25
p9255
aVnr
p9256
aV54
p9257
aV46
p9258
aVnr
p9259
aV27
p9260
aVnr
p9261
aVnr
p9262
aV27
p9263
aV35
p9264
aVnr
p9265
aVnr
p9266
aVnr
p9267
aVnr
p9268
aVnr
p9269
aVnr
p9270
aV38
p9271
aV25
p9272
aVnr
p9273
aV33
p9274
aV38
p9275
aV26
p9276
aV58
p9277
aa(lp9278
V24-06-2018
p9279
aV22
p9280
aV25
p9281
aV24
p9282
aVnr
p9283
aV23
p9284
aVnr
p9285
aVnr
p9286
aV52
p9287
aV24
p9288
aVnr
p9289
aV19
p9290
aVnr
p9291
aVnr
p9292
aV72
p9293
aVnr
p9294
aV56
p9295
aVnr
p9296
aVnr
p9297
aVnr
p9298
aV37
p9299
aVnr
p9300
aV42
p9301
aVnr
p9302
aV55
p9303
aV63
p9304
aVnr
p9305
aV23
p9306
aV22
p9307
aVnr
p9308
aV31
p9309
aV31
p9310
aVnr
p9311
aVnr
p9312
aVnr
p9313
aVnr
p9314
aVnr
p9315
aVnr
p9316
aV49
p9317
aV42
p9318
aVnr
p9319
aV42
p9320
aV34
p9321
aV30
p9322
aV59
p9323
aa(lp9324
V24-06-2018
p9325
aV23
p9326
aV18
p9327
aV21
p9328
aVnr
p9329
aV44
p9330
aVnr
p9331
aVnr
p9332
aV56
p9333
aV27
p9334
aVnr
p9335
aVnr
p9336
aVnr
p9337
aVnr
p9338
aV29
p9339
aVnr
p9340
aV58
p9341
aVnr
p9342
aVnr
p9343
aVnr
p9344
aV53
p9345
aVnr
p9346
aV34
p9347
aVnr
p9348
aV57
p9349
aV77
p9350
aVnr
p9351
aVnr
p9352
aV23
p9353
aVnr
p9354
aV40
p9355
aV26
p9356
aVnr
p9357
aVnr
p9358
aVnr
p9359
aVnr
p9360
aVnr
p9361
aVnr
p9362
aV46
p9363
aV37
p9364
aVnr
p9365
aV43
p9366
aV17
p9367
aV18
p9368
aV95
p9369
aa(lp9370
V24-06-2018
p9371
aV24
p9372
aV18
p9373
aV17
p9374
aVnr
p9375
aV17
p9376
aVnr
p9377
aVnr
p9378
aV36
p9379
aV24
p9380
aVnr
p9381
aV11
p9382
aVnr
p9383
aVnr
p9384
aVnr
p9385
aVnr
p9386
aV53
p9387
aVnr
p9388
aVnr
p9389
aVnr
p9390
aV61
p9391
aVnr
p9392
aV29
p9393
aVnr
p9394
aV62
p9395
aV51
p9396
aVnr
p9397
aVnr
p9398
aVnr
p9399
aVnr
p9400
aV28
p9401
aV19
p9402
aVnr
p9403
aVnr
p9404
aVnr
p9405
aVnr
p9406
aVnr
p9407
aVnr
p9408
aV42
p9409
aV31
p9410
aVnr
p9411
aV39
p9412
aV51
p9413
aV14
p9414
aV62
p9415
aa(lp9416
V25-06-2018
p9417
aV1
aV18
p9418
aV17
p9419
aVnr
p9420
aV12
p9421
aVnr
p9422
aVnr
p9423
aV40
p9424
aVnr
p9425
aVnr
p9426
aV15
p9427
aVnr
p9428
aVnr
p9429
aVnr
p9430
aVnr
p9431
aV32
p9432
aVnr
p9433
aVnr
p9434
aVnr
p9435
aV58
p9436
aVnr
p9437
aV40
p9438
aVnr
p9439
aV40
p9440
aV57
p9441
aVnr
p9442
aVnr
p9443
aVnr
p9444
aVnr
p9445
aV21
p9446
aV15
p9447
aVnr
p9448
aVnr
p9449
aVnr
p9450
aVnr
p9451
aVnr
p9452
aVnr
p9453
aV28
p9454
aV26
p9455
aVnr
p9456
aV17
p9457
aV21
p9458
aV22
p9459
aV91
p9460
aasS'o3'
p9461
(lp9462
(lp9463
V24-06-2018
p9464
aV2
aV35
p9465
aV39
p9466
aV37
p9467
aV16
p9468
aVnr
p9469
aV13
p9470
aV20
p9471
aV15
p9472
aVnr
p9473
aV43
p9474
aVnr
p9475
aVnr
p9476
aV40
p9477
aV6
aV13
p9478
aVnr
p9479
aV9
aV28
p9480
aV21
p9481
aVnr
p9482
aV28
p9483
aV12
p9484
aV22
p9485
aV29
p9486
aV31
p9487
aV36
p9488
aV18
p9489
aVnr
p9490
aV23
p9491
aV30
p9492
aVnr
p9493
aVnr
p9494
aVnr
p9495
aVnr
p9496
aVnr
p9497
aVnr
p9498
aV5
aVnr
p9499
aVnr
p9500
aV27
p9501
aV25
p9502
aV7
aV32
p9503
aa(lp9504
V24-06-2018
p9505
aV3
aV38
p9506
aV34
p9507
aV36
p9508
aV10
p9509
aVnr
p9510
aV18
p9511
aV16
p9512
aV15
p9513
aVnr
p9514
aV45
p9515
aVnr
p9516
aVnr
p9517
aV35
p9518
aV1
aV7
aVnr
p9519
aV37
p9520
aV22
p9521
aV20
p9522
aVnr
p9523
aV33
p9524
aV32
p9525
aV26
p9526
aV33
p9527
aV37
p9528
aV41
p9529
aV15
p9530
aVnr
p9531
aV29
p9532
aV31
p9533
aVnr
p9534
aVnr
p9535
aVnr
p9536
aVnr
p9537
aVnr
p9538
aVnr
p9539
aV7
aVnr
p9540
aVnr
p9541
aV35
p9542
aV30
p9543
aV6
aV41
p9544
aa(lp9545
V24-06-2018
p9546
aV4
aV34
p9547
aV27
p9548
aV27
p9549
aV5
aVnr
p9550
aV21
p9551
aV20
p9552
aV27
p9553
aVnr
p9554
aV43
p9555
aVnr
p9556
aVnr
p9557
aV30
p9558
aV1
aV11
p9559
aVnr
p9560
aV34
p9561
aV24
p9562
aV29
p9563
aVnr
p9564
aV34
p9565
aV37
p9566
aV25
p9567
aV17
p9568
aV33
p9569
aV36
p9570
aV23
p9571
aVnr
p9572
aV32
p9573
aV18
p9574
aVnr
p9575
aVnr
p9576
aVnr
p9577
aVnr
p9578
aVnr
p9579
aVnr
p9580
aV18
p9581
aV22
p9582
aVnr
p9583
aV37
p9584
aV26
p9585
aV9
aV41
p9586
aa(lp9587
V24-06-2018
p9588
aV5
aV20
p9589
aV23
p9590
aV27
p9591
aV4
aVnr
p9592
aV10
p9593
aV22
p9594
aV31
p9595
aVnr
p9596
aV35
p9597
aVnr
p9598
aVnr
p9599
aV16
p9600
aVnr
p9601
aV10
p9602
aV35
p9603
aV23
p9604
aV26
p9605
aV12
p9606
aVnr
p9607
aV25
p9608
aV29
p9609
aV15
p9610
aV9
aV29
p9611
aV29
p9612
aV27
p9613
aVnr
p9614
aV24
p9615
aV11
p9616
aVnr
p9617
aVnr
p9618
aVnr
p9619
aVnr
p9620
aVnr
p9621
aVnr
p9622
aV23
p9623
aV3
aVnr
p9624
aV32
p9625
aV23
p9626
aV32
p9627
aV33
p9628
aa(lp9629
V24-06-2018
p9630
aV6
aV12
p9631
aV23
p9632
aV15
p9633
aV5
aVnr
p9634
aV12
p9635
aV9
aV18
p9636
aVnr
p9637
aV14
p9638
aVnr
p9639
aVnr
p9640
aV11
p9641
aV0
aV6
aV27
p9642
aV15
p9643
aV29
p9644
aV4
aVnr
p9645
aV6
aV24
p9646
aV8
aV5
aV28
p9647
aV22
p9648
aV18
p9649
aVnr
p9650
aV19
p9651
aV6
aVnr
p9652
aVnr
p9653
aVnr
p9654
aVnr
p9655
aVnr
p9656
aVnr
p9657
aV17
p9658
aV2
aVnr
p9659
aV23
p9660
aV15
p9661
aV6
aV21
p9662
aa(lp9663
V24-06-2018
p9664
aV7
aV8
aV31
p9665
aVnr
p9666
aV7
aVnr
p9667
aV18
p9668
aV3
aV9
aVnr
p9669
aV3
aVnr
p9670
aVnr
p9671
aV8
aV1
aV3
aV26
p9672
aV8
aV34
p9673
aV9
aVnr
p9674
aV3
aV20
p9675
aV6
aV4
aV28
p9676
aV13
p9677
aV6
aVnr
p9678
aV5
aV4
aVnr
p9679
aVnr
p9680
aVnr
p9681
aV20
p9682
aVnr
p9683
aVnr
p9684
aV2
aV9
aVnr
p9685
aV22
p9686
aV17
p9687
aV7
aV21
p9688
aa(lp9689
V24-06-2018
p9690
aV8
aV20
p9691
aV31
p9692
aV23
p9693
aV17
p9694
aVnr
p9695
aV24
p9696
aV15
p9697
aV22
p9698
aVnr
p9699
aV26
p9700
aVnr
p9701
aVnr
p9702
aV27
p9703
aV3
aV22
p9704
aV24
p9705
aV19
p9706
aV21
p9707
aV24
p9708
aVnr
p9709
aV8
aV29
p9710
aV13
p9711
aV24
p9712
aV29
p9713
aV16
p9714
aV30
p9715
aVnr
p9716
aV15
p9717
aV11
p9718
aVnr
p9719
aVnr
p9720
aVnr
p9721
aV23
p9722
aVnr
p9723
aVnr
p9724
aV10
p9725
aV14
p9726
aVnr
p9727
aV24
p9728
aV23
p9729
aV24
p9730
aV31
p9731
aa(lp9732
V24-06-2018
p9733
aV9
aV30
p9734
aV36
p9735
aV38
p9736
aV31
p9737
aVnr
p9738
aV30
p9739
aV24
p9740
aV37
p9741
aVnr
p9742
aV45
p9743
aVnr
p9744
aVnr
p9745
aV39
p9746
aV16
p9747
aV32
p9748
aV35
p9749
aV34
p9750
aV26
p9751
aV31
p9752
aVnr
p9753
aV22
p9754
aV34
p9755
aV25
p9756
aV37
p9757
aV35
p9758
aV24
p9759
aV38
p9760
aVnr
p9761
aV36
p9762
aV32
p9763
aVnr
p9764
aVnr
p9765
aVnr
p9766
aV31
p9767
aVnr
p9768
aVnr
p9769
aV26
p9770
aV23
p9771
aVnr
p9772
aV28
p9773
aV29
p9774
aV29
p9775
aV36
p9776
aa(lp9777
V24-06-2018
p9778
aV10
p9779
aV40
p9780
aV46
p9781
aV37
p9782
aV46
p9783
aVnr
p9784
aV45
p9785
aV38
p9786
aV46
p9787
aVnr
p9788
aV48
p9789
aVnr
p9790
aVnr
p9791
aV44
p9792
aV38
p9793
aV35
p9794
aV50
p9795
aV46
p9796
aV47
p9797
aV42
p9798
aVnr
p9799
aV41
p9800
aV45
p9801
aV39
p9802
aV48
p9803
aV40
p9804
aV37
p9805
aV47
p9806
aVnr
p9807
aV40
p9808
aV48
p9809
aVnr
p9810
aVnr
p9811
aVnr
p9812
aV40
p9813
aVnr
p9814
aVnr
p9815
aV36
p9816
aV39
p9817
aVnr
p9818
aV39
p9819
aV35
p9820
aV43
p9821
aV48
p9822
aa(lp9823
V24-06-2018
p9824
aV11
p9825
aV48
p9826
aV54
p9827
aV54
p9828
aV57
p9829
aVnr
p9830
aV58
p9831
aV59
p9832
aV62
p9833
aVnr
p9834
aV72
p9835
aVnr
p9836
aVnr
p9837
aV53
p9838
aV58
p9839
aV51
p9840
aV66
p9841
aV60
p9842
aV53
p9843
aV60
p9844
aVnr
p9845
aV54
p9846
aV62
p9847
aV55
p9848
aV55
p9849
aV53
p9850
aV53
p9851
aV57
p9852
aVnr
p9853
aV52
p9854
aV61
p9855
aVnr
p9856
aVnr
p9857
aVnr
p9858
aV56
p9859
aVnr
p9860
aVnr
p9861
aV48
p9862
aV57
p9863
aVnr
p9864
aV57
p9865
aV48
p9866
aV64
p9867
aV61
p9868
aa(lp9869
V24-06-2018
p9870
aV12
p9871
aV57
p9872
aV72
p9873
aV65
p9874
aV72
p9875
aVnr
p9876
aV78
p9877
aV76
p9878
aV79
p9879
aVnr
p9880
aV73
p9881
aVnr
p9882
aVnr
p9883
aV65
p9884
aV77
p9885
aV68
p9886
aV86
p9887
aV80
p9888
aV65
p9889
aV79
p9890
aVnr
p9891
aV74
p9892
aV79
p9893
aV74
p9894
aV74
p9895
aV66
p9896
aV71
p9897
aV77
p9898
aVnr
p9899
aV68
p9900
aV75
p9901
aVnr
p9902
aVnr
p9903
aVnr
p9904
aV69
p9905
aVnr
p9906
aVnr
p9907
aV67
p9908
aV74
p9909
aVnr
p9910
aV76
p9911
aV61
p9912
aV77
p9913
aV76
p9914
aa(lp9915
V24-06-2018
p9916
aV13
p9917
aV67
p9918
aV68
p9919
aVnr
p9920
aV87
p9921
aVnr
p9922
aV91
p9923
aV92
p9924
aV90
p9925
aVnr
p9926
aV71
p9927
aVnr
p9928
aVnr
p9929
aV71
p9930
aV84
p9931
aV85
p9932
aV101
p9933
aV95
p9934
aV74
p9935
aV88
p9936
aVnr
p9937
aV82
p9938
aV88
p9939
aV93
p9940
aV85
p9941
aV64
p9942
aV83
p9943
aV81
p9944
aVnr
p9945
aV79
p9946
aV83
p9947
aVnr
p9948
aVnr
p9949
aVnr
p9950
aV69
p9951
aVnr
p9952
aVnr
p9953
aV82
p9954
aV85
p9955
aVnr
p9956
aV89
p9957
aV75
p9958
aV86
p9959
aV90
p9960
aa(lp9961
V24-06-2018
p9962
aV14
p9963
aV69
p9964
aV71
p9965
aV63
p9966
aV78
p9967
aVnr
p9968
aV66
p9969
aV97
p9970
aV69
p9971
aVnr
p9972
aV77
p9973
aVnr
p9974
aVnr
p9975
aV52
p9976
aV80
p9977
aV85
p9978
aV100
p9979
aVnr
p9980
aV79
p9981
aV78
p9982
aVnr
p9983
aV84
p9984
aV80
p9985
aV86
p9986
aV76
p9987
aV58
p9988
aV79
p9989
aV64
p9990
aVnr
p9991
aV77
p9992
aV65
p9993
aVnr
p9994
aVnr
p9995
aVnr
p9996
aV63
p9997
aVnr
p9998
aVnr
p9999
aV77
p10000
aV91
p10001
aVnr
p10002
aV79
p10003
aV78
p10004
aV85
p10005
aV90
p10006
aa(lp10007
V24-06-2018
p10008
aV15
p10009
aV62
p10010
aV67
p10011
aV54
p10012
aV69
p10013
aVnr
p10014
aV77
p10015
aV75
p10016
aV76
p10017
aVnr
p10018
aVnr
p10019
aVnr
p10020
aVnr
p10021
aV56
p10022
aV69
p10023
aV69
p10024
aV75
p10025
aVnr
p10026
aV66
p10027
aVnr
p10028
aVnr
p10029
aV76
p10030
aV51
p10031
aV73
p10032
aV72
p10033
aV54
p10034
aV65
p10035
aV72
p10036
aVnr
p10037
aV66
p10038
aV60
p10039
aVnr
p10040
aVnr
p10041
aVnr
p10042
aV65
p10043
aVnr
p10044
aVnr
p10045
aV62
p10046
aV64
p10047
aVnr
p10048
aV67
p10049
aV57
p10050
aV76
p10051
aV70
p10052
aa(lp10053
V24-06-2018
p10054
aV16
p10055
aV55
p10056
aV68
p10057
aV59
p10058
aV67
p10059
aVnr
p10060
aV70
p10061
aV60
p10062
aV79
p10063
aVnr
p10064
aV58
p10065
aVnr
p10066
aVnr
p10067
aV47
p10068
aV57
p10069
aV68
p10070
aV62
p10071
aVnr
p10072
aV52
p10073
aV60
p10074
aVnr
p10075
aV54
p10076
aV48
p10077
aV56
p10078
aV66
p10079
aV74
p10080
aV59
p10081
aV75
p10082
aVnr
p10083
aV55
p10084
aV50
p10085
aVnr
p10086
aVnr
p10087
aVnr
p10088
aV69
p10089
aVnr
p10090
aVnr
p10091
aV52
p10092
aV65
p10093
aVnr
p10094
aV63
p10095
aV47
p10096
aV73
p10097
aV50
p10098
aa(lp10099
V24-06-2018
p10100
aV17
p10101
aV54
p10102
aV73
p10103
aV70
p10104
aV71
p10105
aVnr
p10106
aV71
p10107
aV62
p10108
aV77
p10109
aVnr
p10110
aV59
p10111
aVnr
p10112
aVnr
p10113
aV51
p10114
aV62
p10115
aV64
p10116
aV58
p10117
aV62
p10118
aV42
p10119
aV66
p10120
aVnr
p10121
aV61
p10122
aV44
p10123
aV49
p10124
aV64
p10125
aV76
p10126
aV52
p10127
aV73
p10128
aVnr
p10129
aV50
p10130
aV44
p10131
aVnr
p10132
aVnr
p10133
aVnr
p10134
aV64
p10135
aVnr
p10136
aVnr
p10137
aV59
p10138
aV61
p10139
aVnr
p10140
aV65
p10141
aV50
p10142
aV69
p10143
aV51
p10144
aa(lp10145
V24-06-2018
p10146
aV18
p10147
aV46
p10148
aV64
p10149
aV64
p10150
aVnr
p10151
aVnr
p10152
aV69
p10153
aV61
p10154
aV78
p10155
aVnr
p10156
aV52
p10157
aVnr
p10158
aVnr
p10159
aV46
p10160
aV55
p10161
aV56
p10162
aV61
p10163
aV61
p10164
aV51
p10165
aV68
p10166
aVnr
p10167
aV56
p10168
aV54
p10169
aV51
p10170
aV44
p10171
aV73
p10172
aV54
p10173
aV58
p10174
aVnr
p10175
aV53
p10176
aV52
p10177
aVnr
p10178
aVnr
p10179
aVnr
p10180
aV65
p10181
aVnr
p10182
aVnr
p10183
aV53
p10184
aV63
p10185
aVnr
p10186
aV65
p10187
aV57
p10188
aV63
p10189
aV54
p10190
aa(lp10191
V24-06-2018
p10192
aV19
p10193
aV46
p10194
aV65
p10195
aV60
p10196
aV45
p10197
aVnr
p10198
aV53
p10199
aV36
p10200
aV63
p10201
aVnr
p10202
aV45
p10203
aVnr
p10204
aVnr
p10205
aV41
p10206
aV54
p10207
aV29
p10208
aV57
p10209
aV57
p10210
aV47
p10211
aV52
p10212
aVnr
p10213
aV48
p10214
aV44
p10215
aV42
p10216
aV45
p10217
aV62
p10218
aV46
p10219
aV51
p10220
aVnr
p10221
aV47
p10222
aV42
p10223
aVnr
p10224
aVnr
p10225
aVnr
p10226
aV61
p10227
aVnr
p10228
aVnr
p10229
aV39
p10230
aV47
p10231
aVnr
p10232
aV55
p10233
aV50
p10234
aV57
p10235
aV47
p10236
aa(lp10237
V24-06-2018
p10238
aV20
p10239
aV40
p10240
aV58
p10241
aVnr
p10242
aV44
p10243
aVnr
p10244
aV46
p10245
aV34
p10246
aV49
p10247
aVnr
p10248
aV38
p10249
aVnr
p10250
aVnr
p10251
aV23
p10252
aV41
p10253
aV39
p10254
aV53
p10255
aV50
p10256
aV24
p10257
aV33
p10258
aVnr
p10259
aV39
p10260
aV42
p10261
aV34
p10262
aV35
p10263
aV51
p10264
aV33
p10265
aV47
p10266
aVnr
p10267
aV39
p10268
aV14
p10269
aVnr
p10270
aVnr
p10271
aVnr
p10272
aVnr
p10273
aVnr
p10274
aVnr
p10275
aV40
p10276
aV48
p10277
aVnr
p10278
aV41
p10279
aV28
p10280
aV57
p10281
aV43
p10282
aa(lp10283
V24-06-2018
p10284
aV21
p10285
aV33
p10286
aV35
p10287
aVnr
p10288
aV35
p10289
aVnr
p10290
aV39
p10291
aV27
p10292
aV43
p10293
aVnr
p10294
aV28
p10295
aVnr
p10296
aVnr
p10297
aV16
p10298
aV35
p10299
aV21
p10300
aV43
p10301
aV37
p10302
aV31
p10303
aV32
p10304
aVnr
p10305
aV36
p10306
aV37
p10307
aV18
p10308
aV25
p10309
aV41
p10310
aV33
p10311
aV41
p10312
aVnr
p10313
aV35
p10314
aV12
p10315
aVnr
p10316
aVnr
p10317
aVnr
p10318
aVnr
p10319
aVnr
p10320
aVnr
p10321
aV29
p10322
aV40
p10323
aVnr
p10324
aV35
p10325
aV25
p10326
aV49
p10327
aV25
p10328
aa(lp10329
V24-06-2018
p10330
aV22
p10331
aV28
p10332
aV34
p10333
aV19
p10334
aV29
p10335
aVnr
p10336
aV24
p10337
aV9
aV27
p10338
aVnr
p10339
aV27
p10340
aVnr
p10341
aVnr
p10342
aV11
p10343
aV18
p10344
aV13
p10345
aV35
p10346
aV22
p10347
aV25
p10348
aV24
p10349
aVnr
p10350
aV20
p10351
aV12
p10352
aV16
p10353
aV5
aV40
p10354
aV28
p10355
aV27
p10356
aVnr
p10357
aV26
p10358
aV17
p10359
aVnr
p10360
aVnr
p10361
aVnr
p10362
aVnr
p10363
aVnr
p10364
aVnr
p10365
aV14
p10366
aV23
p10367
aVnr
p10368
aV20
p10369
aV21
p10370
aV35
p10371
aV17
p10372
aa(lp10373
V24-06-2018
p10374
aV23
p10375
aV30
p10376
aV36
p10377
aVnr
p10378
aV13
p10379
aVnr
p10380
aV5
aV5
aV20
p10381
aVnr
p10382
aV27
p10383
aVnr
p10384
aVnr
p10385
aV29
p10386
aV21
p10387
aV7
aV13
p10388
aV9
aV21
p10389
aV9
aVnr
p10390
aV22
p10391
aV11
p10392
aV11
p10393
aV2
aV43
p10394
aVnr
p10395
aV25
p10396
aVnr
p10397
aV17
p10398
aV21
p10399
aVnr
p10400
aVnr
p10401
aVnr
p10402
aVnr
p10403
aVnr
p10404
aVnr
p10405
aV12
p10406
aV21
p10407
aVnr
p10408
aV10
p10409
aV22
p10410
aV40
p10411
aV9
aa(lp10412
V24-06-2018
p10413
aV24
p10414
aV30
p10415
aV35
p10416
aVnr
p10417
aV28
p10418
aVnr
p10419
aV1
aV10
p10420
aV21
p10421
aVnr
p10422
aV27
p10423
aVnr
p10424
aVnr
p10425
aV34
p10426
aV15
p10427
aV6
aV10
p10428
aV5
aV22
p10429
aV4
aVnr
p10430
aV21
p10431
aV19
p10432
aV5
aV10
p10433
aV37
p10434
aVnr
p10435
aV21
p10436
aVnr
p10437
aV19
p10438
aV23
p10439
aVnr
p10440
aVnr
p10441
aVnr
p10442
aVnr
p10443
aVnr
p10444
aVnr
p10445
aV10
p10446
aV21
p10447
aVnr
p10448
aV8
aV6
aV41
p10449
aV14
p10450
aa(lp10451
V25-06-2018
p10452
aV1
aV25
p10453
aV32
p10454
aV17
p10455
aV27
p10456
aVnr
p10457
aV4
aV8
aV22
p10458
aVnr
p10459
aV19
p10460
aVnr
p10461
aVnr
p10462
aV32
p10463
aV9
aV13
p10464
aV28
p10465
aV6
aV21
p10466
aV2
aVnr
p10467
aV11
p10468
aV12
p10469
aV11
p10470
aV11
p10471
aV35
p10472
aVnr
p10473
aV29
p10474
aVnr
p10475
aV15
p10476
aV28
p10477
aVnr
p10478
aVnr
p10479
aVnr
p10480
aVnr
p10481
aVnr
p10482
aVnr
p10483
aV14
p10484
aV24
p10485
aVnr
p10486
aV24
p10487
aV19
p10488
aV28
p10489
aV8
aasS'no2'
p10490
(lp10491
(lp10492
V24-06-2018
p10493
aV2
aV4
aV2
aVnr
p10494
aV18
p10495
aVnr
p10496
aVnr
p10497
aV18
p10498
aV14
p10499
aVnr
p10500
aVnr
p10501
aVnr
p10502
aVnr
p10503
aVnr
p10504
aVnr
p10505
aV20
p10506
aVnr
p10507
aV39
p10508
aV16
p10509
aVnr
p10510
aV6
aVnr
p10511
aV19
p10512
aV19
p10513
aVnr
p10514
aV7
aVnr
p10515
aVnr
p10516
aV10
p10517
aV13
p10518
aVnr
p10519
aVnr
p10520
aVnr
p10521
aVnr
p10522
aVnr
p10523
aVnr
p10524
aV37
p10525
aVnr
p10526
aVnr
p10527
aV6
aVnr
p10528
aV35
p10529
aV10
p10530
aa(lp10531
V24-06-2018
p10532
aV3
aV5
aV7
aVnr
p10533
aV19
p10534
aVnr
p10535
aVnr
p10536
aV20
p10537
aV18
p10538
aVnr
p10539
aVnr
p10540
aVnr
p10541
aVnr
p10542
aVnr
p10543
aVnr
p10544
aV21
p10545
aVnr
p10546
aV15
p10547
aV20
p10548
aVnr
p10549
aV6
aVnr
p10550
aV16
p10551
aV10
p10552
aVnr
p10553
aV5
aV16
p10554
aVnr
p10555
aV11
p10556
aV9
aVnr
p10557
aVnr
p10558
aVnr
p10559
aVnr
p10560
aVnr
p10561
aVnr
p10562
aV32
p10563
aVnr
p10564
aVnr
p10565
aV5
aVnr
p10566
aV37
p10567
aV8
aa(lp10568
V24-06-2018
p10569
aV4
aV7
aV11
p10570
aVnr
p10571
aV21
p10572
aVnr
p10573
aVnr
p10574
aV20
p10575
aVnr
p10576
aVnr
p10577
aVnr
p10578
aVnr
p10579
aVnr
p10580
aVnr
p10581
aVnr
p10582
aV17
p10583
aVnr
p10584
aV14
p10585
aV15
p10586
aVnr
p10587
aV7
aVnr
p10588
aV21
p10589
aV21
p10590
aVnr
p10591
aV6
aVnr
p10592
aVnr
p10593
aV9
aV10
p10594
aVnr
p10595
aVnr
p10596
aVnr
p10597
aVnr
p10598
aVnr
p10599
aVnr
p10600
aV22
p10601
aV17
p10602
aVnr
p10603
aV3
aVnr
p10604
aV28
p10605
aV8
aa(lp10606
V24-06-2018
p10607
aV5
aV12
p10608
aV10
p10609
aVnr
p10610
aV20
p10611
aVnr
p10612
aVnr
p10613
aV20
p10614
aVnr
p10615
aVnr
p10616
aVnr
p10617
aVnr
p10618
aVnr
p10619
aV22
p10620
aVnr
p10621
aV15
p10622
aVnr
p10623
aV24
p10624
aV28
p10625
aVnr
p10626
aV14
p10627
aVnr
p10628
aV29
p10629
aV25
p10630
aVnr
p10631
aV11
p10632
aVnr
p10633
aVnr
p10634
aV13
p10635
aV15
p10636
aVnr
p10637
aVnr
p10638
aVnr
p10639
aVnr
p10640
aVnr
p10641
aVnr
p10642
aV18
p10643
aV30
p10644
aVnr
p10645
aV4
aV12
p10646
aV12
p10647
aV11
p10648
aa(lp10649
V24-06-2018
p10650
aV6
aV13
p10651
aV10
p10652
aVnr
p10653
aV19
p10654
aVnr
p10655
aVnr
p10656
aV31
p10657
aVnr
p10658
aVnr
p10659
aV19
p10660
aVnr
p10661
aVnr
p10662
aV24
p10663
aVnr
p10664
aV19
p10665
aVnr
p10666
aV29
p10667
aV35
p10668
aVnr
p10669
aV30
p10670
aVnr
p10671
aV34
p10672
aV29
p10673
aVnr
p10674
aV18
p10675
aV10
p10676
aVnr
p10677
aV13
p10678
aV21
p10679
aVnr
p10680
aVnr
p10681
aVnr
p10682
aVnr
p10683
aVnr
p10684
aVnr
p10685
aV24
p10686
aV28
p10687
aVnr
p10688
aV11
p10689
aV21
p10690
aV26
p10691
aV21
p10692
aa(lp10693
V24-06-2018
p10694
aV7
aV21
p10695
aV9
aVnr
p10696
aV20
p10697
aVnr
p10698
aVnr
p10699
aV34
p10700
aV15
p10701
aVnr
p10702
aV23
p10703
aVnr
p10704
aVnr
p10705
aV30
p10706
aVnr
p10707
aV20
p10708
aVnr
p10709
aV34
p10710
aV30
p10711
aVnr
p10712
aV31
p10713
aVnr
p10714
aV36
p10715
aV31
p10716
aVnr
p10717
aV24
p10718
aV20
p10719
aVnr
p10720
aV28
p10721
aV25
p10722
aVnr
p10723
aVnr
p10724
aVnr
p10725
aVnr
p10726
aVnr
p10727
aVnr
p10728
aV29
p10729
aV25
p10730
aVnr
p10731
aV13
p10732
aV21
p10733
aV27
p10734
aV26
p10735
aa(lp10736
V24-06-2018
p10737
aV8
aV14
p10738
aV11
p10739
aVnr
p10740
aV21
p10741
aVnr
p10742
aVnr
p10743
aV28
p10744
aV18
p10745
aVnr
p10746
aV12
p10747
aVnr
p10748
aVnr
p10749
aV20
p10750
aVnr
p10751
aV18
p10752
aVnr
p10753
aV29
p10754
aV19
p10755
aVnr
p10756
aV29
p10757
aVnr
p10758
aV34
p10759
aV15
p10760
aVnr
p10761
aV27
p10762
aV12
p10763
aVnr
p10764
aV24
p10765
aV21
p10766
aVnr
p10767
aVnr
p10768
aVnr
p10769
aVnr
p10770
aVnr
p10771
aVnr
p10772
aV30
p10773
aV26
p10774
aVnr
p10775
aV13
p10776
aV16
p10777
aV17
p10778
aV19
p10779
aa(lp10780
V24-06-2018
p10781
aV9
aV10
p10782
aV11
p10783
aVnr
p10784
aV20
p10785
aVnr
p10786
aVnr
p10787
aV29
p10788
aV12
p10789
aVnr
p10790
aV4
aVnr
p10791
aVnr
p10792
aV12
p10793
aVnr
p10794
aV18
p10795
aVnr
p10796
aV24
p10797
aV22
p10798
aVnr
p10799
aV27
p10800
aVnr
p10801
aV35
p10802
aV10
p10803
aVnr
p10804
aV29
p10805
aV10
p10806
aVnr
p10807
aV9
aV15
p10808
aVnr
p10809
aVnr
p10810
aVnr
p10811
aVnr
p10812
aVnr
p10813
aVnr
p10814
aV25
p10815
aV23
p10816
aVnr
p10817
aV13
p10818
aV17
p10819
aV19
p10820
aV21
p10821
aa(lp10822
V24-06-2018
p10823
aV10
p10824
aV7
aV9
aVnr
p10825
aV16
p10826
aVnr
p10827
aVnr
p10828
aV25
p10829
aV13
p10830
aVnr
p10831
aV6
aVnr
p10832
aVnr
p10833
aV13
p10834
aVnr
p10835
aV22
p10836
aVnr
p10837
aV25
p10838
aV27
p10839
aVnr
p10840
aV14
p10841
aVnr
p10842
aV31
p10843
aV9
aVnr
p10844
aV28
p10845
aV11
p10846
aVnr
p10847
aV8
aV10
p10848
aVnr
p10849
aVnr
p10850
aVnr
p10851
aVnr
p10852
aVnr
p10853
aVnr
p10854
aV24
p10855
aV19
p10856
aVnr
p10857
aV12
p10858
aV24
p10859
aV19
p10860
aV19
p10861
aa(lp10862
V24-06-2018
p10863
aV11
p10864
aV6
aV10
p10865
aVnr
p10866
aV15
p10867
aVnr
p10868
aVnr
p10869
aV16
p10870
aV12
p10871
aVnr
p10872
aV9
aVnr
p10873
aVnr
p10874
aV11
p10875
aVnr
p10876
aV21
p10877
aVnr
p10878
aV23
p10879
aV22
p10880
aVnr
p10881
aV14
p10882
aVnr
p10883
aV26
p10884
aV13
p10885
aVnr
p10886
aV32
p10887
aV10
p10888
aVnr
p10889
aV11
p10890
aV8
aVnr
p10891
aVnr
p10892
aVnr
p10893
aVnr
p10894
aVnr
p10895
aVnr
p10896
aV25
p10897
aV16
p10898
aVnr
p10899
aV10
p10900
aV27
p10901
aV10
p10902
aV19
p10903
aa(lp10904
V24-06-2018
p10905
aV12
p10906
aV6
aV10
p10907
aVnr
p10908
aV12
p10909
aVnr
p10910
aVnr
p10911
aV10
p10912
aV14
p10913
aVnr
p10914
aV5
aVnr
p10915
aVnr
p10916
aV11
p10917
aVnr
p10918
aV22
p10919
aVnr
p10920
aV13
p10921
aV16
p10922
aVnr
p10923
aV13
p10924
aVnr
p10925
aV21
p10926
aV13
p10927
aVnr
p10928
aV23
p10929
aV11
p10930
aVnr
p10931
aV14
p10932
aV10
p10933
aVnr
p10934
aVnr
p10935
aVnr
p10936
aVnr
p10937
aVnr
p10938
aVnr
p10939
aV21
p10940
aV12
p10941
aVnr
p10942
aV14
p10943
aV26
p10944
aV8
aV23
p10945
aa(lp10946
V24-06-2018
p10947
aV13
p10948
aV6
aV11
p10949
aVnr
p10950
aV12
p10951
aVnr
p10952
aVnr
p10953
aV15
p10954
aV11
p10955
aVnr
p10956
aV2
aVnr
p10957
aVnr
p10958
aV14
p10959
aVnr
p10960
aV20
p10961
aVnr
p10962
aV16
p10963
aV18
p10964
aVnr
p10965
aV7
aVnr
p10966
aV17
p10967
aV10
p10968
aVnr
p10969
aV11
p10970
aV12
p10971
aVnr
p10972
aV12
p10973
aV9
aVnr
p10974
aVnr
p10975
aVnr
p10976
aVnr
p10977
aVnr
p10978
aVnr
p10979
aV16
p10980
aV12
p10981
aVnr
p10982
aV14
p10983
aV20
p10984
aV6
aV18
p10985
aa(lp10986
V24-06-2018
p10987
aV14
p10988
aV5
aV9
aVnr
p10989
aV11
p10990
aVnr
p10991
aVnr
p10992
aV16
p10993
aV10
p10994
aVnr
p10995
aV3
aVnr
p10996
aVnr
p10997
aV24
p10998
aVnr
p10999
aV11
p11000
aVnr
p11001
aVnr
p11002
aV17
p11003
aVnr
p11004
aV5
aVnr
p11005
aV19
p11006
aV17
p11007
aVnr
p11008
aV8
aV12
p11009
aVnr
p11010
aV9
aV14
p11011
aVnr
p11012
aVnr
p11013
aVnr
p11014
aVnr
p11015
aVnr
p11016
aVnr
p11017
aV16
p11018
aV11
p11019
aVnr
p11020
aV11
p11021
aV18
p11022
aV4
aV15
p11023
aa(lp11024
V24-06-2018
p11025
aV15
p11026
aV5
aV10
p11027
aVnr
p11028
aV8
aVnr
p11029
aVnr
p11030
aV16
p11031
aV11
p11032
aVnr
p11033
aVnr
p11034
aVnr
p11035
aVnr
p11036
aV18
p11037
aVnr
p11038
aV14
p11039
aVnr
p11040
aVnr
p11041
aVnr
p11042
aVnr
p11043
aV11
p11044
aVnr
p11045
aV23
p11046
aV18
p11047
aVnr
p11048
aV23
p11049
aV13
p11050
aVnr
p11051
aV17
p11052
aV17
p11053
aVnr
p11054
aVnr
p11055
aVnr
p11056
aVnr
p11057
aVnr
p11058
aVnr
p11059
aV15
p11060
aV20
p11061
aVnr
p11062
aV9
aV18
p11063
aV8
aV27
p11064
aa(lp11065
V24-06-2018
p11066
aV16
p11067
aV15
p11068
aV18
p11069
aVnr
p11070
aV20
p11071
aVnr
p11072
aVnr
p11073
aV23
p11074
aV13
p11075
aVnr
p11076
aV5
aVnr
p11077
aVnr
p11078
aV25
p11079
aVnr
p11080
aV20
p11081
aVnr
p11082
aVnr
p11083
aV24
p11084
aVnr
p11085
aV23
p11086
aVnr
p11087
aV30
p11088
aV18
p11089
aVnr
p11090
aV23
p11091
aV17
p11092
aVnr
p11093
aV19
p11094
aV23
p11095
aVnr
p11096
aVnr
p11097
aVnr
p11098
aVnr
p11099
aVnr
p11100
aVnr
p11101
aV28
p11102
aV13
p11103
aVnr
p11104
aV17
p11105
aV28
p11106
aV11
p11107
aV37
p11108
aa(lp11109
V24-06-2018
p11110
aV17
p11111
aV11
p11112
aV13
p11113
aVnr
p11114
aV14
p11115
aVnr
p11116
aVnr
p11117
aV19
p11118
aV14
p11119
aVnr
p11120
aV9
aVnr
p11121
aVnr
p11122
aV14
p11123
aVnr
p11124
aV19
p11125
aVnr
p11126
aVnr
p11127
aV20
p11128
aVnr
p11129
aV14
p11130
aVnr
p11131
aV35
p11132
aV17
p11133
aVnr
p11134
aV21
p11135
aV16
p11136
aVnr
p11137
aV23
p11138
aV18
p11139
aVnr
p11140
aVnr
p11141
aVnr
p11142
aVnr
p11143
aVnr
p11144
aVnr
p11145
aV18
p11146
aV17
p11147
aVnr
p11148
aV15
p11149
aV23
p11150
aV14
p11151
aV31
p11152
aa(lp11153
V24-06-2018
p11154
aV18
p11155
aV15
p11156
aV10
p11157
aVnr
p11158
aVnr
p11159
aVnr
p11160
aVnr
p11161
aV14
p11162
aV12
p11163
aVnr
p11164
aV13
p11165
aVnr
p11166
aVnr
p11167
aV20
p11168
aVnr
p11169
aV21
p11170
aVnr
p11171
aVnr
p11172
aV19
p11173
aVnr
p11174
aV22
p11175
aVnr
p11176
aV34
p11177
aV29
p11178
aVnr
p11179
aV25
p11180
aV14
p11181
aVnr
p11182
aV24
p11183
aV15
p11184
aVnr
p11185
aVnr
p11186
aVnr
p11187
aVnr
p11188
aVnr
p11189
aVnr
p11190
aV21
p11191
aV20
p11192
aVnr
p11193
aV15
p11194
aV20
p11195
aV14
p11196
aV35
p11197
aa(lp11198
V24-06-2018
p11199
aV19
p11200
aV14
p11201
aV13
p11202
aVnr
p11203
aV20
p11204
aVnr
p11205
aVnr
p11206
aV35
p11207
aV12
p11208
aVnr
p11209
aV18
p11210
aVnr
p11211
aVnr
p11212
aV23
p11213
aVnr
p11214
aV44
p11215
aVnr
p11216
aVnr
p11217
aV27
p11218
aVnr
p11219
aV21
p11220
aVnr
p11221
aV40
p11222
aV27
p11223
aVnr
p11224
aV33
p11225
aV12
p11226
aVnr
p11227
aV22
p11228
aV18
p11229
aVnr
p11230
aVnr
p11231
aVnr
p11232
aVnr
p11233
aVnr
p11234
aVnr
p11235
aV34
p11236
aV19
p11237
aVnr
p11238
aV20
p11239
aV22
p11240
aV11
p11241
aV37
p11242
aa(lp11243
V24-06-2018
p11244
aV20
p11245
aV19
p11246
aV22
p11247
aVnr
p11248
aV23
p11249
aVnr
p11250
aVnr
p11251
aV34
p11252
aV24
p11253
aVnr
p11254
aV21
p11255
aVnr
p11256
aVnr
p11257
aV33
p11258
aVnr
p11259
aV33
p11260
aVnr
p11261
aVnr
p11262
aV40
p11263
aVnr
p11264
aV29
p11265
aVnr
p11266
aV39
p11267
aV33
p11268
aVnr
p11269
aV38
p11270
aVnr
p11271
aVnr
p11272
aV24
p11273
aV27
p11274
aVnr
p11275
aVnr
p11276
aVnr
p11277
aVnr
p11278
aVnr
p11279
aVnr
p11280
aV26
p11281
aV20
p11282
aVnr
p11283
aV29
p11284
aV47
p11285
aV15
p11286
aV33
p11287
aa(lp11288
V24-06-2018
p11289
aV21
p11290
aV24
p11291
aV30
p11292
aVnr
p11293
aV24
p11294
aVnr
p11295
aVnr
p11296
aV37
p11297
aVnr
p11298
aVnr
p11299
aV25
p11300
aVnr
p11301
aVnr
p11302
aV37
p11303
aVnr
p11304
aV40
p11305
aVnr
p11306
aVnr
p11307
aV33
p11308
aVnr
p11309
aV24
p11310
aVnr
p11311
aV49
p11312
aV41
p11313
aVnr
p11314
aV26
p11315
aVnr
p11316
aVnr
p11317
aV26
p11318
aV28
p11319
aVnr
p11320
aVnr
p11321
aVnr
p11322
aVnr
p11323
aVnr
p11324
aVnr
p11325
aV36
p11326
aV25
p11327
aVnr
p11328
aV31
p11329
aV37
p11330
aV24
p11331
aV47
p11332
aa(lp11333
V24-06-2018
p11334
aV22
p11335
aV23
p11336
aV24
p11337
aVnr
p11338
aV22
p11339
aVnr
p11340
aVnr
p11341
aV45
p11342
aV23
p11343
aVnr
p11344
aV18
p11345
aVnr
p11346
aVnr
p11347
aV45
p11348
aVnr
p11349
aV38
p11350
aVnr
p11351
aVnr
p11352
aV35
p11353
aVnr
p11354
aV38
p11355
aVnr
p11356
aV48
p11357
aV49
p11358
aVnr
p11359
aV22
p11360
aV21
p11361
aVnr
p11362
aV29
p11363
aV27
p11364
aVnr
p11365
aVnr
p11366
aVnr
p11367
aVnr
p11368
aVnr
p11369
aVnr
p11370
aV45
p11371
aV41
p11372
aVnr
p11373
aV39
p11374
aV33
p11375
aV29
p11376
aV46
p11377
aa(lp11378
V24-06-2018
p11379
aV23
p11380
aV17
p11381
aV21
p11382
aVnr
p11383
aV34
p11384
aVnr
p11385
aVnr
p11386
aV40
p11387
aV26
p11388
aVnr
p11389
aVnr
p11390
aVnr
p11391
aVnr
p11392
aV26
p11393
aVnr
p11394
aV40
p11395
aVnr
p11396
aVnr
p11397
aV44
p11398
aVnr
p11399
aV32
p11400
aVnr
p11401
aV51
p11402
aV45
p11403
aVnr
p11404
aVnr
p11405
aV22
p11406
aVnr
p11407
aV36
p11408
aV24
p11409
aVnr
p11410
aVnr
p11411
aVnr
p11412
aVnr
p11413
aVnr
p11414
aVnr
p11415
aV43
p11416
aV35
p11417
aVnr
p11418
aV40
p11419
aV17
p11420
aV18
p11421
aV54
p11422
aa(lp11423
V24-06-2018
p11424
aV24
p11425
aV17
p11426
aV17
p11427
aVnr
p11428
aV16
p11429
aVnr
p11430
aVnr
p11431
aV34
p11432
aV24
p11433
aVnr
p11434
aV9
aVnr
p11435
aVnr
p11436
aVnr
p11437
aVnr
p11438
aV37
p11439
aVnr
p11440
aVnr
p11441
aV53
p11442
aVnr
p11443
aV28
p11444
aVnr
p11445
aV49
p11446
aV39
p11447
aVnr
p11448
aVnr
p11449
aVnr
p11450
aVnr
p11451
aV26
p11452
aV19
p11453
aVnr
p11454
aVnr
p11455
aVnr
p11456
aVnr
p11457
aVnr
p11458
aVnr
p11459
aV39
p11460
aV31
p11461
aVnr
p11462
aV37
p11463
aV44
p11464
aV14
p11465
aV46
p11466
aa(lp11467
V25-06-2018
p11468
aV1
aV17
p11469
aV17
p11470
aVnr
p11471
aV12
p11472
aVnr
p11473
aVnr
p11474
aV34
p11475
aVnr
p11476
aVnr
p11477
aV14
p11478
aVnr
p11479
aVnr
p11480
aVnr
p11481
aVnr
p11482
aV27
p11483
aVnr
p11484
aVnr
p11485
aV48
p11486
aVnr
p11487
aV34
p11488
aVnr
p11489
aV35
p11490
aV34
p11491
aVnr
p11492
aVnr
p11493
aVnr
p11494
aVnr
p11495
aV20
p11496
aV15
p11497
aVnr
p11498
aVnr
p11499
aVnr
p11500
aVnr
p11501
aVnr
p11502
aVnr
p11503
aV27
p11504
aV26
p11505
aVnr
p11506
aV15
p11507
aV21
p11508
aV21
p11509
aV47
p11510
aas.