(dp1
S'tmp'
p2
(lp3
(lp4
V02-11-2016
p5
aV21
p6
aVnr
p7
aV14
p8
aV10
p9
aVnr
p10
aV16
p11
aVnr
p12
aVnr
p13
aVnr
p14
aV15
p15
aV14
p16
aVnr
p17
aV12
p18
aV16
p19
aVnr
p20
aVnr
p21
aV16
p22
aVnr
p23
aVnr
p24
aVnr
p25
aVnr
p26
aVnr
p27
aV16
p28
aV15
p29
aVnr
p30
aV17
p31
aV16
p32
aVnr
p33
aV19
p34
aV13
p35
aVnr
p36
aVnr
p37
aVnr
p38
aVnr
p39
aV15
p40
aVnr
p41
aV15
p42
aVnr
p43
aVnr
p44
aV17
p45
aV17
p46
aV18
p47
aV17
p48
aa(lp49
V02-11-2016
p50
aV21
p51
aVnr
p52
aV14
p53
aV10
p54
aVnr
p55
aV16
p56
aVnr
p57
aVnr
p58
aVnr
p59
aV15
p60
aV14
p61
aVnr
p62
aV12
p63
aV16
p64
aVnr
p65
aVnr
p66
aV16
p67
aVnr
p68
aVnr
p69
aVnr
p70
aVnr
p71
aVnr
p72
aV16
p73
aV15
p74
aVnr
p75
aV17
p76
aV16
p77
aVnr
p78
aV19
p79
aV13
p80
aVnr
p81
aVnr
p82
aVnr
p83
aVnr
p84
aV15
p85
aVnr
p86
aV15
p87
aVnr
p88
aVnr
p89
aV17
p90
aV17
p91
aV18
p92
aV17
p93
aa(lp94
V02-11-2016
p95
aV21
p96
aVnr
p97
aV14
p98
aV10
p99
aVnr
p100
aV16
p101
aVnr
p102
aVnr
p103
aVnr
p104
aV15
p105
aV14
p106
aVnr
p107
aV12
p108
aV16
p109
aVnr
p110
aVnr
p111
aV16
p112
aVnr
p113
aVnr
p114
aVnr
p115
aVnr
p116
aVnr
p117
aV16
p118
aV15
p119
aVnr
p120
aV17
p121
aV16
p122
aVnr
p123
aV19
p124
aV13
p125
aVnr
p126
aVnr
p127
aVnr
p128
aVnr
p129
aV15
p130
aVnr
p131
aV15
p132
aVnr
p133
aVnr
p134
aV17
p135
aV17
p136
aV18
p137
aV17
p138
aa(lp139
V02-11-2016
p140
aV21
p141
aVnr
p142
aV14
p143
aV10
p144
aVnr
p145
aV16
p146
aVnr
p147
aVnr
p148
aVnr
p149
aV15
p150
aV14
p151
aVnr
p152
aV12
p153
aV16
p154
aVnr
p155
aVnr
p156
aV16
p157
aVnr
p158
aVnr
p159
aVnr
p160
aVnr
p161
aVnr
p162
aV16
p163
aV15
p164
aVnr
p165
aV17
p166
aV16
p167
aVnr
p168
aV19
p169
aV13
p170
aVnr
p171
aVnr
p172
aVnr
p173
aVnr
p174
aV15
p175
aVnr
p176
aV15
p177
aVnr
p178
aVnr
p179
aV17
p180
aV17
p181
aV18
p182
aV17
p183
aa(lp184
V02-11-2016
p185
aV21
p186
aVnr
p187
aV14
p188
aV10
p189
aVnr
p190
aV16
p191
aVnr
p192
aVnr
p193
aVnr
p194
aV15
p195
aV14
p196
aVnr
p197
aV12
p198
aV16
p199
aVnr
p200
aVnr
p201
aV16
p202
aVnr
p203
aVnr
p204
aVnr
p205
aVnr
p206
aVnr
p207
aV16
p208
aV15
p209
aVnr
p210
aV17
p211
aV16
p212
aVnr
p213
aV19
p214
aV13
p215
aVnr
p216
aVnr
p217
aVnr
p218
aVnr
p219
aV15
p220
aVnr
p221
aV15
p222
aVnr
p223
aVnr
p224
aV17
p225
aV17
p226
aV18
p227
aV17
p228
aa(lp229
V02-11-2016
p230
aV21
p231
aVnr
p232
aV14
p233
aV10
p234
aVnr
p235
aV16
p236
aVnr
p237
aVnr
p238
aVnr
p239
aV15
p240
aV14
p241
aVnr
p242
aV12
p243
aV16
p244
aVnr
p245
aVnr
p246
aV16
p247
aVnr
p248
aVnr
p249
aVnr
p250
aVnr
p251
aVnr
p252
aV16
p253
aV15
p254
aVnr
p255
aV17
p256
aV16
p257
aVnr
p258
aV19
p259
aV13
p260
aVnr
p261
aVnr
p262
aVnr
p263
aVnr
p264
aV15
p265
aVnr
p266
aV15
p267
aVnr
p268
aVnr
p269
aV17
p270
aV17
p271
aV18
p272
aV17
p273
aa(lp274
V02-11-2016
p275
aV21
p276
aVnr
p277
aV14
p278
aV10
p279
aVnr
p280
aV16
p281
aVnr
p282
aVnr
p283
aVnr
p284
aV15
p285
aV14
p286
aVnr
p287
aV12
p288
aV16
p289
aVnr
p290
aVnr
p291
aV16
p292
aVnr
p293
aVnr
p294
aVnr
p295
aVnr
p296
aVnr
p297
aV16
p298
aV15
p299
aVnr
p300
aV17
p301
aV16
p302
aVnr
p303
aV19
p304
aV13
p305
aVnr
p306
aVnr
p307
aVnr
p308
aVnr
p309
aV15
p310
aVnr
p311
aV15
p312
aVnr
p313
aVnr
p314
aV17
p315
aV17
p316
aV18
p317
aV17
p318
aa(lp319
V02-11-2016
p320
aV21
p321
aVnr
p322
aV14
p323
aV10
p324
aVnr
p325
aV16
p326
aVnr
p327
aVnr
p328
aVnr
p329
aV15
p330
aV14
p331
aVnr
p332
aV12
p333
aV16
p334
aVnr
p335
aVnr
p336
aV16
p337
aVnr
p338
aVnr
p339
aVnr
p340
aVnr
p341
aVnr
p342
aV16
p343
aV15
p344
aVnr
p345
aV17
p346
aV16
p347
aVnr
p348
aV19
p349
aV13
p350
aVnr
p351
aVnr
p352
aVnr
p353
aVnr
p354
aV15
p355
aVnr
p356
aV15
p357
aVnr
p358
aVnr
p359
aV17
p360
aV17
p361
aV18
p362
aV17
p363
aa(lp364
V02-11-2016
p365
aV22
p366
aVnr
p367
aV15
p368
aV10
p369
aVnr
p370
aV16
p371
aVnr
p372
aVnr
p373
aVnr
p374
aV15
p375
aV14
p376
aVnr
p377
aV12
p378
aV15
p379
aVnr
p380
aVnr
p381
aV16
p382
aVnr
p383
aVnr
p384
aVnr
p385
aVnr
p386
aVnr
p387
aV16
p388
aVnr
p389
aVnr
p390
aV16
p391
aV15
p392
aVnr
p393
aV18
p394
aV13
p395
aVnr
p396
aVnr
p397
aVnr
p398
aVnr
p399
aV14
p400
aVnr
p401
aV14
p402
aVnr
p403
aVnr
p404
aV15
p405
aV15
p406
aV17
p407
aV16
p408
aa(lp409
V02-11-2016
p410
aV22
p411
aVnr
p412
aV15
p413
aV10
p414
aVnr
p415
aV16
p416
aVnr
p417
aVnr
p418
aVnr
p419
aV15
p420
aV14
p421
aVnr
p422
aV12
p423
aV15
p424
aVnr
p425
aVnr
p426
aV16
p427
aVnr
p428
aVnr
p429
aVnr
p430
aVnr
p431
aVnr
p432
aV16
p433
aVnr
p434
aVnr
p435
aV16
p436
aV15
p437
aVnr
p438
aV18
p439
aV13
p440
aVnr
p441
aVnr
p442
aVnr
p443
aVnr
p444
aV14
p445
aVnr
p446
aV14
p447
aVnr
p448
aVnr
p449
aV15
p450
aV15
p451
aV17
p452
aV16
p453
aa(lp454
V02-11-2016
p455
aV22
p456
aVnr
p457
aV15
p458
aV10
p459
aVnr
p460
aV16
p461
aVnr
p462
aVnr
p463
aVnr
p464
aV15
p465
aV14
p466
aVnr
p467
aV12
p468
aV15
p469
aVnr
p470
aVnr
p471
aV16
p472
aVnr
p473
aVnr
p474
aVnr
p475
aVnr
p476
aVnr
p477
aV16
p478
aVnr
p479
aVnr
p480
aV16
p481
aV15
p482
aVnr
p483
aV18
p484
aV13
p485
aVnr
p486
aVnr
p487
aVnr
p488
aVnr
p489
aV14
p490
aVnr
p491
aV14
p492
aVnr
p493
aVnr
p494
aV15
p495
aV15
p496
aV17
p497
aV16
p498
aa(lp499
V02-11-2016
p500
aV23
p501
aVnr
p502
aV14
p503
aV9
aVnr
p504
aV16
p505
aVnr
p506
aVnr
p507
aVnr
p508
aV15
p509
aV14
p510
aVnr
p511
aV12
p512
aV14
p513
aVnr
p514
aVnr
p515
aV16
p516
aVnr
p517
aVnr
p518
aVnr
p519
aVnr
p520
aVnr
p521
aV16
p522
aV16
p523
aVnr
p524
aV16
p525
aV15
p526
aVnr
p527
aV17
p528
aV13
p529
aVnr
p530
aVnr
p531
aVnr
p532
aVnr
p533
aV15
p534
aVnr
p535
aV14
p536
aVnr
p537
aVnr
p538
aV16
p539
aV16
p540
aV16
p541
aV15
p542
aa(lp543
V02-11-2016
p544
aV23
p545
aVnr
p546
aV14
p547
aV9
aVnr
p548
aV16
p549
aVnr
p550
aVnr
p551
aVnr
p552
aV15
p553
aV14
p554
aVnr
p555
aV12
p556
aV14
p557
aVnr
p558
aVnr
p559
aV16
p560
aVnr
p561
aVnr
p562
aVnr
p563
aVnr
p564
aVnr
p565
aV16
p566
aV16
p567
aVnr
p568
aV16
p569
aV15
p570
aVnr
p571
aV17
p572
aV13
p573
aVnr
p574
aVnr
p575
aVnr
p576
aVnr
p577
aV15
p578
aVnr
p579
aV14
p580
aVnr
p581
aVnr
p582
aV16
p583
aV16
p584
aV16
p585
aV15
p586
aa(lp587
V02-11-2016
p588
aV23
p589
aVnr
p590
aV14
p591
aV9
aVnr
p592
aV16
p593
aVnr
p594
aVnr
p595
aVnr
p596
aV15
p597
aV14
p598
aVnr
p599
aV12
p600
aV14
p601
aVnr
p602
aVnr
p603
aV16
p604
aVnr
p605
aVnr
p606
aVnr
p607
aVnr
p608
aVnr
p609
aV16
p610
aV16
p611
aVnr
p612
aV16
p613
aV15
p614
aVnr
p615
aV17
p616
aV13
p617
aVnr
p618
aVnr
p619
aVnr
p620
aVnr
p621
aV15
p622
aVnr
p623
aV14
p624
aVnr
p625
aVnr
p626
aV16
p627
aV16
p628
aV16
p629
aV15
p630
aa(lp631
V02-11-2016
p632
aV23
p633
aVnr
p634
aV14
p635
aV9
aVnr
p636
aV16
p637
aVnr
p638
aVnr
p639
aVnr
p640
aV15
p641
aV14
p642
aVnr
p643
aV12
p644
aV14
p645
aVnr
p646
aVnr
p647
aV16
p648
aVnr
p649
aVnr
p650
aVnr
p651
aVnr
p652
aVnr
p653
aV16
p654
aV16
p655
aVnr
p656
aV16
p657
aV15
p658
aVnr
p659
aV17
p660
aV13
p661
aVnr
p662
aVnr
p663
aVnr
p664
aVnr
p665
aV15
p666
aVnr
p667
aV14
p668
aVnr
p669
aVnr
p670
aV16
p671
aV16
p672
aV16
p673
aV15
p674
aa(lp675
V02-11-2016
p676
aV24
p677
aVnr
p678
aV14
p679
aV8
aVnr
p680
aV15
p681
aVnr
p682
aVnr
p683
aVnr
p684
aV14
p685
aV13
p686
aVnr
p687
aV12
p688
aV14
p689
aVnr
p690
aVnr
p691
aV16
p692
aVnr
p693
aVnr
p694
aVnr
p695
aVnr
p696
aVnr
p697
aV16
p698
aV15
p699
aVnr
p700
aV16
p701
aV14
p702
aVnr
p703
aV17
p704
aV13
p705
aVnr
p706
aVnr
p707
aVnr
p708
aVnr
p709
aV14
p710
aVnr
p711
aV15
p712
aVnr
p713
aVnr
p714
aV15
p715
aV16
p716
aV16
p717
aV16
p718
aa(lp719
V05-11-2016
p720
aV8
aVnr
p721
aV12
p722
aV8
aVnr
p723
aV14
p724
aVnr
p725
aVnr
p726
aVnr
p727
aV12
p728
aV13
p729
aVnr
p730
aV10
p731
aV13
p732
aV13
p733
aVnr
p734
aV14
p735
aVnr
p736
aVnr
p737
aVnr
p738
aVnr
p739
aVnr
p740
aV14
p741
aV14
p742
aVnr
p743
aV14
p744
aV14
p745
aVnr
p746
aV15
p747
aV11
p748
aVnr
p749
aVnr
p750
aVnr
p751
aVnr
p752
aV13
p753
aVnr
p754
aV13
p755
aVnr
p756
aVnr
p757
aV15
p758
aV14
p759
aV13
p760
aV14
p761
aa(lp762
V05-11-2016
p763
aV9
aVnr
p764
aV13
p765
aV8
aVnr
p766
aV14
p767
aVnr
p768
aVnr
p769
aVnr
p770
aV13
p771
aV14
p772
aVnr
p773
aV10
p774
aV14
p775
aV14
p776
aVnr
p777
aV14
p778
aVnr
p779
aVnr
p780
aVnr
p781
aVnr
p782
aVnr
p783
aV14
p784
aV14
p785
aVnr
p786
aV14
p787
aV14
p788
aVnr
p789
aV16
p790
aV12
p791
aVnr
p792
aVnr
p793
aVnr
p794
aVnr
p795
aV14
p796
aVnr
p797
aV14
p798
aVnr
p799
aVnr
p800
aV15
p801
aV15
p802
aV14
p803
aV15
p804
aasS'co'
p805
(lp806
(lp807
V02-11-2016
p808
aV21
p809
aV0.1
p810
aV0.2
p811
aVnr
p812
aVnr
p813
aV0.5
p814
aVnr
p815
aV0.6
p816
aVnr
p817
aV0.4
p818
aVnr
p819
aV0.8
p820
aV0.6
p821
aVnr
p822
aV0.5
p823
aVnr
p824
aVnr
p825
aVnr
p826
aVnr
p827
aVnr
p828
aV0.0
p829
aV0.7
p830
aVnr
p831
aVnr
p832
aVnr
p833
aVnr
p834
aV0.5
p835
aV0.6
p836
aV0.7
p837
aV0.5
p838
aVnr
p839
aV0.9
p840
aVnr
p841
aV0.7
p842
aVnr
p843
aVnr
p844
aV0.2
p845
aVnr
p846
aVnr
p847
aV0.6
p848
aV0.5
p849
aVnr
p850
aV0.7
p851
aV0.6
p852
aVnr
p853
aV0.4
p854
aV1.2
p855
aa(lp856
V02-11-2016
p857
aV21
p858
aV0.1
p859
aV0.2
p860
aVnr
p861
aVnr
p862
aV0.5
p863
aVnr
p864
aV0.6
p865
aVnr
p866
aV0.4
p867
aVnr
p868
aV0.8
p869
aV0.6
p870
aVnr
p871
aV0.5
p872
aVnr
p873
aVnr
p874
aVnr
p875
aVnr
p876
aVnr
p877
aV0.0
p878
aV0.7
p879
aVnr
p880
aVnr
p881
aVnr
p882
aVnr
p883
aV0.5
p884
aV0.6
p885
aV0.7
p886
aV0.5
p887
aVnr
p888
aV0.9
p889
aVnr
p890
aV0.7
p891
aVnr
p892
aVnr
p893
aV0.2
p894
aVnr
p895
aVnr
p896
aV0.6
p897
aV0.5
p898
aVnr
p899
aV0.7
p900
aV0.6
p901
aVnr
p902
aV0.4
p903
aV1.2
p904
aa(lp905
V02-11-2016
p906
aV21
p907
aV0.1
p908
aV0.2
p909
aVnr
p910
aVnr
p911
aV0.5
p912
aVnr
p913
aV0.6
p914
aVnr
p915
aV0.4
p916
aVnr
p917
aV0.8
p918
aV0.6
p919
aVnr
p920
aV0.5
p921
aVnr
p922
aVnr
p923
aVnr
p924
aVnr
p925
aVnr
p926
aV0.0
p927
aV0.7
p928
aVnr
p929
aVnr
p930
aVnr
p931
aVnr
p932
aV0.5
p933
aV0.6
p934
aV0.7
p935
aV0.5
p936
aVnr
p937
aV0.9
p938
aVnr
p939
aV0.7
p940
aVnr
p941
aVnr
p942
aV0.2
p943
aVnr
p944
aVnr
p945
aV0.6
p946
aV0.5
p947
aVnr
p948
aV0.7
p949
aV0.6
p950
aVnr
p951
aV0.4
p952
aV1.2
p953
aa(lp954
V02-11-2016
p955
aV21
p956
aV0.1
p957
aV0.2
p958
aVnr
p959
aVnr
p960
aV0.5
p961
aVnr
p962
aV0.6
p963
aVnr
p964
aV0.4
p965
aVnr
p966
aV0.8
p967
aV0.6
p968
aVnr
p969
aV0.5
p970
aVnr
p971
aVnr
p972
aVnr
p973
aVnr
p974
aVnr
p975
aV0.0
p976
aV0.7
p977
aVnr
p978
aVnr
p979
aVnr
p980
aVnr
p981
aV0.5
p982
aV0.6
p983
aV0.7
p984
aV0.5
p985
aVnr
p986
aV0.9
p987
aVnr
p988
aV0.7
p989
aVnr
p990
aVnr
p991
aV0.2
p992
aVnr
p993
aVnr
p994
aV0.6
p995
aV0.5
p996
aVnr
p997
aV0.7
p998
aV0.6
p999
aVnr
p1000
aV0.4
p1001
aV1.2
p1002
aa(lp1003
V02-11-2016
p1004
aV21
p1005
aV0.1
p1006
aV0.2
p1007
aVnr
p1008
aVnr
p1009
aV0.5
p1010
aVnr
p1011
aV0.6
p1012
aVnr
p1013
aV0.4
p1014
aVnr
p1015
aV0.8
p1016
aV0.6
p1017
aVnr
p1018
aV0.5
p1019
aVnr
p1020
aVnr
p1021
aVnr
p1022
aVnr
p1023
aVnr
p1024
aV0.0
p1025
aV0.7
p1026
aVnr
p1027
aVnr
p1028
aVnr
p1029
aVnr
p1030
aV0.5
p1031
aV0.6
p1032
aV0.7
p1033
aV0.5
p1034
aVnr
p1035
aV0.9
p1036
aVnr
p1037
aV0.7
p1038
aVnr
p1039
aVnr
p1040
aV0.2
p1041
aVnr
p1042
aVnr
p1043
aV0.6
p1044
aV0.5
p1045
aVnr
p1046
aV0.7
p1047
aV0.6
p1048
aVnr
p1049
aV0.4
p1050
aV1.2
p1051
aa(lp1052
V02-11-2016
p1053
aV21
p1054
aV0.1
p1055
aV0.2
p1056
aVnr
p1057
aVnr
p1058
aV0.5
p1059
aVnr
p1060
aV0.6
p1061
aVnr
p1062
aV0.4
p1063
aVnr
p1064
aV0.8
p1065
aV0.6
p1066
aVnr
p1067
aV0.5
p1068
aVnr
p1069
aVnr
p1070
aVnr
p1071
aVnr
p1072
aVnr
p1073
aV0.0
p1074
aV0.7
p1075
aVnr
p1076
aVnr
p1077
aVnr
p1078
aVnr
p1079
aV0.5
p1080
aV0.6
p1081
aV0.7
p1082
aV0.5
p1083
aVnr
p1084
aV0.9
p1085
aVnr
p1086
aV0.7
p1087
aVnr
p1088
aVnr
p1089
aV0.2
p1090
aVnr
p1091
aVnr
p1092
aV0.6
p1093
aV0.5
p1094
aVnr
p1095
aV0.7
p1096
aV0.6
p1097
aVnr
p1098
aV0.4
p1099
aV1.2
p1100
aa(lp1101
V02-11-2016
p1102
aV21
p1103
aV0.1
p1104
aV0.2
p1105
aVnr
p1106
aVnr
p1107
aV0.5
p1108
aVnr
p1109
aV0.6
p1110
aVnr
p1111
aV0.4
p1112
aVnr
p1113
aV0.8
p1114
aV0.6
p1115
aVnr
p1116
aV0.5
p1117
aVnr
p1118
aVnr
p1119
aVnr
p1120
aVnr
p1121
aVnr
p1122
aV0.0
p1123
aV0.7
p1124
aVnr
p1125
aVnr
p1126
aVnr
p1127
aVnr
p1128
aV0.5
p1129
aV0.6
p1130
aV0.7
p1131
aV0.5
p1132
aVnr
p1133
aV0.9
p1134
aVnr
p1135
aV0.7
p1136
aVnr
p1137
aVnr
p1138
aV0.2
p1139
aVnr
p1140
aVnr
p1141
aV0.6
p1142
aV0.5
p1143
aVnr
p1144
aV0.7
p1145
aV0.6
p1146
aVnr
p1147
aV0.4
p1148
aV1.2
p1149
aa(lp1150
V02-11-2016
p1151
aV21
p1152
aV0.1
p1153
aV0.2
p1154
aVnr
p1155
aVnr
p1156
aV0.5
p1157
aVnr
p1158
aV0.6
p1159
aVnr
p1160
aV0.4
p1161
aVnr
p1162
aV0.8
p1163
aV0.6
p1164
aVnr
p1165
aV0.5
p1166
aVnr
p1167
aVnr
p1168
aVnr
p1169
aVnr
p1170
aVnr
p1171
aV0.0
p1172
aV0.7
p1173
aVnr
p1174
aVnr
p1175
aVnr
p1176
aVnr
p1177
aV0.5
p1178
aV0.6
p1179
aV0.7
p1180
aV0.5
p1181
aVnr
p1182
aV0.9
p1183
aVnr
p1184
aV0.7
p1185
aVnr
p1186
aVnr
p1187
aV0.2
p1188
aVnr
p1189
aVnr
p1190
aV0.6
p1191
aV0.5
p1192
aVnr
p1193
aV0.7
p1194
aV0.6
p1195
aVnr
p1196
aV0.4
p1197
aV1.2
p1198
aa(lp1199
V02-11-2016
p1200
aV22
p1201
aV0.3
p1202
aV0.2
p1203
aVnr
p1204
aVnr
p1205
aV0.6
p1206
aVnr
p1207
aV0.7
p1208
aVnr
p1209
aV0.6
p1210
aVnr
p1211
aV0.9
p1212
aV0.6
p1213
aVnr
p1214
aV0.5
p1215
aVnr
p1216
aVnr
p1217
aVnr
p1218
aVnr
p1219
aVnr
p1220
aV0.1
p1221
aV0.8
p1222
aVnr
p1223
aVnr
p1224
aV0.8
p1225
aVnr
p1226
aVnr
p1227
aV0.5
p1228
aV0.5
p1229
aV0.5
p1230
aVnr
p1231
aV0.9
p1232
aVnr
p1233
aVnr
p1234
aVnr
p1235
aVnr
p1236
aV0.2
p1237
aVnr
p1238
aVnr
p1239
aV0.6
p1240
aV0.4
p1241
aVnr
p1242
aV0.5
p1243
aV0.6
p1244
aVnr
p1245
aV0.5
p1246
aV1.0
p1247
aa(lp1248
V02-11-2016
p1249
aV22
p1250
aV0.3
p1251
aV0.2
p1252
aVnr
p1253
aVnr
p1254
aV0.6
p1255
aVnr
p1256
aV0.7
p1257
aVnr
p1258
aV0.6
p1259
aVnr
p1260
aV0.9
p1261
aV0.6
p1262
aVnr
p1263
aV0.5
p1264
aVnr
p1265
aVnr
p1266
aVnr
p1267
aVnr
p1268
aVnr
p1269
aV0.1
p1270
aV0.8
p1271
aVnr
p1272
aVnr
p1273
aV0.8
p1274
aVnr
p1275
aVnr
p1276
aV0.5
p1277
aV0.5
p1278
aV0.5
p1279
aVnr
p1280
aV0.9
p1281
aVnr
p1282
aVnr
p1283
aVnr
p1284
aVnr
p1285
aV0.2
p1286
aVnr
p1287
aVnr
p1288
aV0.6
p1289
aV0.4
p1290
aVnr
p1291
aV0.5
p1292
aV0.6
p1293
aVnr
p1294
aV0.5
p1295
aV1.0
p1296
aa(lp1297
V02-11-2016
p1298
aV22
p1299
aV0.3
p1300
aV0.2
p1301
aVnr
p1302
aVnr
p1303
aV0.6
p1304
aVnr
p1305
aV0.7
p1306
aVnr
p1307
aV0.6
p1308
aVnr
p1309
aV0.9
p1310
aV0.6
p1311
aVnr
p1312
aV0.5
p1313
aVnr
p1314
aVnr
p1315
aVnr
p1316
aVnr
p1317
aVnr
p1318
aV0.1
p1319
aV0.8
p1320
aVnr
p1321
aVnr
p1322
aV0.8
p1323
aVnr
p1324
aVnr
p1325
aV0.5
p1326
aV0.5
p1327
aV0.5
p1328
aVnr
p1329
aV0.9
p1330
aVnr
p1331
aVnr
p1332
aVnr
p1333
aVnr
p1334
aV0.2
p1335
aVnr
p1336
aVnr
p1337
aV0.6
p1338
aV0.4
p1339
aVnr
p1340
aV0.5
p1341
aV0.6
p1342
aVnr
p1343
aV0.5
p1344
aV1.0
p1345
aa(lp1346
V02-11-2016
p1347
aV23
p1348
aV0.5
p1349
aV0.2
p1350
aVnr
p1351
aVnr
p1352
aV0.7
p1353
aVnr
p1354
aV0.9
p1355
aVnr
p1356
aV0.6
p1357
aVnr
p1358
aV0.8
p1359
aV1.0
p1360
aVnr
p1361
aV0.6
p1362
aVnr
p1363
aVnr
p1364
aVnr
p1365
aVnr
p1366
aVnr
p1367
aV0.1
p1368
aV1.0
p1369
aVnr
p1370
aVnr
p1371
aV0.7
p1372
aVnr
p1373
aV0.7
p1374
aV0.2
p1375
aV0.6
p1376
aV0.4
p1377
aVnr
p1378
aV0.9
p1379
aVnr
p1380
aV0.7
p1381
aVnr
p1382
aVnr
p1383
aV0.3
p1384
aVnr
p1385
aVnr
p1386
aV0.6
p1387
aV0.4
p1388
aVnr
p1389
aV0.8
p1390
aV0.8
p1391
aVnr
p1392
aV0.5
p1393
aV1.1
p1394
aa(lp1395
V02-11-2016
p1396
aV23
p1397
aV0.5
p1398
aV0.2
p1399
aVnr
p1400
aVnr
p1401
aV0.7
p1402
aVnr
p1403
aV0.9
p1404
aVnr
p1405
aV0.6
p1406
aVnr
p1407
aV0.8
p1408
aV1.0
p1409
aVnr
p1410
aV0.6
p1411
aVnr
p1412
aVnr
p1413
aVnr
p1414
aVnr
p1415
aVnr
p1416
aV0.1
p1417
aV1.0
p1418
aVnr
p1419
aVnr
p1420
aV0.7
p1421
aVnr
p1422
aV0.7
p1423
aV0.2
p1424
aV0.6
p1425
aV0.4
p1426
aVnr
p1427
aV0.9
p1428
aVnr
p1429
aV0.7
p1430
aVnr
p1431
aVnr
p1432
aV0.3
p1433
aVnr
p1434
aVnr
p1435
aV0.6
p1436
aV0.4
p1437
aVnr
p1438
aV0.8
p1439
aV0.8
p1440
aVnr
p1441
aV0.5
p1442
aV1.1
p1443
aa(lp1444
V02-11-2016
p1445
aV23
p1446
aV0.5
p1447
aV0.2
p1448
aVnr
p1449
aVnr
p1450
aV0.7
p1451
aVnr
p1452
aV0.9
p1453
aVnr
p1454
aV0.6
p1455
aVnr
p1456
aV0.8
p1457
aV1.0
p1458
aVnr
p1459
aV0.6
p1460
aVnr
p1461
aVnr
p1462
aVnr
p1463
aVnr
p1464
aVnr
p1465
aV0.1
p1466
aV1.0
p1467
aVnr
p1468
aVnr
p1469
aV0.7
p1470
aVnr
p1471
aV0.7
p1472
aV0.2
p1473
aV0.6
p1474
aV0.4
p1475
aVnr
p1476
aV0.9
p1477
aVnr
p1478
aV0.7
p1479
aVnr
p1480
aVnr
p1481
aV0.3
p1482
aVnr
p1483
aVnr
p1484
aV0.6
p1485
aV0.4
p1486
aVnr
p1487
aV0.8
p1488
aV0.8
p1489
aVnr
p1490
aV0.5
p1491
aV1.1
p1492
aa(lp1493
V02-11-2016
p1494
aV23
p1495
aV0.5
p1496
aV0.2
p1497
aVnr
p1498
aVnr
p1499
aV0.7
p1500
aVnr
p1501
aV0.9
p1502
aVnr
p1503
aV0.6
p1504
aVnr
p1505
aV0.8
p1506
aV1.0
p1507
aVnr
p1508
aV0.6
p1509
aVnr
p1510
aVnr
p1511
aVnr
p1512
aVnr
p1513
aVnr
p1514
aV0.1
p1515
aV1.0
p1516
aVnr
p1517
aVnr
p1518
aV0.7
p1519
aVnr
p1520
aV0.7
p1521
aV0.2
p1522
aV0.6
p1523
aV0.4
p1524
aVnr
p1525
aV0.9
p1526
aVnr
p1527
aV0.7
p1528
aVnr
p1529
aVnr
p1530
aV0.3
p1531
aVnr
p1532
aVnr
p1533
aV0.6
p1534
aV0.4
p1535
aVnr
p1536
aV0.8
p1537
aV0.8
p1538
aVnr
p1539
aV0.5
p1540
aV1.1
p1541
aa(lp1542
V02-11-2016
p1543
aV24
p1544
aV0.5
p1545
aV0.3
p1546
aVnr
p1547
aVnr
p1548
aV0.4
p1549
aVnr
p1550
aV1.0
p1551
aVnr
p1552
aV0.6
p1553
aVnr
p1554
aV0.7
p1555
aV0.9
p1556
aVnr
p1557
aV0.6
p1558
aVnr
p1559
aVnr
p1560
aVnr
p1561
aVnr
p1562
aVnr
p1563
aV0.1
p1564
aV1.3
p1565
aVnr
p1566
aVnr
p1567
aV0.7
p1568
aVnr
p1569
aV0.7
p1570
aV0.3
p1571
aV0.6
p1572
aV0.5
p1573
aVnr
p1574
aV0.9
p1575
aVnr
p1576
aV0.8
p1577
aVnr
p1578
aVnr
p1579
aV0.5
p1580
aVnr
p1581
aVnr
p1582
aV0.9
p1583
aV0.3
p1584
aVnr
p1585
aV0.8
p1586
aV0.9
p1587
aVnr
p1588
aV0.6
p1589
aV1.2
p1590
aa(lp1591
V05-11-2016
p1592
aV8
aVnr
p1593
aV0.4
p1594
aVnr
p1595
aVnr
p1596
aV0.4
p1597
aVnr
p1598
aV0.6
p1599
aV0.7
p1600
aV0.5
p1601
aVnr
p1602
aV0.4
p1603
aV0.7
p1604
aVnr
p1605
aV0.4
p1606
aVnr
p1607
aV0.3
p1608
aVnr
p1609
aV0.2
p1610
aVnr
p1611
aV0.0
p1612
aV0.7
p1613
aVnr
p1614
aVnr
p1615
aVnr
p1616
aV1.2
p1617
aV0.6
p1618
aV0.3
p1619
aV0.4
p1620
aV0.5
p1621
aVnr
p1622
aV0.6
p1623
aVnr
p1624
aV0.6
p1625
aVnr
p1626
aVnr
p1627
aV0.4
p1628
aVnr
p1629
aVnr
p1630
aV0.7
p1631
aV0.0
p1632
aVnr
p1633
aV0.3
p1634
aV0.6
p1635
aVnr
p1636
aV0.3
p1637
aV0.5
p1638
aa(lp1639
V05-11-2016
p1640
aV9
aVnr
p1641
aV0.3
p1642
aVnr
p1643
aVnr
p1644
aV0.2
p1645
aVnr
p1646
aV0.5
p1647
aV0.6
p1648
aV0.4
p1649
aVnr
p1650
aV0.3
p1651
aV0.5
p1652
aVnr
p1653
aV0.4
p1654
aVnr
p1655
aV0.2
p1656
aVnr
p1657
aV0.2
p1658
aVnr
p1659
aV0.0
p1660
aV0.7
p1661
aVnr
p1662
aVnr
p1663
aV0.5
p1664
aV1.0
p1665
aV0.5
p1666
aV0.3
p1667
aV0.3
p1668
aV0.4
p1669
aVnr
p1670
aV0.7
p1671
aVnr
p1672
aV0.6
p1673
aVnr
p1674
aVnr
p1675
aV0.4
p1676
aVnr
p1677
aVnr
p1678
aV0.7
p1679
aV0.1
p1680
aVnr
p1681
aV0.3
p1682
aV0.6
p1683
aVnr
p1684
aV0.3
p1685
aV0.6
p1686
aasS'pm2'
p1687
(lp1688
(lp1689
V02-11-2016
p1690
aV21
p1691
aVnr
p1692
aV9
aV3
aVnr
p1693
aV17
p1694
aVnr
p1695
aV11
p1696
aVnr
p1697
aVnr
p1698
aV23
p1699
aVnr
p1700
aVnr
p1701
aVnr
p1702
aVnr
p1703
aV21
p1704
aV14
p1705
aVnr
p1706
aVnr
p1707
aVnr
p1708
aVnr
p1709
aV13
p1710
aV28
p1711
aVnr
p1712
aVnr
p1713
aV12
p1714
aVnr
p1715
aVnr
p1716
aVnr
p1717
aVnr
p1718
aVnr
p1719
aV13
p1720
aVnr
p1721
aVnr
p1722
aV22
p1723
aVnr
p1724
aVnr
p1725
aV7
aa(lp1726
V02-11-2016
p1727
aV21
p1728
aVnr
p1729
aV9
aV3
aVnr
p1730
aV17
p1731
aVnr
p1732
aV11
p1733
aVnr
p1734
aVnr
p1735
aV23
p1736
aVnr
p1737
aVnr
p1738
aVnr
p1739
aVnr
p1740
aV21
p1741
aV14
p1742
aVnr
p1743
aVnr
p1744
aVnr
p1745
aVnr
p1746
aV13
p1747
aV28
p1748
aVnr
p1749
aVnr
p1750
aV12
p1751
aVnr
p1752
aVnr
p1753
aVnr
p1754
aVnr
p1755
aVnr
p1756
aV13
p1757
aVnr
p1758
aVnr
p1759
aV22
p1760
aVnr
p1761
aVnr
p1762
aV7
aa(lp1763
V02-11-2016
p1764
aV21
p1765
aVnr
p1766
aV9
aV3
aVnr
p1767
aV17
p1768
aVnr
p1769
aV11
p1770
aVnr
p1771
aVnr
p1772
aV23
p1773
aVnr
p1774
aVnr
p1775
aVnr
p1776
aVnr
p1777
aV21
p1778
aV14
p1779
aVnr
p1780
aVnr
p1781
aVnr
p1782
aVnr
p1783
aV13
p1784
aV28
p1785
aVnr
p1786
aVnr
p1787
aV12
p1788
aVnr
p1789
aVnr
p1790
aVnr
p1791
aVnr
p1792
aVnr
p1793
aV13
p1794
aVnr
p1795
aVnr
p1796
aV22
p1797
aVnr
p1798
aVnr
p1799
aV7
aa(lp1800
V02-11-2016
p1801
aV21
p1802
aVnr
p1803
aV9
aV3
aVnr
p1804
aV17
p1805
aVnr
p1806
aV11
p1807
aVnr
p1808
aVnr
p1809
aV23
p1810
aVnr
p1811
aVnr
p1812
aVnr
p1813
aVnr
p1814
aV21
p1815
aV14
p1816
aVnr
p1817
aVnr
p1818
aVnr
p1819
aVnr
p1820
aV13
p1821
aV28
p1822
aVnr
p1823
aVnr
p1824
aV12
p1825
aVnr
p1826
aVnr
p1827
aVnr
p1828
aVnr
p1829
aVnr
p1830
aV13
p1831
aVnr
p1832
aVnr
p1833
aV22
p1834
aVnr
p1835
aVnr
p1836
aV7
aa(lp1837
V02-11-2016
p1838
aV21
p1839
aVnr
p1840
aV9
aV3
aVnr
p1841
aV17
p1842
aVnr
p1843
aV11
p1844
aVnr
p1845
aVnr
p1846
aV23
p1847
aVnr
p1848
aVnr
p1849
aVnr
p1850
aVnr
p1851
aV21
p1852
aV14
p1853
aVnr
p1854
aVnr
p1855
aVnr
p1856
aVnr
p1857
aV13
p1858
aV28
p1859
aVnr
p1860
aVnr
p1861
aV12
p1862
aVnr
p1863
aVnr
p1864
aVnr
p1865
aVnr
p1866
aVnr
p1867
aV13
p1868
aVnr
p1869
aVnr
p1870
aV22
p1871
aVnr
p1872
aVnr
p1873
aV7
aa(lp1874
V02-11-2016
p1875
aV21
p1876
aVnr
p1877
aV9
aV3
aVnr
p1878
aV17
p1879
aVnr
p1880
aV11
p1881
aVnr
p1882
aVnr
p1883
aV23
p1884
aVnr
p1885
aVnr
p1886
aVnr
p1887
aVnr
p1888
aV21
p1889
aV14
p1890
aVnr
p1891
aVnr
p1892
aVnr
p1893
aVnr
p1894
aV13
p1895
aV28
p1896
aVnr
p1897
aVnr
p1898
aV12
p1899
aVnr
p1900
aVnr
p1901
aVnr
p1902
aVnr
p1903
aVnr
p1904
aV13
p1905
aVnr
p1906
aVnr
p1907
aV22
p1908
aVnr
p1909
aVnr
p1910
aV7
aa(lp1911
V02-11-2016
p1912
aV21
p1913
aVnr
p1914
aV9
aV3
aVnr
p1915
aV17
p1916
aVnr
p1917
aV11
p1918
aVnr
p1919
aVnr
p1920
aV23
p1921
aVnr
p1922
aVnr
p1923
aVnr
p1924
aVnr
p1925
aV21
p1926
aV14
p1927
aVnr
p1928
aVnr
p1929
aVnr
p1930
aVnr
p1931
aV13
p1932
aV28
p1933
aVnr
p1934
aVnr
p1935
aV12
p1936
aVnr
p1937
aVnr
p1938
aVnr
p1939
aVnr
p1940
aVnr
p1941
aV13
p1942
aVnr
p1943
aVnr
p1944
aV22
p1945
aVnr
p1946
aVnr
p1947
aV7
aa(lp1948
V02-11-2016
p1949
aV21
p1950
aVnr
p1951
aV9
aV3
aVnr
p1952
aV17
p1953
aVnr
p1954
aV11
p1955
aVnr
p1956
aVnr
p1957
aV23
p1958
aVnr
p1959
aVnr
p1960
aVnr
p1961
aVnr
p1962
aV21
p1963
aV14
p1964
aVnr
p1965
aVnr
p1966
aVnr
p1967
aVnr
p1968
aV13
p1969
aV28
p1970
aVnr
p1971
aVnr
p1972
aV12
p1973
aVnr
p1974
aVnr
p1975
aVnr
p1976
aVnr
p1977
aVnr
p1978
aV13
p1979
aVnr
p1980
aVnr
p1981
aV22
p1982
aVnr
p1983
aVnr
p1984
aV7
aa(lp1985
V02-11-2016
p1986
aV22
p1987
aVnr
p1988
aV5
aV6
aVnr
p1989
aV15
p1990
aVnr
p1991
aV6
aVnr
p1992
aVnr
p1993
aV20
p1994
aVnr
p1995
aVnr
p1996
aVnr
p1997
aVnr
p1998
aV21
p1999
aV7
aVnr
p2000
aVnr
p2001
aVnr
p2002
aVnr
p2003
aVnr
p2004
aV39
p2005
aVnr
p2006
aVnr
p2007
aV15
p2008
aVnr
p2009
aVnr
p2010
aVnr
p2011
aVnr
p2012
aVnr
p2013
aV15
p2014
aVnr
p2015
aVnr
p2016
aV18
p2017
aVnr
p2018
aVnr
p2019
aV20
p2020
aa(lp2021
V02-11-2016
p2022
aV22
p2023
aVnr
p2024
aV5
aV6
aVnr
p2025
aV15
p2026
aVnr
p2027
aV6
aVnr
p2028
aVnr
p2029
aV20
p2030
aVnr
p2031
aVnr
p2032
aVnr
p2033
aVnr
p2034
aV21
p2035
aV7
aVnr
p2036
aVnr
p2037
aVnr
p2038
aVnr
p2039
aVnr
p2040
aV39
p2041
aVnr
p2042
aVnr
p2043
aV15
p2044
aVnr
p2045
aVnr
p2046
aVnr
p2047
aVnr
p2048
aVnr
p2049
aV15
p2050
aVnr
p2051
aVnr
p2052
aV18
p2053
aVnr
p2054
aVnr
p2055
aV20
p2056
aa(lp2057
V02-11-2016
p2058
aV22
p2059
aVnr
p2060
aV5
aV6
aVnr
p2061
aV15
p2062
aVnr
p2063
aV6
aVnr
p2064
aVnr
p2065
aV20
p2066
aVnr
p2067
aVnr
p2068
aVnr
p2069
aVnr
p2070
aV21
p2071
aV7
aVnr
p2072
aVnr
p2073
aVnr
p2074
aVnr
p2075
aVnr
p2076
aV39
p2077
aVnr
p2078
aVnr
p2079
aV15
p2080
aVnr
p2081
aVnr
p2082
aVnr
p2083
aVnr
p2084
aVnr
p2085
aV15
p2086
aVnr
p2087
aVnr
p2088
aV18
p2089
aVnr
p2090
aVnr
p2091
aV20
p2092
aa(lp2093
V02-11-2016
p2094
aV23
p2095
aVnr
p2096
aV2
aV4
aVnr
p2097
aV12
p2098
aVnr
p2099
aV8
aVnr
p2100
aVnr
p2101
aV17
p2102
aVnr
p2103
aVnr
p2104
aVnr
p2105
aVnr
p2106
aV17
p2107
aV7
aVnr
p2108
aVnr
p2109
aVnr
p2110
aVnr
p2111
aV9
aV30
p2112
aVnr
p2113
aVnr
p2114
aV20
p2115
aVnr
p2116
aVnr
p2117
aVnr
p2118
aVnr
p2119
aVnr
p2120
aV14
p2121
aVnr
p2122
aVnr
p2123
aV21
p2124
aVnr
p2125
aVnr
p2126
aV21
p2127
aa(lp2128
V02-11-2016
p2129
aV23
p2130
aVnr
p2131
aV2
aV4
aVnr
p2132
aV12
p2133
aVnr
p2134
aV8
aVnr
p2135
aVnr
p2136
aV17
p2137
aVnr
p2138
aVnr
p2139
aVnr
p2140
aVnr
p2141
aV17
p2142
aV7
aVnr
p2143
aVnr
p2144
aVnr
p2145
aVnr
p2146
aV9
aV30
p2147
aVnr
p2148
aVnr
p2149
aV20
p2150
aVnr
p2151
aVnr
p2152
aVnr
p2153
aVnr
p2154
aVnr
p2155
aV14
p2156
aVnr
p2157
aVnr
p2158
aV21
p2159
aVnr
p2160
aVnr
p2161
aV21
p2162
aa(lp2163
V02-11-2016
p2164
aV23
p2165
aVnr
p2166
aV2
aV4
aVnr
p2167
aV12
p2168
aVnr
p2169
aV8
aVnr
p2170
aVnr
p2171
aV17
p2172
aVnr
p2173
aVnr
p2174
aVnr
p2175
aVnr
p2176
aV17
p2177
aV7
aVnr
p2178
aVnr
p2179
aVnr
p2180
aVnr
p2181
aV9
aV30
p2182
aVnr
p2183
aVnr
p2184
aV20
p2185
aVnr
p2186
aVnr
p2187
aVnr
p2188
aVnr
p2189
aVnr
p2190
aV14
p2191
aVnr
p2192
aVnr
p2193
aV21
p2194
aVnr
p2195
aVnr
p2196
aV21
p2197
aa(lp2198
V02-11-2016
p2199
aV23
p2200
aVnr
p2201
aV2
aV4
aVnr
p2202
aV12
p2203
aVnr
p2204
aV8
aVnr
p2205
aVnr
p2206
aV17
p2207
aVnr
p2208
aVnr
p2209
aVnr
p2210
aVnr
p2211
aV17
p2212
aV7
aVnr
p2213
aVnr
p2214
aVnr
p2215
aVnr
p2216
aV9
aV30
p2217
aVnr
p2218
aVnr
p2219
aV20
p2220
aVnr
p2221
aVnr
p2222
aVnr
p2223
aVnr
p2224
aVnr
p2225
aV14
p2226
aVnr
p2227
aVnr
p2228
aV21
p2229
aVnr
p2230
aVnr
p2231
aV21
p2232
aa(lp2233
V02-11-2016
p2234
aV24
p2235
aVnr
p2236
aV6
aV1
aVnr
p2237
aV11
p2238
aVnr
p2239
aV10
p2240
aVnr
p2241
aVnr
p2242
aV16
p2243
aVnr
p2244
aVnr
p2245
aVnr
p2246
aVnr
p2247
aV16
p2248
aV8
aVnr
p2249
aVnr
p2250
aVnr
p2251
aVnr
p2252
aV7
aV9
aVnr
p2253
aVnr
p2254
aV20
p2255
aVnr
p2256
aVnr
p2257
aVnr
p2258
aVnr
p2259
aVnr
p2260
aV17
p2261
aVnr
p2262
aVnr
p2263
aV5
aVnr
p2264
aVnr
p2265
aV14
p2266
aa(lp2267
V05-11-2016
p2268
aV8
aVnr
p2269
aV7
aV6
aVnr
p2270
aV7
aV17
p2271
aV9
aVnr
p2272
aVnr
p2273
aV7
aVnr
p2274
aVnr
p2275
aVnr
p2276
aVnr
p2277
aV14
p2278
aV4
aVnr
p2279
aVnr
p2280
aVnr
p2281
aV7
aV12
p2282
aV7
aV3
aVnr
p2283
aV5
aVnr
p2284
aVnr
p2285
aVnr
p2286
aVnr
p2287
aVnr
p2288
aV5
aVnr
p2289
aVnr
p2290
aV3
aVnr
p2291
aVnr
p2292
aV6
aa(lp2293
V05-11-2016
p2294
aV9
aVnr
p2295
aV8
aV4
aVnr
p2296
aV11
p2297
aV13
p2298
aV8
aVnr
p2299
aVnr
p2300
aV13
p2301
aVnr
p2302
aVnr
p2303
aVnr
p2304
aVnr
p2305
aV15
p2306
aV2
aVnr
p2307
aVnr
p2308
aVnr
p2309
aV30
p2310
aV8
aV8
aV7
aVnr
p2311
aV6
aVnr
p2312
aVnr
p2313
aVnr
p2314
aVnr
p2315
aVnr
p2316
aVnr
p2317
aVnr
p2318
aVnr
p2319
aV7
aVnr
p2320
aVnr
p2321
aV9
aasS'pm10'
p2322
(lp2323
(lp2324
V02-11-2016
p2325
aV21
p2326
aV27
p2327
aV12
p2328
aVnr
p2329
aV24
p2330
aV22
p2331
aVnr
p2332
aVnr
p2333
aVnr
p2334
aVnr
p2335
aV46
p2336
aVnr
p2337
aV17
p2338
aV41
p2339
aVnr
p2340
aVnr
p2341
aV26
p2342
aV16
p2343
aV29
p2344
aVnr
p2345
aVnr
p2346
aVnr
p2347
aVnr
p2348
aV17
p2349
aV33
p2350
aVnr
p2351
aVnr
p2352
aVnr
p2353
aV27
p2354
aVnr
p2355
aVnr
p2356
aVnr
p2357
aVnr
p2358
aVnr
p2359
aVnr
p2360
aV21
p2361
aV33
p2362
aVnr
p2363
aVnr
p2364
aVnr
p2365
aV41
p2366
aV32
p2367
aa(lp2368
V02-11-2016
p2369
aV21
p2370
aV27
p2371
aV12
p2372
aVnr
p2373
aV24
p2374
aV22
p2375
aVnr
p2376
aVnr
p2377
aVnr
p2378
aVnr
p2379
aV46
p2380
aVnr
p2381
aV17
p2382
aV41
p2383
aVnr
p2384
aVnr
p2385
aV26
p2386
aV16
p2387
aV29
p2388
aVnr
p2389
aVnr
p2390
aVnr
p2391
aVnr
p2392
aV17
p2393
aV33
p2394
aVnr
p2395
aVnr
p2396
aVnr
p2397
aV27
p2398
aVnr
p2399
aVnr
p2400
aVnr
p2401
aVnr
p2402
aVnr
p2403
aVnr
p2404
aV21
p2405
aV33
p2406
aVnr
p2407
aVnr
p2408
aVnr
p2409
aV41
p2410
aV32
p2411
aa(lp2412
V02-11-2016
p2413
aV21
p2414
aV27
p2415
aV12
p2416
aVnr
p2417
aV24
p2418
aV22
p2419
aVnr
p2420
aVnr
p2421
aVnr
p2422
aVnr
p2423
aV46
p2424
aVnr
p2425
aV17
p2426
aV41
p2427
aVnr
p2428
aVnr
p2429
aV26
p2430
aV16
p2431
aV29
p2432
aVnr
p2433
aVnr
p2434
aVnr
p2435
aVnr
p2436
aV17
p2437
aV33
p2438
aVnr
p2439
aVnr
p2440
aVnr
p2441
aV27
p2442
aVnr
p2443
aVnr
p2444
aVnr
p2445
aVnr
p2446
aVnr
p2447
aVnr
p2448
aV21
p2449
aV33
p2450
aVnr
p2451
aVnr
p2452
aVnr
p2453
aV41
p2454
aV32
p2455
aa(lp2456
V02-11-2016
p2457
aV21
p2458
aV27
p2459
aV12
p2460
aVnr
p2461
aV24
p2462
aV22
p2463
aVnr
p2464
aVnr
p2465
aVnr
p2466
aVnr
p2467
aV46
p2468
aVnr
p2469
aV17
p2470
aV41
p2471
aVnr
p2472
aVnr
p2473
aV26
p2474
aV16
p2475
aV29
p2476
aVnr
p2477
aVnr
p2478
aVnr
p2479
aVnr
p2480
aV17
p2481
aV33
p2482
aVnr
p2483
aVnr
p2484
aVnr
p2485
aV27
p2486
aVnr
p2487
aVnr
p2488
aVnr
p2489
aVnr
p2490
aVnr
p2491
aVnr
p2492
aV21
p2493
aV33
p2494
aVnr
p2495
aVnr
p2496
aVnr
p2497
aV41
p2498
aV32
p2499
aa(lp2500
V02-11-2016
p2501
aV21
p2502
aV27
p2503
aV12
p2504
aVnr
p2505
aV24
p2506
aV22
p2507
aVnr
p2508
aVnr
p2509
aVnr
p2510
aVnr
p2511
aV46
p2512
aVnr
p2513
aV17
p2514
aV41
p2515
aVnr
p2516
aVnr
p2517
aV26
p2518
aV16
p2519
aV29
p2520
aVnr
p2521
aVnr
p2522
aVnr
p2523
aVnr
p2524
aV17
p2525
aV33
p2526
aVnr
p2527
aVnr
p2528
aVnr
p2529
aV27
p2530
aVnr
p2531
aVnr
p2532
aVnr
p2533
aVnr
p2534
aVnr
p2535
aVnr
p2536
aV21
p2537
aV33
p2538
aVnr
p2539
aVnr
p2540
aVnr
p2541
aV41
p2542
aV32
p2543
aa(lp2544
V02-11-2016
p2545
aV21
p2546
aV27
p2547
aV12
p2548
aVnr
p2549
aV24
p2550
aV22
p2551
aVnr
p2552
aVnr
p2553
aVnr
p2554
aVnr
p2555
aV46
p2556
aVnr
p2557
aV17
p2558
aV41
p2559
aVnr
p2560
aVnr
p2561
aV26
p2562
aV16
p2563
aV29
p2564
aVnr
p2565
aVnr
p2566
aVnr
p2567
aVnr
p2568
aV17
p2569
aV33
p2570
aVnr
p2571
aVnr
p2572
aVnr
p2573
aV27
p2574
aVnr
p2575
aVnr
p2576
aVnr
p2577
aVnr
p2578
aVnr
p2579
aVnr
p2580
aV21
p2581
aV33
p2582
aVnr
p2583
aVnr
p2584
aVnr
p2585
aV41
p2586
aV32
p2587
aa(lp2588
V02-11-2016
p2589
aV21
p2590
aV27
p2591
aV12
p2592
aVnr
p2593
aV24
p2594
aV22
p2595
aVnr
p2596
aVnr
p2597
aVnr
p2598
aVnr
p2599
aV46
p2600
aVnr
p2601
aV17
p2602
aV41
p2603
aVnr
p2604
aVnr
p2605
aV26
p2606
aV16
p2607
aV29
p2608
aVnr
p2609
aVnr
p2610
aVnr
p2611
aVnr
p2612
aV17
p2613
aV33
p2614
aVnr
p2615
aVnr
p2616
aVnr
p2617
aV27
p2618
aVnr
p2619
aVnr
p2620
aVnr
p2621
aVnr
p2622
aVnr
p2623
aVnr
p2624
aV21
p2625
aV33
p2626
aVnr
p2627
aVnr
p2628
aVnr
p2629
aV41
p2630
aV32
p2631
aa(lp2632
V02-11-2016
p2633
aV21
p2634
aV27
p2635
aV12
p2636
aVnr
p2637
aV24
p2638
aV22
p2639
aVnr
p2640
aVnr
p2641
aVnr
p2642
aVnr
p2643
aV46
p2644
aVnr
p2645
aV17
p2646
aV41
p2647
aVnr
p2648
aVnr
p2649
aV26
p2650
aV16
p2651
aV29
p2652
aVnr
p2653
aVnr
p2654
aVnr
p2655
aVnr
p2656
aV17
p2657
aV33
p2658
aVnr
p2659
aVnr
p2660
aVnr
p2661
aV27
p2662
aVnr
p2663
aVnr
p2664
aVnr
p2665
aVnr
p2666
aVnr
p2667
aVnr
p2668
aV21
p2669
aV33
p2670
aVnr
p2671
aVnr
p2672
aVnr
p2673
aV41
p2674
aV32
p2675
aa(lp2676
V02-11-2016
p2677
aV22
p2678
aV23
p2679
aV8
aVnr
p2680
aV31
p2681
aV19
p2682
aVnr
p2683
aVnr
p2684
aVnr
p2685
aVnr
p2686
aV11
p2687
aVnr
p2688
aV11
p2689
aV40
p2690
aVnr
p2691
aVnr
p2692
aV22
p2693
aV9
aV12
p2694
aVnr
p2695
aVnr
p2696
aVnr
p2697
aVnr
p2698
aVnr
p2699
aV43
p2700
aVnr
p2701
aVnr
p2702
aVnr
p2703
aV31
p2704
aVnr
p2705
aVnr
p2706
aVnr
p2707
aV36
p2708
aVnr
p2709
aVnr
p2710
aV21
p2711
aV32
p2712
aVnr
p2713
aVnr
p2714
aVnr
p2715
aV44
p2716
aV51
p2717
aa(lp2718
V02-11-2016
p2719
aV22
p2720
aV23
p2721
aV8
aVnr
p2722
aV31
p2723
aV19
p2724
aVnr
p2725
aVnr
p2726
aVnr
p2727
aVnr
p2728
aV11
p2729
aVnr
p2730
aV11
p2731
aV40
p2732
aVnr
p2733
aVnr
p2734
aV22
p2735
aV9
aV12
p2736
aVnr
p2737
aVnr
p2738
aVnr
p2739
aVnr
p2740
aVnr
p2741
aV43
p2742
aVnr
p2743
aVnr
p2744
aVnr
p2745
aV31
p2746
aVnr
p2747
aVnr
p2748
aVnr
p2749
aV36
p2750
aVnr
p2751
aVnr
p2752
aV21
p2753
aV32
p2754
aVnr
p2755
aVnr
p2756
aVnr
p2757
aV44
p2758
aV51
p2759
aa(lp2760
V02-11-2016
p2761
aV22
p2762
aV23
p2763
aV8
aVnr
p2764
aV31
p2765
aV19
p2766
aVnr
p2767
aVnr
p2768
aVnr
p2769
aVnr
p2770
aV11
p2771
aVnr
p2772
aV11
p2773
aV40
p2774
aVnr
p2775
aVnr
p2776
aV22
p2777
aV9
aV12
p2778
aVnr
p2779
aVnr
p2780
aVnr
p2781
aVnr
p2782
aVnr
p2783
aV43
p2784
aVnr
p2785
aVnr
p2786
aVnr
p2787
aV31
p2788
aVnr
p2789
aVnr
p2790
aVnr
p2791
aV36
p2792
aVnr
p2793
aVnr
p2794
aV21
p2795
aV32
p2796
aVnr
p2797
aVnr
p2798
aVnr
p2799
aV44
p2800
aV51
p2801
aa(lp2802
V02-11-2016
p2803
aV23
p2804
aV22
p2805
aV5
aVnr
p2806
aV33
p2807
aV17
p2808
aVnr
p2809
aVnr
p2810
aVnr
p2811
aVnr
p2812
aV9
aVnr
p2813
aV5
aV36
p2814
aVnr
p2815
aVnr
p2816
aV25
p2817
aV9
aV17
p2818
aVnr
p2819
aVnr
p2820
aVnr
p2821
aVnr
p2822
aV14
p2823
aV34
p2824
aVnr
p2825
aVnr
p2826
aVnr
p2827
aV34
p2828
aVnr
p2829
aVnr
p2830
aVnr
p2831
aVnr
p2832
aVnr
p2833
aVnr
p2834
aV22
p2835
aV32
p2836
aVnr
p2837
aVnr
p2838
aVnr
p2839
aV38
p2840
aV39
p2841
aa(lp2842
V02-11-2016
p2843
aV23
p2844
aV22
p2845
aV5
aVnr
p2846
aV33
p2847
aV17
p2848
aVnr
p2849
aVnr
p2850
aVnr
p2851
aVnr
p2852
aV9
aVnr
p2853
aV5
aV36
p2854
aVnr
p2855
aVnr
p2856
aV25
p2857
aV9
aV17
p2858
aVnr
p2859
aVnr
p2860
aVnr
p2861
aVnr
p2862
aV14
p2863
aV34
p2864
aVnr
p2865
aVnr
p2866
aVnr
p2867
aV34
p2868
aVnr
p2869
aVnr
p2870
aVnr
p2871
aVnr
p2872
aVnr
p2873
aVnr
p2874
aV22
p2875
aV32
p2876
aVnr
p2877
aVnr
p2878
aVnr
p2879
aV38
p2880
aV39
p2881
aa(lp2882
V02-11-2016
p2883
aV23
p2884
aV22
p2885
aV5
aVnr
p2886
aV33
p2887
aV17
p2888
aVnr
p2889
aVnr
p2890
aVnr
p2891
aVnr
p2892
aV9
aVnr
p2893
aV5
aV36
p2894
aVnr
p2895
aVnr
p2896
aV25
p2897
aV9
aV17
p2898
aVnr
p2899
aVnr
p2900
aVnr
p2901
aVnr
p2902
aV14
p2903
aV34
p2904
aVnr
p2905
aVnr
p2906
aVnr
p2907
aV34
p2908
aVnr
p2909
aVnr
p2910
aVnr
p2911
aVnr
p2912
aVnr
p2913
aVnr
p2914
aV22
p2915
aV32
p2916
aVnr
p2917
aVnr
p2918
aVnr
p2919
aV38
p2920
aV39
p2921
aa(lp2922
V02-11-2016
p2923
aV23
p2924
aV22
p2925
aV5
aVnr
p2926
aV33
p2927
aV17
p2928
aVnr
p2929
aVnr
p2930
aVnr
p2931
aVnr
p2932
aV9
aVnr
p2933
aV5
aV36
p2934
aVnr
p2935
aVnr
p2936
aV25
p2937
aV9
aV17
p2938
aVnr
p2939
aVnr
p2940
aVnr
p2941
aVnr
p2942
aV14
p2943
aV34
p2944
aVnr
p2945
aVnr
p2946
aVnr
p2947
aV34
p2948
aVnr
p2949
aVnr
p2950
aVnr
p2951
aVnr
p2952
aVnr
p2953
aVnr
p2954
aV22
p2955
aV32
p2956
aVnr
p2957
aVnr
p2958
aVnr
p2959
aV38
p2960
aV39
p2961
aa(lp2962
V02-11-2016
p2963
aV24
p2964
aV26
p2965
aV9
aVnr
p2966
aV22
p2967
aV16
p2968
aVnr
p2969
aVnr
p2970
aVnr
p2971
aVnr
p2972
aV22
p2973
aVnr
p2974
aV21
p2975
aV19
p2976
aVnr
p2977
aVnr
p2978
aV22
p2979
aV10
p2980
aV20
p2981
aVnr
p2982
aVnr
p2983
aVnr
p2984
aVnr
p2985
aV11
p2986
aV11
p2987
aVnr
p2988
aVnr
p2989
aVnr
p2990
aV33
p2991
aVnr
p2992
aVnr
p2993
aVnr
p2994
aV26
p2995
aVnr
p2996
aVnr
p2997
aV22
p2998
aV22
p2999
aVnr
p3000
aVnr
p3001
aVnr
p3002
aV27
p3003
aV31
p3004
aa(lp3005
V05-11-2016
p3006
aV8
aVnr
p3007
aV13
p3008
aVnr
p3009
aV20
p3010
aV13
p3011
aV31
p3012
aVnr
p3013
aVnr
p3014
aVnr
p3015
aV36
p3016
aVnr
p3017
aV10
p3018
aV33
p3019
aV8
aVnr
p3020
aV22
p3021
aV5
aV11
p3022
aVnr
p3023
aVnr
p3024
aVnr
p3025
aV19
p3026
aV18
p3027
aV13
p3028
aVnr
p3029
aVnr
p3030
aVnr
p3031
aV12
p3032
aVnr
p3033
aVnr
p3034
aVnr
p3035
aV9
aVnr
p3036
aVnr
p3037
aV13
p3038
aV27
p3039
aVnr
p3040
aVnr
p3041
aVnr
p3042
aV24
p3043
aV14
p3044
aa(lp3045
V05-11-2016
p3046
aV9
aVnr
p3047
aV13
p3048
aVnr
p3049
aV21
p3050
aV19
p3051
aV31
p3052
aVnr
p3053
aVnr
p3054
aVnr
p3055
aV37
p3056
aVnr
p3057
aV14
p3058
aV47
p3059
aV5
aVnr
p3060
aV24
p3061
aV3
aV19
p3062
aVnr
p3063
aVnr
p3064
aVnr
p3065
aV48
p3066
aV14
p3067
aV14
p3068
aVnr
p3069
aVnr
p3070
aVnr
p3071
aV16
p3072
aVnr
p3073
aVnr
p3074
aVnr
p3075
aV10
p3076
aVnr
p3077
aVnr
p3078
aV11
p3079
aV29
p3080
aVnr
p3081
aVnr
p3082
aVnr
p3083
aV30
p3084
aV21
p3085
aasS'no'
p3086
(lp3087
(lp3088
V02-11-2016
p3089
aV21
p3090
aV4
aV0
aVnr
p3091
aV13
p3092
aVnr
p3093
aVnr
p3094
aVnr
p3095
aV0
aVnr
p3096
aV16
p3097
aVnr
p3098
aV15
p3099
aV2
aV4
aVnr
p3100
aVnr
p3101
aV3
aVnr
p3102
aV3
aVnr
p3103
aVnr
p3104
aVnr
p3105
aVnr
p3106
aV4
aVnr
p3107
aV13
p3108
aV3
aVnr
p3109
aV19
p3110
aVnr
p3111
aV6
aVnr
p3112
aVnr
p3113
aV1
aVnr
p3114
aVnr
p3115
aV7
aV40
p3116
aVnr
p3117
aV5
aV3
aV5
aV55
p3118
aa(lp3119
V02-11-2016
p3120
aV21
p3121
aV4
aV0
aVnr
p3122
aV13
p3123
aVnr
p3124
aVnr
p3125
aVnr
p3126
aV0
aVnr
p3127
aV16
p3128
aVnr
p3129
aV15
p3130
aV2
aV4
aVnr
p3131
aVnr
p3132
aV3
aVnr
p3133
aV3
aVnr
p3134
aVnr
p3135
aVnr
p3136
aVnr
p3137
aV4
aVnr
p3138
aV13
p3139
aV3
aVnr
p3140
aV19
p3141
aVnr
p3142
aV6
aVnr
p3143
aVnr
p3144
aV1
aVnr
p3145
aVnr
p3146
aV7
aV40
p3147
aVnr
p3148
aV5
aV3
aV5
aV55
p3149
aa(lp3150
V02-11-2016
p3151
aV21
p3152
aV4
aV0
aVnr
p3153
aV13
p3154
aVnr
p3155
aVnr
p3156
aVnr
p3157
aV0
aVnr
p3158
aV16
p3159
aVnr
p3160
aV15
p3161
aV2
aV4
aVnr
p3162
aVnr
p3163
aV3
aVnr
p3164
aV3
aVnr
p3165
aVnr
p3166
aVnr
p3167
aVnr
p3168
aV4
aVnr
p3169
aV13
p3170
aV3
aVnr
p3171
aV19
p3172
aVnr
p3173
aV6
aVnr
p3174
aVnr
p3175
aV1
aVnr
p3176
aVnr
p3177
aV7
aV40
p3178
aVnr
p3179
aV5
aV3
aV5
aV55
p3180
aa(lp3181
V02-11-2016
p3182
aV21
p3183
aV4
aV0
aVnr
p3184
aV13
p3185
aVnr
p3186
aVnr
p3187
aVnr
p3188
aV0
aVnr
p3189
aV16
p3190
aVnr
p3191
aV15
p3192
aV2
aV4
aVnr
p3193
aVnr
p3194
aV3
aVnr
p3195
aV3
aVnr
p3196
aVnr
p3197
aVnr
p3198
aVnr
p3199
aV4
aVnr
p3200
aV13
p3201
aV3
aVnr
p3202
aV19
p3203
aVnr
p3204
aV6
aVnr
p3205
aVnr
p3206
aV1
aVnr
p3207
aVnr
p3208
aV7
aV40
p3209
aVnr
p3210
aV5
aV3
aV5
aV55
p3211
aa(lp3212
V02-11-2016
p3213
aV21
p3214
aV4
aV0
aVnr
p3215
aV13
p3216
aVnr
p3217
aVnr
p3218
aVnr
p3219
aV0
aVnr
p3220
aV16
p3221
aVnr
p3222
aV15
p3223
aV2
aV4
aVnr
p3224
aVnr
p3225
aV3
aVnr
p3226
aV3
aVnr
p3227
aVnr
p3228
aVnr
p3229
aVnr
p3230
aV4
aVnr
p3231
aV13
p3232
aV3
aVnr
p3233
aV19
p3234
aVnr
p3235
aV6
aVnr
p3236
aVnr
p3237
aV1
aVnr
p3238
aVnr
p3239
aV7
aV40
p3240
aVnr
p3241
aV5
aV3
aV5
aV55
p3242
aa(lp3243
V02-11-2016
p3244
aV21
p3245
aV4
aV0
aVnr
p3246
aV13
p3247
aVnr
p3248
aVnr
p3249
aVnr
p3250
aV0
aVnr
p3251
aV16
p3252
aVnr
p3253
aV15
p3254
aV2
aV4
aVnr
p3255
aVnr
p3256
aV3
aVnr
p3257
aV3
aVnr
p3258
aVnr
p3259
aVnr
p3260
aVnr
p3261
aV4
aVnr
p3262
aV13
p3263
aV3
aVnr
p3264
aV19
p3265
aVnr
p3266
aV6
aVnr
p3267
aVnr
p3268
aV1
aVnr
p3269
aVnr
p3270
aV7
aV40
p3271
aVnr
p3272
aV5
aV3
aV5
aV55
p3273
aa(lp3274
V02-11-2016
p3275
aV21
p3276
aV4
aV0
aVnr
p3277
aV13
p3278
aVnr
p3279
aVnr
p3280
aVnr
p3281
aV0
aVnr
p3282
aV16
p3283
aVnr
p3284
aV15
p3285
aV2
aV4
aVnr
p3286
aVnr
p3287
aV3
aVnr
p3288
aV3
aVnr
p3289
aVnr
p3290
aVnr
p3291
aVnr
p3292
aV4
aVnr
p3293
aV13
p3294
aV3
aVnr
p3295
aV19
p3296
aVnr
p3297
aV6
aVnr
p3298
aVnr
p3299
aV1
aVnr
p3300
aVnr
p3301
aV7
aV40
p3302
aVnr
p3303
aV5
aV3
aV5
aV55
p3304
aa(lp3305
V02-11-2016
p3306
aV21
p3307
aV4
aV0
aVnr
p3308
aV13
p3309
aVnr
p3310
aVnr
p3311
aVnr
p3312
aV0
aVnr
p3313
aV16
p3314
aVnr
p3315
aV15
p3316
aV2
aV4
aVnr
p3317
aVnr
p3318
aV3
aVnr
p3319
aV3
aVnr
p3320
aVnr
p3321
aVnr
p3322
aVnr
p3323
aV4
aVnr
p3324
aV13
p3325
aV3
aVnr
p3326
aV19
p3327
aVnr
p3328
aV6
aVnr
p3329
aVnr
p3330
aV1
aVnr
p3331
aVnr
p3332
aV7
aV40
p3333
aVnr
p3334
aV5
aV3
aV5
aV55
p3335
aa(lp3336
V02-11-2016
p3337
aV22
p3338
aV7
aV1
aVnr
p3339
aV22
p3340
aVnr
p3341
aVnr
p3342
aVnr
p3343
aV4
aVnr
p3344
aV17
p3345
aVnr
p3346
aV12
p3347
aV4
aV2
aVnr
p3348
aVnr
p3349
aV6
aVnr
p3350
aV6
aVnr
p3351
aVnr
p3352
aVnr
p3353
aVnr
p3354
aVnr
p3355
aVnr
p3356
aV9
aV4
aVnr
p3357
aV17
p3358
aVnr
p3359
aV9
aVnr
p3360
aVnr
p3361
aV1
aVnr
p3362
aVnr
p3363
aV11
p3364
aV28
p3365
aVnr
p3366
aV2
aV4
aV7
aV37
p3367
aa(lp3368
V02-11-2016
p3369
aV22
p3370
aV7
aV1
aVnr
p3371
aV22
p3372
aVnr
p3373
aVnr
p3374
aVnr
p3375
aV4
aVnr
p3376
aV17
p3377
aVnr
p3378
aV12
p3379
aV4
aV2
aVnr
p3380
aVnr
p3381
aV6
aVnr
p3382
aV6
aVnr
p3383
aVnr
p3384
aVnr
p3385
aVnr
p3386
aVnr
p3387
aVnr
p3388
aV9
aV4
aVnr
p3389
aV17
p3390
aVnr
p3391
aV9
aVnr
p3392
aVnr
p3393
aV1
aVnr
p3394
aVnr
p3395
aV11
p3396
aV28
p3397
aVnr
p3398
aV2
aV4
aV7
aV37
p3399
aa(lp3400
V02-11-2016
p3401
aV22
p3402
aV7
aV1
aVnr
p3403
aV22
p3404
aVnr
p3405
aVnr
p3406
aVnr
p3407
aV4
aVnr
p3408
aV17
p3409
aVnr
p3410
aV12
p3411
aV4
aV2
aVnr
p3412
aVnr
p3413
aV6
aVnr
p3414
aV6
aVnr
p3415
aVnr
p3416
aVnr
p3417
aVnr
p3418
aVnr
p3419
aVnr
p3420
aV9
aV4
aVnr
p3421
aV17
p3422
aVnr
p3423
aV9
aVnr
p3424
aVnr
p3425
aV1
aVnr
p3426
aVnr
p3427
aV11
p3428
aV28
p3429
aVnr
p3430
aV2
aV4
aV7
aV37
p3431
aa(lp3432
V02-11-2016
p3433
aV23
p3434
aV18
p3435
aV0
aVnr
p3436
aV33
p3437
aVnr
p3438
aVnr
p3439
aVnr
p3440
aV4
aVnr
p3441
aV15
p3442
aVnr
p3443
aV14
p3444
aV12
p3445
aV2
aVnr
p3446
aVnr
p3447
aV20
p3448
aVnr
p3449
aV19
p3450
aVnr
p3451
aVnr
p3452
aVnr
p3453
aVnr
p3454
aV11
p3455
aVnr
p3456
aV11
p3457
aV3
aVnr
p3458
aV21
p3459
aVnr
p3460
aV6
aVnr
p3461
aVnr
p3462
aV2
aVnr
p3463
aVnr
p3464
aV12
p3465
aV36
p3466
aVnr
p3467
aV9
aV10
p3468
aV8
aV42
p3469
aa(lp3470
V02-11-2016
p3471
aV23
p3472
aV18
p3473
aV0
aVnr
p3474
aV33
p3475
aVnr
p3476
aVnr
p3477
aVnr
p3478
aV4
aVnr
p3479
aV15
p3480
aVnr
p3481
aV14
p3482
aV12
p3483
aV2
aVnr
p3484
aVnr
p3485
aV20
p3486
aVnr
p3487
aV19
p3488
aVnr
p3489
aVnr
p3490
aVnr
p3491
aVnr
p3492
aV11
p3493
aVnr
p3494
aV11
p3495
aV3
aVnr
p3496
aV21
p3497
aVnr
p3498
aV6
aVnr
p3499
aVnr
p3500
aV2
aVnr
p3501
aVnr
p3502
aV12
p3503
aV36
p3504
aVnr
p3505
aV9
aV10
p3506
aV8
aV42
p3507
aa(lp3508
V02-11-2016
p3509
aV23
p3510
aV18
p3511
aV0
aVnr
p3512
aV33
p3513
aVnr
p3514
aVnr
p3515
aVnr
p3516
aV4
aVnr
p3517
aV15
p3518
aVnr
p3519
aV14
p3520
aV12
p3521
aV2
aVnr
p3522
aVnr
p3523
aV20
p3524
aVnr
p3525
aV19
p3526
aVnr
p3527
aVnr
p3528
aVnr
p3529
aVnr
p3530
aV11
p3531
aVnr
p3532
aV11
p3533
aV3
aVnr
p3534
aV21
p3535
aVnr
p3536
aV6
aVnr
p3537
aVnr
p3538
aV2
aVnr
p3539
aVnr
p3540
aV12
p3541
aV36
p3542
aVnr
p3543
aV9
aV10
p3544
aV8
aV42
p3545
aa(lp3546
V02-11-2016
p3547
aV23
p3548
aV18
p3549
aV0
aVnr
p3550
aV33
p3551
aVnr
p3552
aVnr
p3553
aVnr
p3554
aV4
aVnr
p3555
aV15
p3556
aVnr
p3557
aV14
p3558
aV12
p3559
aV2
aVnr
p3560
aVnr
p3561
aV20
p3562
aVnr
p3563
aV19
p3564
aVnr
p3565
aVnr
p3566
aVnr
p3567
aVnr
p3568
aV11
p3569
aVnr
p3570
aV11
p3571
aV3
aVnr
p3572
aV21
p3573
aVnr
p3574
aV6
aVnr
p3575
aVnr
p3576
aV2
aVnr
p3577
aVnr
p3578
aV12
p3579
aV36
p3580
aVnr
p3581
aV9
aV10
p3582
aV8
aV42
p3583
aa(lp3584
V02-11-2016
p3585
aV24
p3586
aV10
p3587
aV3
aVnr
p3588
aV8
aVnr
p3589
aVnr
p3590
aVnr
p3591
aV4
aVnr
p3592
aV11
p3593
aVnr
p3594
aV44
p3595
aV9
aV6
aVnr
p3596
aVnr
p3597
aV10
p3598
aVnr
p3599
aV38
p3600
aVnr
p3601
aVnr
p3602
aVnr
p3603
aVnr
p3604
aV12
p3605
aVnr
p3606
aV15
p3607
aV4
aVnr
p3608
aV26
p3609
aVnr
p3610
aV12
p3611
aVnr
p3612
aVnr
p3613
aV4
aVnr
p3614
aVnr
p3615
aV30
p3616
aV16
p3617
aVnr
p3618
aV17
p3619
aV19
p3620
aV14
p3621
aV57
p3622
aa(lp3623
V05-11-2016
p3624
aV8
aVnr
p3625
aV6
aVnr
p3626
aV15
p3627
aVnr
p3628
aVnr
p3629
aV22
p3630
aV8
aVnr
p3631
aV17
p3632
aVnr
p3633
aV20
p3634
aV3
aV24
p3635
aV3
aVnr
p3636
aV25
p3637
aVnr
p3638
aV19
p3639
aVnr
p3640
aVnr
p3641
aVnr
p3642
aV49
p3643
aV19
p3644
aVnr
p3645
aV18
p3646
aV11
p3647
aVnr
p3648
aV10
p3649
aVnr
p3650
aV15
p3651
aVnr
p3652
aVnr
p3653
aV4
aVnr
p3654
aVnr
p3655
aV21
p3656
aV9
aVnr
p3657
aV8
aV31
p3658
aV6
aV17
p3659
aa(lp3660
V05-11-2016
p3661
aV9
aVnr
p3662
aV3
aVnr
p3663
aV8
aVnr
p3664
aVnr
p3665
aV17
p3666
aV4
aVnr
p3667
aV8
aVnr
p3668
aV14
p3669
aV14
p3670
aV16
p3671
aV3
aVnr
p3672
aV28
p3673
aVnr
p3674
aV14
p3675
aVnr
p3676
aVnr
p3677
aVnr
p3678
aV36
p3679
aV14
p3680
aVnr
p3681
aV10
p3682
aV7
aVnr
p3683
aV19
p3684
aVnr
p3685
aV10
p3686
aVnr
p3687
aVnr
p3688
aV11
p3689
aVnr
p3690
aVnr
p3691
aV27
p3692
aV18
p3693
aVnr
p3694
aV9
aV31
p3695
aV9
aV22
p3696
aasS'rh'
p3697
(lp3698
(lp3699
V02-11-2016
p3700
aV21
p3701
aVnr
p3702
aV68
p3703
aV91
p3704
aVnr
p3705
aV69
p3706
aVnr
p3707
aVnr
p3708
aVnr
p3709
aV80
p3710
aV87
p3711
aVnr
p3712
aV81
p3713
aV69
p3714
aVnr
p3715
aVnr
p3716
aV68
p3717
aVnr
p3718
aVnr
p3719
aVnr
p3720
aVnr
p3721
aVnr
p3722
aV72
p3723
aV73
p3724
aVnr
p3725
aV66
p3726
aV68
p3727
aVnr
p3728
aV48
p3729
aV77
p3730
aVnr
p3731
aVnr
p3732
aVnr
p3733
aVnr
p3734
aV75
p3735
aVnr
p3736
aV72
p3737
aVnr
p3738
aVnr
p3739
aV73
p3740
aV66
p3741
aV63
p3742
aV62
p3743
aa(lp3744
V02-11-2016
p3745
aV21
p3746
aVnr
p3747
aV68
p3748
aV91
p3749
aVnr
p3750
aV69
p3751
aVnr
p3752
aVnr
p3753
aVnr
p3754
aV80
p3755
aV87
p3756
aVnr
p3757
aV81
p3758
aV69
p3759
aVnr
p3760
aVnr
p3761
aV68
p3762
aVnr
p3763
aVnr
p3764
aVnr
p3765
aVnr
p3766
aVnr
p3767
aV72
p3768
aV73
p3769
aVnr
p3770
aV66
p3771
aV68
p3772
aVnr
p3773
aV48
p3774
aV77
p3775
aVnr
p3776
aVnr
p3777
aVnr
p3778
aVnr
p3779
aV75
p3780
aVnr
p3781
aV72
p3782
aVnr
p3783
aVnr
p3784
aV73
p3785
aV66
p3786
aV63
p3787
aV62
p3788
aa(lp3789
V02-11-2016
p3790
aV21
p3791
aVnr
p3792
aV68
p3793
aV91
p3794
aVnr
p3795
aV69
p3796
aVnr
p3797
aVnr
p3798
aVnr
p3799
aV80
p3800
aV87
p3801
aVnr
p3802
aV81
p3803
aV69
p3804
aVnr
p3805
aVnr
p3806
aV68
p3807
aVnr
p3808
aVnr
p3809
aVnr
p3810
aVnr
p3811
aVnr
p3812
aV72
p3813
aV73
p3814
aVnr
p3815
aV66
p3816
aV68
p3817
aVnr
p3818
aV48
p3819
aV77
p3820
aVnr
p3821
aVnr
p3822
aVnr
p3823
aVnr
p3824
aV75
p3825
aVnr
p3826
aV72
p3827
aVnr
p3828
aVnr
p3829
aV73
p3830
aV66
p3831
aV63
p3832
aV62
p3833
aa(lp3834
V02-11-2016
p3835
aV21
p3836
aVnr
p3837
aV68
p3838
aV91
p3839
aVnr
p3840
aV69
p3841
aVnr
p3842
aVnr
p3843
aVnr
p3844
aV80
p3845
aV87
p3846
aVnr
p3847
aV81
p3848
aV69
p3849
aVnr
p3850
aVnr
p3851
aV68
p3852
aVnr
p3853
aVnr
p3854
aVnr
p3855
aVnr
p3856
aVnr
p3857
aV72
p3858
aV73
p3859
aVnr
p3860
aV66
p3861
aV68
p3862
aVnr
p3863
aV48
p3864
aV77
p3865
aVnr
p3866
aVnr
p3867
aVnr
p3868
aVnr
p3869
aV75
p3870
aVnr
p3871
aV72
p3872
aVnr
p3873
aVnr
p3874
aV73
p3875
aV66
p3876
aV63
p3877
aV62
p3878
aa(lp3879
V02-11-2016
p3880
aV21
p3881
aVnr
p3882
aV68
p3883
aV91
p3884
aVnr
p3885
aV69
p3886
aVnr
p3887
aVnr
p3888
aVnr
p3889
aV80
p3890
aV87
p3891
aVnr
p3892
aV81
p3893
aV69
p3894
aVnr
p3895
aVnr
p3896
aV68
p3897
aVnr
p3898
aVnr
p3899
aVnr
p3900
aVnr
p3901
aVnr
p3902
aV72
p3903
aV73
p3904
aVnr
p3905
aV66
p3906
aV68
p3907
aVnr
p3908
aV48
p3909
aV77
p3910
aVnr
p3911
aVnr
p3912
aVnr
p3913
aVnr
p3914
aV75
p3915
aVnr
p3916
aV72
p3917
aVnr
p3918
aVnr
p3919
aV73
p3920
aV66
p3921
aV63
p3922
aV62
p3923
aa(lp3924
V02-11-2016
p3925
aV21
p3926
aVnr
p3927
aV68
p3928
aV91
p3929
aVnr
p3930
aV69
p3931
aVnr
p3932
aVnr
p3933
aVnr
p3934
aV80
p3935
aV87
p3936
aVnr
p3937
aV81
p3938
aV69
p3939
aVnr
p3940
aVnr
p3941
aV68
p3942
aVnr
p3943
aVnr
p3944
aVnr
p3945
aVnr
p3946
aVnr
p3947
aV72
p3948
aV73
p3949
aVnr
p3950
aV66
p3951
aV68
p3952
aVnr
p3953
aV48
p3954
aV77
p3955
aVnr
p3956
aVnr
p3957
aVnr
p3958
aVnr
p3959
aV75
p3960
aVnr
p3961
aV72
p3962
aVnr
p3963
aVnr
p3964
aV73
p3965
aV66
p3966
aV63
p3967
aV62
p3968
aa(lp3969
V02-11-2016
p3970
aV21
p3971
aVnr
p3972
aV68
p3973
aV91
p3974
aVnr
p3975
aV69
p3976
aVnr
p3977
aVnr
p3978
aVnr
p3979
aV80
p3980
aV87
p3981
aVnr
p3982
aV81
p3983
aV69
p3984
aVnr
p3985
aVnr
p3986
aV68
p3987
aVnr
p3988
aVnr
p3989
aVnr
p3990
aVnr
p3991
aVnr
p3992
aV72
p3993
aV73
p3994
aVnr
p3995
aV66
p3996
aV68
p3997
aVnr
p3998
aV48
p3999
aV77
p4000
aVnr
p4001
aVnr
p4002
aVnr
p4003
aVnr
p4004
aV75
p4005
aVnr
p4006
aV72
p4007
aVnr
p4008
aVnr
p4009
aV73
p4010
aV66
p4011
aV63
p4012
aV62
p4013
aa(lp4014
V02-11-2016
p4015
aV21
p4016
aVnr
p4017
aV68
p4018
aV91
p4019
aVnr
p4020
aV69
p4021
aVnr
p4022
aVnr
p4023
aVnr
p4024
aV80
p4025
aV87
p4026
aVnr
p4027
aV81
p4028
aV69
p4029
aVnr
p4030
aVnr
p4031
aV68
p4032
aVnr
p4033
aVnr
p4034
aVnr
p4035
aVnr
p4036
aVnr
p4037
aV72
p4038
aV73
p4039
aVnr
p4040
aV66
p4041
aV68
p4042
aVnr
p4043
aV48
p4044
aV77
p4045
aVnr
p4046
aVnr
p4047
aVnr
p4048
aVnr
p4049
aV75
p4050
aVnr
p4051
aV72
p4052
aVnr
p4053
aVnr
p4054
aV73
p4055
aV66
p4056
aV63
p4057
aV62
p4058
aa(lp4059
V02-11-2016
p4060
aV22
p4061
aVnr
p4062
aV67
p4063
aV94
p4064
aVnr
p4065
aV73
p4066
aVnr
p4067
aVnr
p4068
aVnr
p4069
aV81
p4070
aV88
p4071
aVnr
p4072
aV79
p4073
aV75
p4074
aVnr
p4075
aVnr
p4076
aV66
p4077
aVnr
p4078
aVnr
p4079
aVnr
p4080
aVnr
p4081
aVnr
p4082
aV72
p4083
aVnr
p4084
aVnr
p4085
aV69
p4086
aV76
p4087
aVnr
p4088
aV55
p4089
aV76
p4090
aVnr
p4091
aVnr
p4092
aVnr
p4093
aVnr
p4094
aV78
p4095
aVnr
p4096
aV72
p4097
aVnr
p4098
aVnr
p4099
aV83
p4100
aV78
p4101
aV71
p4102
aV65
p4103
aa(lp4104
V02-11-2016
p4105
aV22
p4106
aVnr
p4107
aV67
p4108
aV94
p4109
aVnr
p4110
aV73
p4111
aVnr
p4112
aVnr
p4113
aVnr
p4114
aV81
p4115
aV88
p4116
aVnr
p4117
aV79
p4118
aV75
p4119
aVnr
p4120
aVnr
p4121
aV66
p4122
aVnr
p4123
aVnr
p4124
aVnr
p4125
aVnr
p4126
aVnr
p4127
aV72
p4128
aVnr
p4129
aVnr
p4130
aV69
p4131
aV76
p4132
aVnr
p4133
aV55
p4134
aV76
p4135
aVnr
p4136
aVnr
p4137
aVnr
p4138
aVnr
p4139
aV78
p4140
aVnr
p4141
aV72
p4142
aVnr
p4143
aVnr
p4144
aV83
p4145
aV78
p4146
aV71
p4147
aV65
p4148
aa(lp4149
V02-11-2016
p4150
aV22
p4151
aVnr
p4152
aV67
p4153
aV94
p4154
aVnr
p4155
aV73
p4156
aVnr
p4157
aVnr
p4158
aVnr
p4159
aV81
p4160
aV88
p4161
aVnr
p4162
aV79
p4163
aV75
p4164
aVnr
p4165
aVnr
p4166
aV66
p4167
aVnr
p4168
aVnr
p4169
aVnr
p4170
aVnr
p4171
aVnr
p4172
aV72
p4173
aVnr
p4174
aVnr
p4175
aV69
p4176
aV76
p4177
aVnr
p4178
aV55
p4179
aV76
p4180
aVnr
p4181
aVnr
p4182
aVnr
p4183
aVnr
p4184
aV78
p4185
aVnr
p4186
aV72
p4187
aVnr
p4188
aVnr
p4189
aV83
p4190
aV78
p4191
aV71
p4192
aV65
p4193
aa(lp4194
V02-11-2016
p4195
aV23
p4196
aVnr
p4197
aV67
p4198
aV92
p4199
aVnr
p4200
aV75
p4201
aVnr
p4202
aVnr
p4203
aVnr
p4204
aV81
p4205
aV88
p4206
aVnr
p4207
aV77
p4208
aV83
p4209
aVnr
p4210
aVnr
p4211
aV70
p4212
aVnr
p4213
aVnr
p4214
aVnr
p4215
aVnr
p4216
aVnr
p4217
aV76
p4218
aV70
p4219
aVnr
p4220
aV69
p4221
aV76
p4222
aVnr
p4223
aV59
p4224
aV76
p4225
aVnr
p4226
aVnr
p4227
aVnr
p4228
aVnr
p4229
aV79
p4230
aVnr
p4231
aV72
p4232
aVnr
p4233
aVnr
p4234
aV81
p4235
aV81
p4236
aV73
p4237
aV70
p4238
aa(lp4239
V02-11-2016
p4240
aV23
p4241
aVnr
p4242
aV67
p4243
aV92
p4244
aVnr
p4245
aV75
p4246
aVnr
p4247
aVnr
p4248
aVnr
p4249
aV81
p4250
aV88
p4251
aVnr
p4252
aV77
p4253
aV83
p4254
aVnr
p4255
aVnr
p4256
aV70
p4257
aVnr
p4258
aVnr
p4259
aVnr
p4260
aVnr
p4261
aVnr
p4262
aV76
p4263
aV70
p4264
aVnr
p4265
aV69
p4266
aV76
p4267
aVnr
p4268
aV59
p4269
aV76
p4270
aVnr
p4271
aVnr
p4272
aVnr
p4273
aVnr
p4274
aV79
p4275
aVnr
p4276
aV72
p4277
aVnr
p4278
aVnr
p4279
aV81
p4280
aV81
p4281
aV73
p4282
aV70
p4283
aa(lp4284
V02-11-2016
p4285
aV23
p4286
aVnr
p4287
aV67
p4288
aV92
p4289
aVnr
p4290
aV75
p4291
aVnr
p4292
aVnr
p4293
aVnr
p4294
aV81
p4295
aV88
p4296
aVnr
p4297
aV77
p4298
aV83
p4299
aVnr
p4300
aVnr
p4301
aV70
p4302
aVnr
p4303
aVnr
p4304
aVnr
p4305
aVnr
p4306
aVnr
p4307
aV76
p4308
aV70
p4309
aVnr
p4310
aV69
p4311
aV76
p4312
aVnr
p4313
aV59
p4314
aV76
p4315
aVnr
p4316
aVnr
p4317
aVnr
p4318
aVnr
p4319
aV79
p4320
aVnr
p4321
aV72
p4322
aVnr
p4323
aVnr
p4324
aV81
p4325
aV81
p4326
aV73
p4327
aV70
p4328
aa(lp4329
V02-11-2016
p4330
aV23
p4331
aVnr
p4332
aV67
p4333
aV92
p4334
aVnr
p4335
aV75
p4336
aVnr
p4337
aVnr
p4338
aVnr
p4339
aV81
p4340
aV88
p4341
aVnr
p4342
aV77
p4343
aV83
p4344
aVnr
p4345
aVnr
p4346
aV70
p4347
aVnr
p4348
aVnr
p4349
aVnr
p4350
aVnr
p4351
aVnr
p4352
aV76
p4353
aV70
p4354
aVnr
p4355
aV69
p4356
aV76
p4357
aVnr
p4358
aV59
p4359
aV76
p4360
aVnr
p4361
aVnr
p4362
aVnr
p4363
aVnr
p4364
aV79
p4365
aVnr
p4366
aV72
p4367
aVnr
p4368
aVnr
p4369
aV81
p4370
aV81
p4371
aV73
p4372
aV70
p4373
aa(lp4374
V02-11-2016
p4375
aV24
p4376
aVnr
p4377
aV72
p4378
aV96
p4379
aVnr
p4380
aV80
p4381
aVnr
p4382
aVnr
p4383
aVnr
p4384
aV84
p4385
aV88
p4386
aVnr
p4387
aV77
p4388
aV85
p4389
aVnr
p4390
aVnr
p4391
aV68
p4392
aVnr
p4393
aVnr
p4394
aVnr
p4395
aVnr
p4396
aVnr
p4397
aV71
p4398
aV78
p4399
aVnr
p4400
aV68
p4401
aV81
p4402
aVnr
p4403
aV63
p4404
aV78
p4405
aVnr
p4406
aVnr
p4407
aVnr
p4408
aVnr
p4409
aV85
p4410
aVnr
p4411
aV75
p4412
aVnr
p4413
aVnr
p4414
aV84
p4415
aV80
p4416
aV73
p4417
aV68
p4418
aa(lp4419
V05-11-2016
p4420
aV8
aVnr
p4421
aV79
p4422
aV98
p4423
aVnr
p4424
aV73
p4425
aVnr
p4426
aVnr
p4427
aVnr
p4428
aV86
p4429
aV79
p4430
aVnr
p4431
aV85
p4432
aV87
p4433
aV75
p4434
aVnr
p4435
aV68
p4436
aVnr
p4437
aVnr
p4438
aVnr
p4439
aVnr
p4440
aVnr
p4441
aV73
p4442
aV72
p4443
aVnr
p4444
aV69
p4445
aV74
p4446
aVnr
p4447
aV65
p4448
aV82
p4449
aVnr
p4450
aVnr
p4451
aVnr
p4452
aVnr
p4453
aV74
p4454
aVnr
p4455
aV70
p4456
aVnr
p4457
aVnr
p4458
aV70
p4459
aV74
p4460
aV80
p4461
aV66
p4462
aa(lp4463
V05-11-2016
p4464
aV9
aVnr
p4465
aV75
p4466
aV96
p4467
aVnr
p4468
aV70
p4469
aVnr
p4470
aVnr
p4471
aVnr
p4472
aV81
p4473
aV73
p4474
aVnr
p4475
aV84
p4476
aV79
p4477
aV70
p4478
aVnr
p4479
aV64
p4480
aVnr
p4481
aVnr
p4482
aVnr
p4483
aVnr
p4484
aVnr
p4485
aV70
p4486
aV68
p4487
aVnr
p4488
aV68
p4489
aV71
p4490
aVnr
p4491
aV62
p4492
aV79
p4493
aVnr
p4494
aVnr
p4495
aVnr
p4496
aVnr
p4497
aV72
p4498
aVnr
p4499
aV68
p4500
aVnr
p4501
aVnr
p4502
aV69
p4503
aV72
p4504
aV78
p4505
aV62
p4506
aasS'wsp'
p4507
(lp4508
(lp4509
V02-11-2016
p4510
aV21
p4511
aVnr
p4512
aV7
aV3
aVnr
p4513
aV4
aVnr
p4514
aVnr
p4515
aV5
aV2
aVnr
p4516
aV5
aV4
aVnr
p4517
aVnr
p4518
aV4
aVnr
p4519
aVnr
p4520
aVnr
p4521
aVnr
p4522
aVnr
p4523
aV5
aV7
aVnr
p4524
aV6
aV5
aVnr
p4525
aV1
aV7
aVnr
p4526
aVnr
p4527
aVnr
p4528
aVnr
p4529
aV8
aVnr
p4530
aV4
aVnr
p4531
aVnr
p4532
aV4
aV6
aV4
aV6
aa(lp4533
V02-11-2016
p4534
aV21
p4535
aVnr
p4536
aV7
aV3
aVnr
p4537
aV4
aVnr
p4538
aVnr
p4539
aV5
aV2
aVnr
p4540
aV5
aV4
aVnr
p4541
aVnr
p4542
aV4
aVnr
p4543
aVnr
p4544
aVnr
p4545
aVnr
p4546
aVnr
p4547
aV5
aV7
aVnr
p4548
aV6
aV5
aVnr
p4549
aV1
aV7
aVnr
p4550
aVnr
p4551
aVnr
p4552
aVnr
p4553
aV8
aVnr
p4554
aV4
aVnr
p4555
aVnr
p4556
aV4
aV6
aV4
aV6
aa(lp4557
V02-11-2016
p4558
aV21
p4559
aVnr
p4560
aV7
aV3
aVnr
p4561
aV4
aVnr
p4562
aVnr
p4563
aV5
aV2
aVnr
p4564
aV5
aV4
aVnr
p4565
aVnr
p4566
aV4
aVnr
p4567
aVnr
p4568
aVnr
p4569
aVnr
p4570
aVnr
p4571
aV5
aV7
aVnr
p4572
aV6
aV5
aVnr
p4573
aV1
aV7
aVnr
p4574
aVnr
p4575
aVnr
p4576
aVnr
p4577
aV8
aVnr
p4578
aV4
aVnr
p4579
aVnr
p4580
aV4
aV6
aV4
aV6
aa(lp4581
V02-11-2016
p4582
aV21
p4583
aVnr
p4584
aV7
aV3
aVnr
p4585
aV4
aVnr
p4586
aVnr
p4587
aV5
aV2
aVnr
p4588
aV5
aV4
aVnr
p4589
aVnr
p4590
aV4
aVnr
p4591
aVnr
p4592
aVnr
p4593
aVnr
p4594
aVnr
p4595
aV5
aV7
aVnr
p4596
aV6
aV5
aVnr
p4597
aV1
aV7
aVnr
p4598
aVnr
p4599
aVnr
p4600
aVnr
p4601
aV8
aVnr
p4602
aV4
aVnr
p4603
aVnr
p4604
aV4
aV6
aV4
aV6
aa(lp4605
V02-11-2016
p4606
aV21
p4607
aVnr
p4608
aV7
aV3
aVnr
p4609
aV4
aVnr
p4610
aVnr
p4611
aV5
aV2
aVnr
p4612
aV5
aV4
aVnr
p4613
aVnr
p4614
aV4
aVnr
p4615
aVnr
p4616
aVnr
p4617
aVnr
p4618
aVnr
p4619
aV5
aV7
aVnr
p4620
aV6
aV5
aVnr
p4621
aV1
aV7
aVnr
p4622
aVnr
p4623
aVnr
p4624
aVnr
p4625
aV8
aVnr
p4626
aV4
aVnr
p4627
aVnr
p4628
aV4
aV6
aV4
aV6
aa(lp4629
V02-11-2016
p4630
aV21
p4631
aVnr
p4632
aV7
aV3
aVnr
p4633
aV4
aVnr
p4634
aVnr
p4635
aV5
aV2
aVnr
p4636
aV5
aV4
aVnr
p4637
aVnr
p4638
aV4
aVnr
p4639
aVnr
p4640
aVnr
p4641
aVnr
p4642
aVnr
p4643
aV5
aV7
aVnr
p4644
aV6
aV5
aVnr
p4645
aV1
aV7
aVnr
p4646
aVnr
p4647
aVnr
p4648
aVnr
p4649
aV8
aVnr
p4650
aV4
aVnr
p4651
aVnr
p4652
aV4
aV6
aV4
aV6
aa(lp4653
V02-11-2016
p4654
aV21
p4655
aVnr
p4656
aV7
aV3
aVnr
p4657
aV4
aVnr
p4658
aVnr
p4659
aV5
aV2
aVnr
p4660
aV5
aV4
aVnr
p4661
aVnr
p4662
aV4
aVnr
p4663
aVnr
p4664
aVnr
p4665
aVnr
p4666
aVnr
p4667
aV5
aV7
aVnr
p4668
aV6
aV5
aVnr
p4669
aV1
aV7
aVnr
p4670
aVnr
p4671
aVnr
p4672
aVnr
p4673
aV8
aVnr
p4674
aV4
aVnr
p4675
aVnr
p4676
aV4
aV6
aV4
aV6
aa(lp4677
V02-11-2016
p4678
aV21
p4679
aVnr
p4680
aV7
aV3
aVnr
p4681
aV4
aVnr
p4682
aVnr
p4683
aV5
aV2
aVnr
p4684
aV5
aV4
aVnr
p4685
aVnr
p4686
aV4
aVnr
p4687
aVnr
p4688
aVnr
p4689
aVnr
p4690
aVnr
p4691
aV5
aV7
aVnr
p4692
aV6
aV5
aVnr
p4693
aV1
aV7
aVnr
p4694
aVnr
p4695
aVnr
p4696
aVnr
p4697
aV8
aVnr
p4698
aV4
aVnr
p4699
aVnr
p4700
aV4
aV6
aV4
aV6
aa(lp4701
V02-11-2016
p4702
aV22
p4703
aVnr
p4704
aV5
aV3
aVnr
p4705
aV4
aVnr
p4706
aVnr
p4707
aV4
aV1
aVnr
p4708
aV4
aV2
aVnr
p4709
aVnr
p4710
aV2
aVnr
p4711
aVnr
p4712
aVnr
p4713
aVnr
p4714
aVnr
p4715
aV5
aVnr
p4716
aVnr
p4717
aV7
aV4
aVnr
p4718
aV3
aV7
aVnr
p4719
aVnr
p4720
aVnr
p4721
aVnr
p4722
aV6
aVnr
p4723
aV4
aVnr
p4724
aVnr
p4725
aV3
aV5
aV3
aV8
aa(lp4726
V02-11-2016
p4727
aV22
p4728
aVnr
p4729
aV5
aV3
aVnr
p4730
aV4
aVnr
p4731
aVnr
p4732
aV4
aV1
aVnr
p4733
aV4
aV2
aVnr
p4734
aVnr
p4735
aV2
aVnr
p4736
aVnr
p4737
aVnr
p4738
aVnr
p4739
aVnr
p4740
aV5
aVnr
p4741
aVnr
p4742
aV7
aV4
aVnr
p4743
aV3
aV7
aVnr
p4744
aVnr
p4745
aVnr
p4746
aVnr
p4747
aV6
aVnr
p4748
aV4
aVnr
p4749
aVnr
p4750
aV3
aV5
aV3
aV8
aa(lp4751
V02-11-2016
p4752
aV22
p4753
aVnr
p4754
aV5
aV3
aVnr
p4755
aV4
aVnr
p4756
aVnr
p4757
aV4
aV1
aVnr
p4758
aV4
aV2
aVnr
p4759
aVnr
p4760
aV2
aVnr
p4761
aVnr
p4762
aVnr
p4763
aVnr
p4764
aVnr
p4765
aV5
aVnr
p4766
aVnr
p4767
aV7
aV4
aVnr
p4768
aV3
aV7
aVnr
p4769
aVnr
p4770
aVnr
p4771
aVnr
p4772
aV6
aVnr
p4773
aV4
aVnr
p4774
aVnr
p4775
aV3
aV5
aV3
aV8
aa(lp4776
V02-11-2016
p4777
aV23
p4778
aVnr
p4779
aV8
aVnr
p4780
aVnr
p4781
aV4
aVnr
p4782
aVnr
p4783
aV3
aV2
aVnr
p4784
aV4
aV1
aVnr
p4785
aVnr
p4786
aV2
aVnr
p4787
aVnr
p4788
aVnr
p4789
aVnr
p4790
aVnr
p4791
aV4
aV5
aVnr
p4792
aV3
aV6
aVnr
p4793
aV2
aV6
aVnr
p4794
aVnr
p4795
aVnr
p4796
aVnr
p4797
aV3
aVnr
p4798
aV3
aVnr
p4799
aVnr
p4800
aV4
aV3
aV4
aV4
aa(lp4801
V02-11-2016
p4802
aV23
p4803
aVnr
p4804
aV8
aVnr
p4805
aVnr
p4806
aV4
aVnr
p4807
aVnr
p4808
aV3
aV2
aVnr
p4809
aV4
aV1
aVnr
p4810
aVnr
p4811
aV2
aVnr
p4812
aVnr
p4813
aVnr
p4814
aVnr
p4815
aVnr
p4816
aV4
aV5
aVnr
p4817
aV3
aV6
aVnr
p4818
aV2
aV6
aVnr
p4819
aVnr
p4820
aVnr
p4821
aVnr
p4822
aV3
aVnr
p4823
aV3
aVnr
p4824
aVnr
p4825
aV4
aV3
aV4
aV4
aa(lp4826
V02-11-2016
p4827
aV23
p4828
aVnr
p4829
aV8
aVnr
p4830
aVnr
p4831
aV4
aVnr
p4832
aVnr
p4833
aV3
aV2
aVnr
p4834
aV4
aV1
aVnr
p4835
aVnr
p4836
aV2
aVnr
p4837
aVnr
p4838
aVnr
p4839
aVnr
p4840
aVnr
p4841
aV4
aV5
aVnr
p4842
aV3
aV6
aVnr
p4843
aV2
aV6
aVnr
p4844
aVnr
p4845
aVnr
p4846
aVnr
p4847
aV3
aVnr
p4848
aV3
aVnr
p4849
aVnr
p4850
aV4
aV3
aV4
aV4
aa(lp4851
V02-11-2016
p4852
aV23
p4853
aVnr
p4854
aV8
aVnr
p4855
aVnr
p4856
aV4
aVnr
p4857
aVnr
p4858
aV3
aV2
aVnr
p4859
aV4
aV1
aVnr
p4860
aVnr
p4861
aV2
aVnr
p4862
aVnr
p4863
aVnr
p4864
aVnr
p4865
aVnr
p4866
aV4
aV5
aVnr
p4867
aV3
aV6
aVnr
p4868
aV2
aV6
aVnr
p4869
aVnr
p4870
aVnr
p4871
aVnr
p4872
aV3
aVnr
p4873
aV3
aVnr
p4874
aVnr
p4875
aV4
aV3
aV4
aV4
aa(lp4876
V02-11-2016
p4877
aV24
p4878
aVnr
p4879
aV4
aV4
aVnr
p4880
aV3
aVnr
p4881
aVnr
p4882
aV2
aV2
aVnr
p4883
aV4
aV2
aVnr
p4884
aVnr
p4885
aV2
aVnr
p4886
aVnr
p4887
aVnr
p4888
aVnr
p4889
aVnr
p4890
aV3
aV3
aVnr
p4891
aV2
aV3
aVnr
p4892
aV2
aV5
aVnr
p4893
aVnr
p4894
aVnr
p4895
aVnr
p4896
aV4
aVnr
p4897
aV2
aVnr
p4898
aVnr
p4899
aV3
aV2
aV2
aV5
aa(lp4900
V05-11-2016
p4901
aV8
aVnr
p4902
aV6
aV5
aVnr
p4903
aV4
aVnr
p4904
aVnr
p4905
aV4
aV4
aVnr
p4906
aV3
aV2
aV3
aVnr
p4907
aV6
aVnr
p4908
aVnr
p4909
aVnr
p4910
aVnr
p4911
aVnr
p4912
aV6
aV4
aVnr
p4913
aV5
aV4
aVnr
p4914
aV4
aV4
aVnr
p4915
aV5
aVnr
p4916
aVnr
p4917
aV4
aVnr
p4918
aV4
aVnr
p4919
aVnr
p4920
aV4
aV6
aV3
aV4
aa(lp4921
V05-11-2016
p4922
aV9
aVnr
p4923
aV7
aVnr
p4924
aVnr
p4925
aVnr
p4926
aVnr
p4927
aVnr
p4928
aV4
aV6
aVnr
p4929
aV3
aV3
aV3
aVnr
p4930
aV6
aVnr
p4931
aVnr
p4932
aVnr
p4933
aVnr
p4934
aVnr
p4935
aV7
aV5
aVnr
p4936
aV5
aV4
aVnr
p4937
aV5
aV4
aVnr
p4938
aV7
aVnr
p4939
aVnr
p4940
aV6
aVnr
p4941
aV5
aVnr
p4942
aVnr
p4943
aV6
aV5
aV3
aV8
aasS'wdr'
p4944
(lp4945
(lp4946
V02-11-2016
p4947
aV21
p4948
aVnr
p4949
aV223
p4950
aV89
p4951
aVnr
p4952
aV265
p4953
aVnr
p4954
aVnr
p4955
aVnr
p4956
aV165
p4957
aV210
p4958
aVnr
p4959
aV263
p4960
aV355
p4961
aVnr
p4962
aVnr
p4963
aV219
p4964
aVnr
p4965
aVnr
p4966
aVnr
p4967
aVnr
p4968
aVnr
p4969
aV214
p4970
aV259
p4971
aVnr
p4972
aV216
p4973
aV239
p4974
aVnr
p4975
aV121
p4976
aV233
p4977
aVnr
p4978
aVnr
p4979
aVnr
p4980
aVnr
p4981
aV252
p4982
aVnr
p4983
aV258
p4984
aVnr
p4985
aVnr
p4986
aV154
p4987
aV237
p4988
aV336
p4989
aV243
p4990
aa(lp4991
V02-11-2016
p4992
aV21
p4993
aVnr
p4994
aV223
p4995
aV89
p4996
aVnr
p4997
aV265
p4998
aVnr
p4999
aVnr
p5000
aVnr
p5001
aV165
p5002
aV210
p5003
aVnr
p5004
aV263
p5005
aV355
p5006
aVnr
p5007
aVnr
p5008
aV219
p5009
aVnr
p5010
aVnr
p5011
aVnr
p5012
aVnr
p5013
aVnr
p5014
aV214
p5015
aV259
p5016
aVnr
p5017
aV216
p5018
aV239
p5019
aVnr
p5020
aV121
p5021
aV233
p5022
aVnr
p5023
aVnr
p5024
aVnr
p5025
aVnr
p5026
aV252
p5027
aVnr
p5028
aV258
p5029
aVnr
p5030
aVnr
p5031
aV154
p5032
aV237
p5033
aV336
p5034
aV243
p5035
aa(lp5036
V02-11-2016
p5037
aV21
p5038
aVnr
p5039
aV223
p5040
aV89
p5041
aVnr
p5042
aV265
p5043
aVnr
p5044
aVnr
p5045
aVnr
p5046
aV165
p5047
aV210
p5048
aVnr
p5049
aV263
p5050
aV355
p5051
aVnr
p5052
aVnr
p5053
aV219
p5054
aVnr
p5055
aVnr
p5056
aVnr
p5057
aVnr
p5058
aVnr
p5059
aV214
p5060
aV259
p5061
aVnr
p5062
aV216
p5063
aV239
p5064
aVnr
p5065
aV121
p5066
aV233
p5067
aVnr
p5068
aVnr
p5069
aVnr
p5070
aVnr
p5071
aV252
p5072
aVnr
p5073
aV258
p5074
aVnr
p5075
aVnr
p5076
aV154
p5077
aV237
p5078
aV336
p5079
aV243
p5080
aa(lp5081
V02-11-2016
p5082
aV21
p5083
aVnr
p5084
aV223
p5085
aV89
p5086
aVnr
p5087
aV265
p5088
aVnr
p5089
aVnr
p5090
aVnr
p5091
aV165
p5092
aV210
p5093
aVnr
p5094
aV263
p5095
aV355
p5096
aVnr
p5097
aVnr
p5098
aV219
p5099
aVnr
p5100
aVnr
p5101
aVnr
p5102
aVnr
p5103
aVnr
p5104
aV214
p5105
aV259
p5106
aVnr
p5107
aV216
p5108
aV239
p5109
aVnr
p5110
aV121
p5111
aV233
p5112
aVnr
p5113
aVnr
p5114
aVnr
p5115
aVnr
p5116
aV252
p5117
aVnr
p5118
aV258
p5119
aVnr
p5120
aVnr
p5121
aV154
p5122
aV237
p5123
aV336
p5124
aV243
p5125
aa(lp5126
V02-11-2016
p5127
aV21
p5128
aVnr
p5129
aV223
p5130
aV89
p5131
aVnr
p5132
aV265
p5133
aVnr
p5134
aVnr
p5135
aVnr
p5136
aV165
p5137
aV210
p5138
aVnr
p5139
aV263
p5140
aV355
p5141
aVnr
p5142
aVnr
p5143
aV219
p5144
aVnr
p5145
aVnr
p5146
aVnr
p5147
aVnr
p5148
aVnr
p5149
aV214
p5150
aV259
p5151
aVnr
p5152
aV216
p5153
aV239
p5154
aVnr
p5155
aV121
p5156
aV233
p5157
aVnr
p5158
aVnr
p5159
aVnr
p5160
aVnr
p5161
aV252
p5162
aVnr
p5163
aV258
p5164
aVnr
p5165
aVnr
p5166
aV154
p5167
aV237
p5168
aV336
p5169
aV243
p5170
aa(lp5171
V02-11-2016
p5172
aV21
p5173
aVnr
p5174
aV223
p5175
aV89
p5176
aVnr
p5177
aV265
p5178
aVnr
p5179
aVnr
p5180
aVnr
p5181
aV165
p5182
aV210
p5183
aVnr
p5184
aV263
p5185
aV355
p5186
aVnr
p5187
aVnr
p5188
aV219
p5189
aVnr
p5190
aVnr
p5191
aVnr
p5192
aVnr
p5193
aVnr
p5194
aV214
p5195
aV259
p5196
aVnr
p5197
aV216
p5198
aV239
p5199
aVnr
p5200
aV121
p5201
aV233
p5202
aVnr
p5203
aVnr
p5204
aVnr
p5205
aVnr
p5206
aV252
p5207
aVnr
p5208
aV258
p5209
aVnr
p5210
aVnr
p5211
aV154
p5212
aV237
p5213
aV336
p5214
aV243
p5215
aa(lp5216
V02-11-2016
p5217
aV21
p5218
aVnr
p5219
aV223
p5220
aV89
p5221
aVnr
p5222
aV265
p5223
aVnr
p5224
aVnr
p5225
aVnr
p5226
aV165
p5227
aV210
p5228
aVnr
p5229
aV263
p5230
aV355
p5231
aVnr
p5232
aVnr
p5233
aV219
p5234
aVnr
p5235
aVnr
p5236
aVnr
p5237
aVnr
p5238
aVnr
p5239
aV214
p5240
aV259
p5241
aVnr
p5242
aV216
p5243
aV239
p5244
aVnr
p5245
aV121
p5246
aV233
p5247
aVnr
p5248
aVnr
p5249
aVnr
p5250
aVnr
p5251
aV252
p5252
aVnr
p5253
aV258
p5254
aVnr
p5255
aVnr
p5256
aV154
p5257
aV237
p5258
aV336
p5259
aV243
p5260
aa(lp5261
V02-11-2016
p5262
aV21
p5263
aVnr
p5264
aV223
p5265
aV89
p5266
aVnr
p5267
aV265
p5268
aVnr
p5269
aVnr
p5270
aVnr
p5271
aV165
p5272
aV210
p5273
aVnr
p5274
aV263
p5275
aV355
p5276
aVnr
p5277
aVnr
p5278
aV219
p5279
aVnr
p5280
aVnr
p5281
aVnr
p5282
aVnr
p5283
aVnr
p5284
aV214
p5285
aV259
p5286
aVnr
p5287
aV216
p5288
aV239
p5289
aVnr
p5290
aV121
p5291
aV233
p5292
aVnr
p5293
aVnr
p5294
aVnr
p5295
aVnr
p5296
aV252
p5297
aVnr
p5298
aV258
p5299
aVnr
p5300
aVnr
p5301
aV154
p5302
aV237
p5303
aV336
p5304
aV243
p5305
aa(lp5306
V02-11-2016
p5307
aV22
p5308
aVnr
p5309
aV207
p5310
aV292
p5311
aVnr
p5312
aV198
p5313
aVnr
p5314
aVnr
p5315
aVnr
p5316
aV156
p5317
aV338
p5318
aVnr
p5319
aV237
p5320
aV320
p5321
aVnr
p5322
aVnr
p5323
aV221
p5324
aVnr
p5325
aVnr
p5326
aVnr
p5327
aVnr
p5328
aVnr
p5329
aV227
p5330
aVnr
p5331
aVnr
p5332
aV219
p5333
aV184
p5334
aVnr
p5335
aV219
p5336
aV225
p5337
aVnr
p5338
aVnr
p5339
aVnr
p5340
aVnr
p5341
aV233
p5342
aVnr
p5343
aV235
p5344
aVnr
p5345
aVnr
p5346
aV234
p5347
aV229
p5348
aV261
p5349
aV236
p5350
aa(lp5351
V02-11-2016
p5352
aV22
p5353
aVnr
p5354
aV207
p5355
aV292
p5356
aVnr
p5357
aV198
p5358
aVnr
p5359
aVnr
p5360
aVnr
p5361
aV156
p5362
aV338
p5363
aVnr
p5364
aV237
p5365
aV320
p5366
aVnr
p5367
aVnr
p5368
aV221
p5369
aVnr
p5370
aVnr
p5371
aVnr
p5372
aVnr
p5373
aVnr
p5374
aV227
p5375
aVnr
p5376
aVnr
p5377
aV219
p5378
aV184
p5379
aVnr
p5380
aV219
p5381
aV225
p5382
aVnr
p5383
aVnr
p5384
aVnr
p5385
aVnr
p5386
aV233
p5387
aVnr
p5388
aV235
p5389
aVnr
p5390
aVnr
p5391
aV234
p5392
aV229
p5393
aV261
p5394
aV236
p5395
aa(lp5396
V02-11-2016
p5397
aV22
p5398
aVnr
p5399
aV207
p5400
aV292
p5401
aVnr
p5402
aV198
p5403
aVnr
p5404
aVnr
p5405
aVnr
p5406
aV156
p5407
aV338
p5408
aVnr
p5409
aV237
p5410
aV320
p5411
aVnr
p5412
aVnr
p5413
aV221
p5414
aVnr
p5415
aVnr
p5416
aVnr
p5417
aVnr
p5418
aVnr
p5419
aV227
p5420
aVnr
p5421
aVnr
p5422
aV219
p5423
aV184
p5424
aVnr
p5425
aV219
p5426
aV225
p5427
aVnr
p5428
aVnr
p5429
aVnr
p5430
aVnr
p5431
aV233
p5432
aVnr
p5433
aV235
p5434
aVnr
p5435
aVnr
p5436
aV234
p5437
aV229
p5438
aV261
p5439
aV236
p5440
aa(lp5441
V02-11-2016
p5442
aV23
p5443
aVnr
p5444
aV212
p5445
aV221
p5446
aVnr
p5447
aV266
p5448
aVnr
p5449
aVnr
p5450
aVnr
p5451
aV138
p5452
aV33
p5453
aVnr
p5454
aV235
p5455
aV300
p5456
aVnr
p5457
aVnr
p5458
aV289
p5459
aVnr
p5460
aVnr
p5461
aVnr
p5462
aVnr
p5463
aVnr
p5464
aV298
p5465
aV266
p5466
aVnr
p5467
aV279
p5468
aV230
p5469
aVnr
p5470
aV229
p5471
aV227
p5472
aVnr
p5473
aVnr
p5474
aVnr
p5475
aVnr
p5476
aV216
p5477
aVnr
p5478
aV252
p5479
aVnr
p5480
aVnr
p5481
aV206
p5482
aV8
aV246
p5483
aV231
p5484
aa(lp5485
V02-11-2016
p5486
aV23
p5487
aVnr
p5488
aV212
p5489
aV221
p5490
aVnr
p5491
aV266
p5492
aVnr
p5493
aVnr
p5494
aVnr
p5495
aV138
p5496
aV33
p5497
aVnr
p5498
aV235
p5499
aV300
p5500
aVnr
p5501
aVnr
p5502
aV289
p5503
aVnr
p5504
aVnr
p5505
aVnr
p5506
aVnr
p5507
aVnr
p5508
aV298
p5509
aV266
p5510
aVnr
p5511
aV279
p5512
aV230
p5513
aVnr
p5514
aV229
p5515
aV227
p5516
aVnr
p5517
aVnr
p5518
aVnr
p5519
aVnr
p5520
aV216
p5521
aVnr
p5522
aV252
p5523
aVnr
p5524
aVnr
p5525
aV206
p5526
aV8
aV246
p5527
aV231
p5528
aa(lp5529
V02-11-2016
p5530
aV23
p5531
aVnr
p5532
aV212
p5533
aV221
p5534
aVnr
p5535
aV266
p5536
aVnr
p5537
aVnr
p5538
aVnr
p5539
aV138
p5540
aV33
p5541
aVnr
p5542
aV235
p5543
aV300
p5544
aVnr
p5545
aVnr
p5546
aV289
p5547
aVnr
p5548
aVnr
p5549
aVnr
p5550
aVnr
p5551
aVnr
p5552
aV298
p5553
aV266
p5554
aVnr
p5555
aV279
p5556
aV230
p5557
aVnr
p5558
aV229
p5559
aV227
p5560
aVnr
p5561
aVnr
p5562
aVnr
p5563
aVnr
p5564
aV216
p5565
aVnr
p5566
aV252
p5567
aVnr
p5568
aVnr
p5569
aV206
p5570
aV8
aV246
p5571
aV231
p5572
aa(lp5573
V02-11-2016
p5574
aV23
p5575
aVnr
p5576
aV212
p5577
aV221
p5578
aVnr
p5579
aV266
p5580
aVnr
p5581
aVnr
p5582
aVnr
p5583
aV138
p5584
aV33
p5585
aVnr
p5586
aV235
p5587
aV300
p5588
aVnr
p5589
aVnr
p5590
aV289
p5591
aVnr
p5592
aVnr
p5593
aVnr
p5594
aVnr
p5595
aVnr
p5596
aV298
p5597
aV266
p5598
aVnr
p5599
aV279
p5600
aV230
p5601
aVnr
p5602
aV229
p5603
aV227
p5604
aVnr
p5605
aVnr
p5606
aVnr
p5607
aVnr
p5608
aV216
p5609
aVnr
p5610
aV252
p5611
aVnr
p5612
aVnr
p5613
aV206
p5614
aV8
aV246
p5615
aV231
p5616
aa(lp5617
V02-11-2016
p5618
aV24
p5619
aVnr
p5620
aV164
p5621
aV200
p5622
aVnr
p5623
aV31
p5624
aVnr
p5625
aVnr
p5626
aVnr
p5627
aV87
p5628
aV117
p5629
aVnr
p5630
aV210
p5631
aV318
p5632
aVnr
p5633
aVnr
p5634
aV253
p5635
aVnr
p5636
aVnr
p5637
aVnr
p5638
aVnr
p5639
aVnr
p5640
aV302
p5641
aV334
p5642
aVnr
p5643
aV155
p5644
aV155
p5645
aVnr
p5646
aV92
p5647
aV216
p5648
aVnr
p5649
aVnr
p5650
aVnr
p5651
aVnr
p5652
aV152
p5653
aVnr
p5654
aV284
p5655
aVnr
p5656
aVnr
p5657
aV111
p5658
aV90
p5659
aV266
p5660
aV47
p5661
aa(lp5662
V05-11-2016
p5663
aV8
aVnr
p5664
aV316
p5665
aV5
aVnr
p5666
aV313
p5667
aVnr
p5668
aVnr
p5669
aVnr
p5670
aV332
p5671
aV317
p5672
aVnr
p5673
aV22
p5674
aV339
p5675
aV289
p5676
aVnr
p5677
aV260
p5678
aVnr
p5679
aVnr
p5680
aVnr
p5681
aVnr
p5682
aVnr
p5683
aV304
p5684
aV325
p5685
aVnr
p5686
aV307
p5687
aV301
p5688
aVnr
p5689
aV16
p5690
aV322
p5691
aVnr
p5692
aV311
p5693
aVnr
p5694
aVnr
p5695
aV273
p5696
aVnr
p5697
aV307
p5698
aVnr
p5699
aVnr
p5700
aV302
p5701
aV312
p5702
aV301
p5703
aV344
p5704
aa(lp5705
V05-11-2016
p5706
aV9
aVnr
p5707
aV296
p5708
aV355
p5709
aVnr
p5710
aV311
p5711
aVnr
p5712
aVnr
p5713
aVnr
p5714
aV331
p5715
aV313
p5716
aVnr
p5717
aV327
p5718
aV1
aV271
p5719
aVnr
p5720
aV268
p5721
aVnr
p5722
aVnr
p5723
aVnr
p5724
aVnr
p5725
aVnr
p5726
aV300
p5727
aV327
p5728
aVnr
p5729
aV340
p5730
aV290
p5731
aVnr
p5732
aV357
p5733
aV315
p5734
aVnr
p5735
aV307
p5736
aVnr
p5737
aVnr
p5738
aV278
p5739
aVnr
p5740
aV294
p5741
aVnr
p5742
aVnr
p5743
aV310
p5744
aV326
p5745
aV323
p5746
aV13
p5747
aasS'so2'
p5748
(lp5749
(lp5750
V02-11-2016
p5751
aV21
p5752
aV1
aV1
aVnr
p5753
aVnr
p5754
aV1
aVnr
p5755
aV4
aVnr
p5756
aV2
aVnr
p5757
aV2
aV1
aVnr
p5758
aV3
aV2
aVnr
p5759
aVnr
p5760
aV3
aV1
aV4
aVnr
p5761
aV3
aVnr
p5762
aVnr
p5763
aVnr
p5764
aV2
aV2
aV3
aV2
aVnr
p5765
aV3
aVnr
p5766
aV5
aVnr
p5767
aVnr
p5768
aV2
aVnr
p5769
aVnr
p5770
aV4
aV3
aVnr
p5771
aVnr
p5772
aV4
aVnr
p5773
aV1
aV4
aa(lp5774
V02-11-2016
p5775
aV21
p5776
aV1
aV1
aVnr
p5777
aVnr
p5778
aV1
aVnr
p5779
aV4
aVnr
p5780
aV2
aVnr
p5781
aV2
aV1
aVnr
p5782
aV3
aV2
aVnr
p5783
aVnr
p5784
aV3
aV1
aV4
aVnr
p5785
aV3
aVnr
p5786
aVnr
p5787
aVnr
p5788
aV2
aV2
aV3
aV2
aVnr
p5789
aV3
aVnr
p5790
aV5
aVnr
p5791
aVnr
p5792
aV2
aVnr
p5793
aVnr
p5794
aV4
aV3
aVnr
p5795
aVnr
p5796
aV4
aVnr
p5797
aV1
aV4
aa(lp5798
V02-11-2016
p5799
aV21
p5800
aV1
aV1
aVnr
p5801
aVnr
p5802
aV1
aVnr
p5803
aV4
aVnr
p5804
aV2
aVnr
p5805
aV2
aV1
aVnr
p5806
aV3
aV2
aVnr
p5807
aVnr
p5808
aV3
aV1
aV4
aVnr
p5809
aV3
aVnr
p5810
aVnr
p5811
aVnr
p5812
aV2
aV2
aV3
aV2
aVnr
p5813
aV3
aVnr
p5814
aV5
aVnr
p5815
aVnr
p5816
aV2
aVnr
p5817
aVnr
p5818
aV4
aV3
aVnr
p5819
aVnr
p5820
aV4
aVnr
p5821
aV1
aV4
aa(lp5822
V02-11-2016
p5823
aV21
p5824
aV1
aV1
aVnr
p5825
aVnr
p5826
aV1
aVnr
p5827
aV4
aVnr
p5828
aV2
aVnr
p5829
aV2
aV1
aVnr
p5830
aV3
aV2
aVnr
p5831
aVnr
p5832
aV3
aV1
aV4
aVnr
p5833
aV3
aVnr
p5834
aVnr
p5835
aVnr
p5836
aV2
aV2
aV3
aV2
aVnr
p5837
aV3
aVnr
p5838
aV5
aVnr
p5839
aVnr
p5840
aV2
aVnr
p5841
aVnr
p5842
aV4
aV3
aVnr
p5843
aVnr
p5844
aV4
aVnr
p5845
aV1
aV4
aa(lp5846
V02-11-2016
p5847
aV21
p5848
aV1
aV1
aVnr
p5849
aVnr
p5850
aV1
aVnr
p5851
aV4
aVnr
p5852
aV2
aVnr
p5853
aV2
aV1
aVnr
p5854
aV3
aV2
aVnr
p5855
aVnr
p5856
aV3
aV1
aV4
aVnr
p5857
aV3
aVnr
p5858
aVnr
p5859
aVnr
p5860
aV2
aV2
aV3
aV2
aVnr
p5861
aV3
aVnr
p5862
aV5
aVnr
p5863
aVnr
p5864
aV2
aVnr
p5865
aVnr
p5866
aV4
aV3
aVnr
p5867
aVnr
p5868
aV4
aVnr
p5869
aV1
aV4
aa(lp5870
V02-11-2016
p5871
aV21
p5872
aV1
aV1
aVnr
p5873
aVnr
p5874
aV1
aVnr
p5875
aV4
aVnr
p5876
aV2
aVnr
p5877
aV2
aV1
aVnr
p5878
aV3
aV2
aVnr
p5879
aVnr
p5880
aV3
aV1
aV4
aVnr
p5881
aV3
aVnr
p5882
aVnr
p5883
aVnr
p5884
aV2
aV2
aV3
aV2
aVnr
p5885
aV3
aVnr
p5886
aV5
aVnr
p5887
aVnr
p5888
aV2
aVnr
p5889
aVnr
p5890
aV4
aV3
aVnr
p5891
aVnr
p5892
aV4
aVnr
p5893
aV1
aV4
aa(lp5894
V02-11-2016
p5895
aV21
p5896
aV1
aV1
aVnr
p5897
aVnr
p5898
aV1
aVnr
p5899
aV4
aVnr
p5900
aV2
aVnr
p5901
aV2
aV1
aVnr
p5902
aV3
aV2
aVnr
p5903
aVnr
p5904
aV3
aV1
aV4
aVnr
p5905
aV3
aVnr
p5906
aVnr
p5907
aVnr
p5908
aV2
aV2
aV3
aV2
aVnr
p5909
aV3
aVnr
p5910
aV5
aVnr
p5911
aVnr
p5912
aV2
aVnr
p5913
aVnr
p5914
aV4
aV3
aVnr
p5915
aVnr
p5916
aV4
aVnr
p5917
aV1
aV4
aa(lp5918
V02-11-2016
p5919
aV21
p5920
aV1
aV1
aVnr
p5921
aVnr
p5922
aV1
aVnr
p5923
aV4
aVnr
p5924
aV2
aVnr
p5925
aV2
aV1
aVnr
p5926
aV3
aV2
aVnr
p5927
aVnr
p5928
aV3
aV1
aV4
aVnr
p5929
aV3
aVnr
p5930
aVnr
p5931
aVnr
p5932
aV2
aV2
aV3
aV2
aVnr
p5933
aV3
aVnr
p5934
aV5
aVnr
p5935
aVnr
p5936
aV2
aVnr
p5937
aVnr
p5938
aV4
aV3
aVnr
p5939
aVnr
p5940
aV4
aVnr
p5941
aV1
aV4
aa(lp5942
V02-11-2016
p5943
aV22
p5944
aV1
aV2
aVnr
p5945
aVnr
p5946
aV1
aVnr
p5947
aV2
aVnr
p5948
aV1
aVnr
p5949
aV2
aV1
aVnr
p5950
aV3
aV1
aVnr
p5951
aVnr
p5952
aV2
aV1
aV2
aVnr
p5953
aV2
aV3
aVnr
p5954
aVnr
p5955
aVnr
p5956
aV2
aV2
aV2
aVnr
p5957
aV5
aVnr
p5958
aV4
aVnr
p5959
aVnr
p5960
aV3
aVnr
p5961
aVnr
p5962
aV4
aV3
aVnr
p5963
aVnr
p5964
aV2
aVnr
p5965
aV1
aV5
aa(lp5966
V02-11-2016
p5967
aV22
p5968
aV1
aV2
aVnr
p5969
aVnr
p5970
aV1
aVnr
p5971
aV2
aVnr
p5972
aV1
aVnr
p5973
aV2
aV1
aVnr
p5974
aV3
aV1
aVnr
p5975
aVnr
p5976
aV2
aV1
aV2
aVnr
p5977
aV2
aV3
aVnr
p5978
aVnr
p5979
aVnr
p5980
aV2
aV2
aV2
aVnr
p5981
aV5
aVnr
p5982
aV4
aVnr
p5983
aVnr
p5984
aV3
aVnr
p5985
aVnr
p5986
aV4
aV3
aVnr
p5987
aVnr
p5988
aV2
aVnr
p5989
aV1
aV5
aa(lp5990
V02-11-2016
p5991
aV22
p5992
aV1
aV2
aVnr
p5993
aVnr
p5994
aV1
aVnr
p5995
aV2
aVnr
p5996
aV1
aVnr
p5997
aV2
aV1
aVnr
p5998
aV3
aV1
aVnr
p5999
aVnr
p6000
aV2
aV1
aV2
aVnr
p6001
aV2
aV3
aVnr
p6002
aVnr
p6003
aVnr
p6004
aV2
aV2
aV2
aVnr
p6005
aV5
aVnr
p6006
aV4
aVnr
p6007
aVnr
p6008
aV3
aVnr
p6009
aVnr
p6010
aV4
aV3
aVnr
p6011
aVnr
p6012
aV2
aVnr
p6013
aV1
aV5
aa(lp6014
V02-11-2016
p6015
aV22
p6016
aV1
aV2
aVnr
p6017
aVnr
p6018
aV1
aVnr
p6019
aV2
aVnr
p6020
aV1
aVnr
p6021
aV2
aV1
aVnr
p6022
aV3
aV1
aVnr
p6023
aVnr
p6024
aV2
aV1
aV2
aVnr
p6025
aV2
aV3
aVnr
p6026
aVnr
p6027
aVnr
p6028
aV2
aV2
aV2
aVnr
p6029
aV5
aVnr
p6030
aV4
aVnr
p6031
aVnr
p6032
aV3
aVnr
p6033
aVnr
p6034
aV4
aV3
aVnr
p6035
aVnr
p6036
aV2
aVnr
p6037
aV1
aV5
aa(lp6038
V02-11-2016
p6039
aV23
p6040
aV2
aV4
aVnr
p6041
aVnr
p6042
aV1
aVnr
p6043
aV2
aVnr
p6044
aV1
aVnr
p6045
aV2
aV2
aVnr
p6046
aV3
aV1
aVnr
p6047
aVnr
p6048
aV2
aV1
aV2
aVnr
p6049
aV3
aV3
aVnr
p6050
aVnr
p6051
aV2
aV2
aV2
aV2
aVnr
p6052
aV6
aVnr
p6053
aV3
aVnr
p6054
aVnr
p6055
aV3
aVnr
p6056
aVnr
p6057
aV3
aV3
aVnr
p6058
aVnr
p6059
aV2
aVnr
p6060
aV1
aV5
aa(lp6061
V02-11-2016
p6062
aV23
p6063
aV2
aV4
aVnr
p6064
aVnr
p6065
aV1
aVnr
p6066
aV2
aVnr
p6067
aV1
aVnr
p6068
aV2
aV2
aVnr
p6069
aV3
aV1
aVnr
p6070
aVnr
p6071
aV2
aV1
aV2
aVnr
p6072
aV3
aV3
aVnr
p6073
aVnr
p6074
aV2
aV2
aV2
aV2
aVnr
p6075
aV6
aVnr
p6076
aV3
aVnr
p6077
aVnr
p6078
aV3
aVnr
p6079
aVnr
p6080
aV3
aV3
aVnr
p6081
aVnr
p6082
aV2
aVnr
p6083
aV1
aV5
aa(lp6084
V02-11-2016
p6085
aV23
p6086
aV2
aV4
aVnr
p6087
aVnr
p6088
aV1
aVnr
p6089
aV2
aVnr
p6090
aV1
aVnr
p6091
aV2
aV2
aVnr
p6092
aV3
aV1
aVnr
p6093
aVnr
p6094
aV2
aV1
aV2
aVnr
p6095
aV3
aV3
aVnr
p6096
aVnr
p6097
aV2
aV2
aV2
aV2
aVnr
p6098
aV6
aVnr
p6099
aV3
aVnr
p6100
aVnr
p6101
aV3
aVnr
p6102
aVnr
p6103
aV3
aV3
aVnr
p6104
aVnr
p6105
aV2
aVnr
p6106
aV1
aV5
aa(lp6107
V02-11-2016
p6108
aV24
p6109
aV2
aV10
p6110
aVnr
p6111
aVnr
p6112
aV0
aVnr
p6113
aV2
aVnr
p6114
aV1
aVnr
p6115
aV2
aV2
aVnr
p6116
aV4
aV1
aVnr
p6117
aVnr
p6118
aV2
aV2
aV2
aVnr
p6119
aV3
aV3
aVnr
p6120
aVnr
p6121
aV2
aV2
aV2
aV2
aVnr
p6122
aV5
aVnr
p6123
aV4
aVnr
p6124
aVnr
p6125
aV2
aVnr
p6126
aVnr
p6127
aV3
aV3
aVnr
p6128
aVnr
p6129
aV2
aVnr
p6130
aV2
aV4
aa(lp6131
V05-11-2016
p6132
aV8
aVnr
p6133
aV1
aVnr
p6134
aVnr
p6135
aV0
aVnr
p6136
aV3
aV3
aV2
aVnr
p6137
aV1
aV2
aVnr
p6138
aV2
aV1
aV1
aVnr
p6139
aV4
aV1
aV2
aVnr
p6140
aV2
aVnr
p6141
aVnr
p6142
aV4
aV2
aV1
aV1
aV2
aVnr
p6143
aV2
aVnr
p6144
aV2
aVnr
p6145
aVnr
p6146
aV2
aVnr
p6147
aVnr
p6148
aV3
aV2
aVnr
p6149
aV2
aV2
aVnr
p6150
aV0
aV2
aa(lp6151
V05-11-2016
p6152
aV9
aVnr
p6153
aV1
aVnr
p6154
aVnr
p6155
aV0
aVnr
p6156
aV2
aV3
aV1
aVnr
p6157
aV1
aV1
aVnr
p6158
aV2
aV1
aV0
aVnr
p6159
aV4
aV1
aV2
aVnr
p6160
aV2
aV1
aVnr
p6161
aV4
aV2
aV1
aV1
aV2
aVnr
p6162
aV3
aVnr
p6163
aV2
aVnr
p6164
aVnr
p6165
aV2
aVnr
p6166
aVnr
p6167
aV2
aV2
aVnr
p6168
aV1
aV2
aVnr
p6169
aV1
aV2
aasS'nox'
p6170
(lp6171
(lp6172
V02-11-2016
p6173
aV21
p6174
aV19
p6175
aV6
aVnr
p6176
aV39
p6177
aVnr
p6178
aVnr
p6179
aVnr
p6180
aV14
p6181
aVnr
p6182
aV38
p6183
aVnr
p6184
aV41
p6185
aV16
p6186
aV17
p6187
aVnr
p6188
aVnr
p6189
aV24
p6190
aVnr
p6191
aV29
p6192
aVnr
p6193
aVnr
p6194
aVnr
p6195
aVnr
p6196
aV18
p6197
aVnr
p6198
aV48
p6199
aV20
p6200
aVnr
p6201
aV46
p6202
aVnr
p6203
aV39
p6204
aVnr
p6205
aVnr
p6206
aV9
aVnr
p6207
aVnr
p6208
aV29
p6209
aV74
p6210
aVnr
p6211
aV31
p6212
aV32
p6213
aV22
p6214
aV91
p6215
aa(lp6216
V02-11-2016
p6217
aV21
p6218
aV19
p6219
aV6
aVnr
p6220
aV39
p6221
aVnr
p6222
aVnr
p6223
aVnr
p6224
aV14
p6225
aVnr
p6226
aV38
p6227
aVnr
p6228
aV41
p6229
aV16
p6230
aV17
p6231
aVnr
p6232
aVnr
p6233
aV24
p6234
aVnr
p6235
aV29
p6236
aVnr
p6237
aVnr
p6238
aVnr
p6239
aVnr
p6240
aV18
p6241
aVnr
p6242
aV48
p6243
aV20
p6244
aVnr
p6245
aV46
p6246
aVnr
p6247
aV39
p6248
aVnr
p6249
aVnr
p6250
aV9
aVnr
p6251
aVnr
p6252
aV29
p6253
aV74
p6254
aVnr
p6255
aV31
p6256
aV32
p6257
aV22
p6258
aV91
p6259
aa(lp6260
V02-11-2016
p6261
aV21
p6262
aV19
p6263
aV6
aVnr
p6264
aV39
p6265
aVnr
p6266
aVnr
p6267
aVnr
p6268
aV14
p6269
aVnr
p6270
aV38
p6271
aVnr
p6272
aV41
p6273
aV16
p6274
aV17
p6275
aVnr
p6276
aVnr
p6277
aV24
p6278
aVnr
p6279
aV29
p6280
aVnr
p6281
aVnr
p6282
aVnr
p6283
aVnr
p6284
aV18
p6285
aVnr
p6286
aV48
p6287
aV20
p6288
aVnr
p6289
aV46
p6290
aVnr
p6291
aV39
p6292
aVnr
p6293
aVnr
p6294
aV9
aVnr
p6295
aVnr
p6296
aV29
p6297
aV74
p6298
aVnr
p6299
aV31
p6300
aV32
p6301
aV22
p6302
aV91
p6303
aa(lp6304
V02-11-2016
p6305
aV21
p6306
aV19
p6307
aV6
aVnr
p6308
aV39
p6309
aVnr
p6310
aVnr
p6311
aVnr
p6312
aV14
p6313
aVnr
p6314
aV38
p6315
aVnr
p6316
aV41
p6317
aV16
p6318
aV17
p6319
aVnr
p6320
aVnr
p6321
aV24
p6322
aVnr
p6323
aV29
p6324
aVnr
p6325
aVnr
p6326
aVnr
p6327
aVnr
p6328
aV18
p6329
aVnr
p6330
aV48
p6331
aV20
p6332
aVnr
p6333
aV46
p6334
aVnr
p6335
aV39
p6336
aVnr
p6337
aVnr
p6338
aV9
aVnr
p6339
aVnr
p6340
aV29
p6341
aV74
p6342
aVnr
p6343
aV31
p6344
aV32
p6345
aV22
p6346
aV91
p6347
aa(lp6348
V02-11-2016
p6349
aV21
p6350
aV19
p6351
aV6
aVnr
p6352
aV39
p6353
aVnr
p6354
aVnr
p6355
aVnr
p6356
aV14
p6357
aVnr
p6358
aV38
p6359
aVnr
p6360
aV41
p6361
aV16
p6362
aV17
p6363
aVnr
p6364
aVnr
p6365
aV24
p6366
aVnr
p6367
aV29
p6368
aVnr
p6369
aVnr
p6370
aVnr
p6371
aVnr
p6372
aV18
p6373
aVnr
p6374
aV48
p6375
aV20
p6376
aVnr
p6377
aV46
p6378
aVnr
p6379
aV39
p6380
aVnr
p6381
aVnr
p6382
aV9
aVnr
p6383
aVnr
p6384
aV29
p6385
aV74
p6386
aVnr
p6387
aV31
p6388
aV32
p6389
aV22
p6390
aV91
p6391
aa(lp6392
V02-11-2016
p6393
aV21
p6394
aV19
p6395
aV6
aVnr
p6396
aV39
p6397
aVnr
p6398
aVnr
p6399
aVnr
p6400
aV14
p6401
aVnr
p6402
aV38
p6403
aVnr
p6404
aV41
p6405
aV16
p6406
aV17
p6407
aVnr
p6408
aVnr
p6409
aV24
p6410
aVnr
p6411
aV29
p6412
aVnr
p6413
aVnr
p6414
aVnr
p6415
aVnr
p6416
aV18
p6417
aVnr
p6418
aV48
p6419
aV20
p6420
aVnr
p6421
aV46
p6422
aVnr
p6423
aV39
p6424
aVnr
p6425
aVnr
p6426
aV9
aVnr
p6427
aVnr
p6428
aV29
p6429
aV74
p6430
aVnr
p6431
aV31
p6432
aV32
p6433
aV22
p6434
aV91
p6435
aa(lp6436
V02-11-2016
p6437
aV21
p6438
aV19
p6439
aV6
aVnr
p6440
aV39
p6441
aVnr
p6442
aVnr
p6443
aVnr
p6444
aV14
p6445
aVnr
p6446
aV38
p6447
aVnr
p6448
aV41
p6449
aV16
p6450
aV17
p6451
aVnr
p6452
aVnr
p6453
aV24
p6454
aVnr
p6455
aV29
p6456
aVnr
p6457
aVnr
p6458
aVnr
p6459
aVnr
p6460
aV18
p6461
aVnr
p6462
aV48
p6463
aV20
p6464
aVnr
p6465
aV46
p6466
aVnr
p6467
aV39
p6468
aVnr
p6469
aVnr
p6470
aV9
aVnr
p6471
aVnr
p6472
aV29
p6473
aV74
p6474
aVnr
p6475
aV31
p6476
aV32
p6477
aV22
p6478
aV91
p6479
aa(lp6480
V02-11-2016
p6481
aV21
p6482
aV19
p6483
aV6
aVnr
p6484
aV39
p6485
aVnr
p6486
aVnr
p6487
aVnr
p6488
aV14
p6489
aVnr
p6490
aV38
p6491
aVnr
p6492
aV41
p6493
aV16
p6494
aV17
p6495
aVnr
p6496
aVnr
p6497
aV24
p6498
aVnr
p6499
aV29
p6500
aVnr
p6501
aVnr
p6502
aVnr
p6503
aVnr
p6504
aV18
p6505
aVnr
p6506
aV48
p6507
aV20
p6508
aVnr
p6509
aV46
p6510
aVnr
p6511
aV39
p6512
aVnr
p6513
aVnr
p6514
aV9
aVnr
p6515
aVnr
p6516
aV29
p6517
aV74
p6518
aVnr
p6519
aV31
p6520
aV32
p6521
aV22
p6522
aV91
p6523
aa(lp6524
V02-11-2016
p6525
aV22
p6526
aV28
p6527
aV9
aVnr
p6528
aV47
p6529
aVnr
p6530
aVnr
p6531
aVnr
p6532
aV25
p6533
aVnr
p6534
aV44
p6535
aVnr
p6536
aV38
p6537
aV24
p6538
aV11
p6539
aVnr
p6540
aVnr
p6541
aV33
p6542
aVnr
p6543
aV33
p6544
aVnr
p6545
aVnr
p6546
aVnr
p6547
aVnr
p6548
aVnr
p6549
aVnr
p6550
aV40
p6551
aV24
p6552
aVnr
p6553
aV53
p6554
aVnr
p6555
aV42
p6556
aVnr
p6557
aVnr
p6558
aV9
aVnr
p6559
aVnr
p6560
aV36
p6561
aV60
p6562
aVnr
p6563
aV17
p6564
aV29
p6565
aV28
p6566
aV72
p6567
aa(lp6568
V02-11-2016
p6569
aV22
p6570
aV28
p6571
aV9
aVnr
p6572
aV47
p6573
aVnr
p6574
aVnr
p6575
aVnr
p6576
aV25
p6577
aVnr
p6578
aV44
p6579
aVnr
p6580
aV38
p6581
aV24
p6582
aV11
p6583
aVnr
p6584
aVnr
p6585
aV33
p6586
aVnr
p6587
aV33
p6588
aVnr
p6589
aVnr
p6590
aVnr
p6591
aVnr
p6592
aVnr
p6593
aVnr
p6594
aV40
p6595
aV24
p6596
aVnr
p6597
aV53
p6598
aVnr
p6599
aV42
p6600
aVnr
p6601
aVnr
p6602
aV9
aVnr
p6603
aVnr
p6604
aV36
p6605
aV60
p6606
aVnr
p6607
aV17
p6608
aV29
p6609
aV28
p6610
aV72
p6611
aa(lp6612
V02-11-2016
p6613
aV22
p6614
aV28
p6615
aV9
aVnr
p6616
aV47
p6617
aVnr
p6618
aVnr
p6619
aVnr
p6620
aV25
p6621
aVnr
p6622
aV44
p6623
aVnr
p6624
aV38
p6625
aV24
p6626
aV11
p6627
aVnr
p6628
aVnr
p6629
aV33
p6630
aVnr
p6631
aV33
p6632
aVnr
p6633
aVnr
p6634
aVnr
p6635
aVnr
p6636
aVnr
p6637
aVnr
p6638
aV40
p6639
aV24
p6640
aVnr
p6641
aV53
p6642
aVnr
p6643
aV42
p6644
aVnr
p6645
aVnr
p6646
aV9
aVnr
p6647
aVnr
p6648
aV36
p6649
aV60
p6650
aVnr
p6651
aV17
p6652
aV29
p6653
aV28
p6654
aV72
p6655
aa(lp6656
V02-11-2016
p6657
aV23
p6658
aV44
p6659
aV6
aVnr
p6660
aV55
p6661
aVnr
p6662
aVnr
p6663
aVnr
p6664
aV22
p6665
aVnr
p6666
aV42
p6667
aVnr
p6668
aV39
p6669
aV37
p6670
aV9
aVnr
p6671
aVnr
p6672
aV49
p6673
aVnr
p6674
aV48
p6675
aVnr
p6676
aVnr
p6677
aVnr
p6678
aVnr
p6679
aV34
p6680
aVnr
p6681
aV43
p6682
aV18
p6683
aVnr
p6684
aV55
p6685
aVnr
p6686
aV37
p6687
aVnr
p6688
aVnr
p6689
aV15
p6690
aVnr
p6691
aVnr
p6692
aV38
p6693
aV67
p6694
aVnr
p6695
aV33
p6696
aV38
p6697
aV30
p6698
aV75
p6699
aa(lp6700
V02-11-2016
p6701
aV23
p6702
aV44
p6703
aV6
aVnr
p6704
aV55
p6705
aVnr
p6706
aVnr
p6707
aVnr
p6708
aV22
p6709
aVnr
p6710
aV42
p6711
aVnr
p6712
aV39
p6713
aV37
p6714
aV9
aVnr
p6715
aVnr
p6716
aV49
p6717
aVnr
p6718
aV48
p6719
aVnr
p6720
aVnr
p6721
aVnr
p6722
aVnr
p6723
aV34
p6724
aVnr
p6725
aV43
p6726
aV18
p6727
aVnr
p6728
aV55
p6729
aVnr
p6730
aV37
p6731
aVnr
p6732
aVnr
p6733
aV15
p6734
aVnr
p6735
aVnr
p6736
aV38
p6737
aV67
p6738
aVnr
p6739
aV33
p6740
aV38
p6741
aV30
p6742
aV75
p6743
aa(lp6744
V02-11-2016
p6745
aV23
p6746
aV44
p6747
aV6
aVnr
p6748
aV55
p6749
aVnr
p6750
aVnr
p6751
aVnr
p6752
aV22
p6753
aVnr
p6754
aV42
p6755
aVnr
p6756
aV39
p6757
aV37
p6758
aV9
aVnr
p6759
aVnr
p6760
aV49
p6761
aVnr
p6762
aV48
p6763
aVnr
p6764
aVnr
p6765
aVnr
p6766
aVnr
p6767
aV34
p6768
aVnr
p6769
aV43
p6770
aV18
p6771
aVnr
p6772
aV55
p6773
aVnr
p6774
aV37
p6775
aVnr
p6776
aVnr
p6777
aV15
p6778
aVnr
p6779
aVnr
p6780
aV38
p6781
aV67
p6782
aVnr
p6783
aV33
p6784
aV38
p6785
aV30
p6786
aV75
p6787
aa(lp6788
V02-11-2016
p6789
aV23
p6790
aV44
p6791
aV6
aVnr
p6792
aV55
p6793
aVnr
p6794
aVnr
p6795
aVnr
p6796
aV22
p6797
aVnr
p6798
aV42
p6799
aVnr
p6800
aV39
p6801
aV37
p6802
aV9
aVnr
p6803
aVnr
p6804
aV49
p6805
aVnr
p6806
aV48
p6807
aVnr
p6808
aVnr
p6809
aVnr
p6810
aVnr
p6811
aV34
p6812
aVnr
p6813
aV43
p6814
aV18
p6815
aVnr
p6816
aV55
p6817
aVnr
p6818
aV37
p6819
aVnr
p6820
aVnr
p6821
aV15
p6822
aVnr
p6823
aVnr
p6824
aV38
p6825
aV67
p6826
aVnr
p6827
aV33
p6828
aV38
p6829
aV30
p6830
aV75
p6831
aa(lp6832
V02-11-2016
p6833
aV24
p6834
aV37
p6835
aV18
p6836
aVnr
p6837
aV25
p6838
aVnr
p6839
aVnr
p6840
aVnr
p6841
aV21
p6842
aVnr
p6843
aV33
p6844
aVnr
p6845
aV69
p6846
aV30
p6847
aV18
p6848
aVnr
p6849
aVnr
p6850
aV38
p6851
aVnr
p6852
aV67
p6853
aVnr
p6854
aVnr
p6855
aVnr
p6856
aVnr
p6857
aV35
p6858
aVnr
p6859
aV47
p6860
aV21
p6861
aVnr
p6862
aV57
p6863
aVnr
p6864
aV43
p6865
aVnr
p6866
aVnr
p6867
aV23
p6868
aVnr
p6869
aVnr
p6870
aV59
p6871
aV44
p6872
aVnr
p6873
aV41
p6874
aV49
p6875
aV41
p6876
aV85
p6877
aa(lp6878
V05-11-2016
p6879
aV8
aVnr
p6880
aV26
p6881
aVnr
p6882
aV35
p6883
aVnr
p6884
aVnr
p6885
aV47
p6886
aV31
p6887
aVnr
p6888
aV32
p6889
aVnr
p6890
aV46
p6891
aV18
p6892
aV43
p6893
aV16
p6894
aVnr
p6895
aV52
p6896
aVnr
p6897
aV43
p6898
aVnr
p6899
aVnr
p6900
aVnr
p6901
aV80
p6902
aV39
p6903
aVnr
p6904
aV44
p6905
aV34
p6906
aVnr
p6907
aV29
p6908
aVnr
p6909
aV39
p6910
aVnr
p6911
aVnr
p6912
aV21
p6913
aVnr
p6914
aVnr
p6915
aV48
p6916
aV31
p6917
aVnr
p6918
aV31
p6919
aV59
p6920
aV21
p6921
aV33
p6922
aa(lp6923
V05-11-2016
p6924
aV9
aVnr
p6925
aV12
p6926
aVnr
p6927
aV21
p6928
aVnr
p6929
aVnr
p6930
aV37
p6931
aV19
p6932
aVnr
p6933
aV17
p6934
aVnr
p6935
aV35
p6936
aV31
p6937
aV33
p6938
aV9
aVnr
p6939
aV50
p6940
aVnr
p6941
aV36
p6942
aVnr
p6943
aVnr
p6944
aVnr
p6945
aV66
p6946
aV30
p6947
aVnr
p6948
aV30
p6949
aV23
p6950
aVnr
p6951
aV36
p6952
aVnr
p6953
aV29
p6954
aVnr
p6955
aVnr
p6956
aV30
p6957
aVnr
p6958
aVnr
p6959
aV51
p6960
aV41
p6961
aVnr
p6962
aV31
p6963
aV60
p6964
aV23
p6965
aV35
p6966
aasS'o3'
p6967
(lp6968
(lp6969
V02-11-2016
p6970
aV21
p6971
aV15
p6972
aV24
p6973
aV15
p6974
aV5
aVnr
p6975
aV13
p6976
aVnr
p6977
aV16
p6978
aVnr
p6979
aV4
aV17
p6980
aV12
p6981
aV21
p6982
aV15
p6983
aVnr
p6984
aVnr
p6985
aV17
p6986
aV24
p6987
aV12
p6988
aVnr
p6989
aV3
aVnr
p6990
aVnr
p6991
aV21
p6992
aV27
p6993
aV5
aV15
p6994
aVnr
p6995
aV4
aVnr
p6996
aV8
aVnr
p6997
aVnr
p6998
aV28
p6999
aVnr
p7000
aVnr
p7001
aV15
p7002
aV1
aVnr
p7003
aV7
aV16
p7004
aV10
p7005
aV4
aa(lp7006
V02-11-2016
p7007
aV21
p7008
aV15
p7009
aV24
p7010
aV15
p7011
aV5
aVnr
p7012
aV13
p7013
aVnr
p7014
aV16
p7015
aVnr
p7016
aV4
aV17
p7017
aV12
p7018
aV21
p7019
aV15
p7020
aVnr
p7021
aVnr
p7022
aV17
p7023
aV24
p7024
aV12
p7025
aVnr
p7026
aV3
aVnr
p7027
aVnr
p7028
aV21
p7029
aV27
p7030
aV5
aV15
p7031
aVnr
p7032
aV4
aVnr
p7033
aV8
aVnr
p7034
aVnr
p7035
aV28
p7036
aVnr
p7037
aVnr
p7038
aV15
p7039
aV1
aVnr
p7040
aV7
aV16
p7041
aV10
p7042
aV4
aa(lp7043
V02-11-2016
p7044
aV21
p7045
aV15
p7046
aV24
p7047
aV15
p7048
aV5
aVnr
p7049
aV13
p7050
aVnr
p7051
aV16
p7052
aVnr
p7053
aV4
aV17
p7054
aV12
p7055
aV21
p7056
aV15
p7057
aVnr
p7058
aVnr
p7059
aV17
p7060
aV24
p7061
aV12
p7062
aVnr
p7063
aV3
aVnr
p7064
aVnr
p7065
aV21
p7066
aV27
p7067
aV5
aV15
p7068
aVnr
p7069
aV4
aVnr
p7070
aV8
aVnr
p7071
aVnr
p7072
aV28
p7073
aVnr
p7074
aVnr
p7075
aV15
p7076
aV1
aVnr
p7077
aV7
aV16
p7078
aV10
p7079
aV4
aa(lp7080
V02-11-2016
p7081
aV21
p7082
aV15
p7083
aV24
p7084
aV15
p7085
aV5
aVnr
p7086
aV13
p7087
aVnr
p7088
aV16
p7089
aVnr
p7090
aV4
aV17
p7091
aV12
p7092
aV21
p7093
aV15
p7094
aVnr
p7095
aVnr
p7096
aV17
p7097
aV24
p7098
aV12
p7099
aVnr
p7100
aV3
aVnr
p7101
aVnr
p7102
aV21
p7103
aV27
p7104
aV5
aV15
p7105
aVnr
p7106
aV4
aVnr
p7107
aV8
aVnr
p7108
aVnr
p7109
aV28
p7110
aVnr
p7111
aVnr
p7112
aV15
p7113
aV1
aVnr
p7114
aV7
aV16
p7115
aV10
p7116
aV4
aa(lp7117
V02-11-2016
p7118
aV21
p7119
aV15
p7120
aV24
p7121
aV15
p7122
aV5
aVnr
p7123
aV13
p7124
aVnr
p7125
aV16
p7126
aVnr
p7127
aV4
aV17
p7128
aV12
p7129
aV21
p7130
aV15
p7131
aVnr
p7132
aVnr
p7133
aV17
p7134
aV24
p7135
aV12
p7136
aVnr
p7137
aV3
aVnr
p7138
aVnr
p7139
aV21
p7140
aV27
p7141
aV5
aV15
p7142
aVnr
p7143
aV4
aVnr
p7144
aV8
aVnr
p7145
aVnr
p7146
aV28
p7147
aVnr
p7148
aVnr
p7149
aV15
p7150
aV1
aVnr
p7151
aV7
aV16
p7152
aV10
p7153
aV4
aa(lp7154
V02-11-2016
p7155
aV21
p7156
aV15
p7157
aV24
p7158
aV15
p7159
aV5
aVnr
p7160
aV13
p7161
aVnr
p7162
aV16
p7163
aVnr
p7164
aV4
aV17
p7165
aV12
p7166
aV21
p7167
aV15
p7168
aVnr
p7169
aVnr
p7170
aV17
p7171
aV24
p7172
aV12
p7173
aVnr
p7174
aV3
aVnr
p7175
aVnr
p7176
aV21
p7177
aV27
p7178
aV5
aV15
p7179
aVnr
p7180
aV4
aVnr
p7181
aV8
aVnr
p7182
aVnr
p7183
aV28
p7184
aVnr
p7185
aVnr
p7186
aV15
p7187
aV1
aVnr
p7188
aV7
aV16
p7189
aV10
p7190
aV4
aa(lp7191
V02-11-2016
p7192
aV21
p7193
aV15
p7194
aV24
p7195
aV15
p7196
aV5
aVnr
p7197
aV13
p7198
aVnr
p7199
aV16
p7200
aVnr
p7201
aV4
aV17
p7202
aV12
p7203
aV21
p7204
aV15
p7205
aVnr
p7206
aVnr
p7207
aV17
p7208
aV24
p7209
aV12
p7210
aVnr
p7211
aV3
aVnr
p7212
aVnr
p7213
aV21
p7214
aV27
p7215
aV5
aV15
p7216
aVnr
p7217
aV4
aVnr
p7218
aV8
aVnr
p7219
aVnr
p7220
aV28
p7221
aVnr
p7222
aVnr
p7223
aV15
p7224
aV1
aVnr
p7225
aV7
aV16
p7226
aV10
p7227
aV4
aa(lp7228
V02-11-2016
p7229
aV21
p7230
aV15
p7231
aV24
p7232
aV15
p7233
aV5
aVnr
p7234
aV13
p7235
aVnr
p7236
aV16
p7237
aVnr
p7238
aV4
aV17
p7239
aV12
p7240
aV21
p7241
aV15
p7242
aVnr
p7243
aVnr
p7244
aV17
p7245
aV24
p7246
aV12
p7247
aVnr
p7248
aV3
aVnr
p7249
aVnr
p7250
aV21
p7251
aV27
p7252
aV5
aV15
p7253
aVnr
p7254
aV4
aVnr
p7255
aV8
aVnr
p7256
aVnr
p7257
aV28
p7258
aVnr
p7259
aVnr
p7260
aV15
p7261
aV1
aVnr
p7262
aV7
aV16
p7263
aV10
p7264
aV4
aa(lp7265
V02-11-2016
p7266
aV22
p7267
aV5
aV20
p7268
aV10
p7269
aV4
aVnr
p7270
aV6
aVnr
p7271
aV6
aVnr
p7272
aV3
aV12
p7273
aV7
aV13
p7274
aV17
p7275
aVnr
p7276
aVnr
p7277
aV9
aV19
p7278
aV8
aVnr
p7279
aV2
aV1
aVnr
p7280
aVnr
p7281
aV26
p7282
aV7
aV7
aVnr
p7283
aV1
aVnr
p7284
aVnr
p7285
aVnr
p7286
aVnr
p7287
aV26
p7288
aVnr
p7289
aVnr
p7290
aV10
p7291
aV1
aVnr
p7292
aV10
p7293
aV13
p7294
aV5
aV4
aa(lp7295
V02-11-2016
p7296
aV22
p7297
aV5
aV20
p7298
aV10
p7299
aV4
aVnr
p7300
aV6
aVnr
p7301
aV6
aVnr
p7302
aV3
aV12
p7303
aV7
aV13
p7304
aV17
p7305
aVnr
p7306
aVnr
p7307
aV9
aV19
p7308
aV8
aVnr
p7309
aV2
aV1
aVnr
p7310
aVnr
p7311
aV26
p7312
aV7
aV7
aVnr
p7313
aV1
aVnr
p7314
aVnr
p7315
aVnr
p7316
aVnr
p7317
aV26
p7318
aVnr
p7319
aVnr
p7320
aV10
p7321
aV1
aVnr
p7322
aV10
p7323
aV13
p7324
aV5
aV4
aa(lp7325
V02-11-2016
p7326
aV22
p7327
aV5
aV20
p7328
aV10
p7329
aV4
aVnr
p7330
aV6
aVnr
p7331
aV6
aVnr
p7332
aV3
aV12
p7333
aV7
aV13
p7334
aV17
p7335
aVnr
p7336
aVnr
p7337
aV9
aV19
p7338
aV8
aVnr
p7339
aV2
aV1
aVnr
p7340
aVnr
p7341
aV26
p7342
aV7
aV7
aVnr
p7343
aV1
aVnr
p7344
aVnr
p7345
aVnr
p7346
aVnr
p7347
aV26
p7348
aVnr
p7349
aVnr
p7350
aV10
p7351
aV1
aVnr
p7352
aV10
p7353
aV13
p7354
aV5
aV4
aa(lp7355
V02-11-2016
p7356
aV23
p7357
aV3
aV27
p7358
aV16
p7359
aV2
aVnr
p7360
aV2
aVnr
p7361
aV6
aVnr
p7362
aV2
aV4
aV3
aV5
aV13
p7363
aVnr
p7364
aVnr
p7365
aV3
aV16
p7366
aV2
aVnr
p7367
aV1
aV1
aVnr
p7368
aV4
aV23
p7369
aV4
aV10
p7370
aVnr
p7371
aV1
aVnr
p7372
aV5
aVnr
p7373
aVnr
p7374
aV19
p7375
aVnr
p7376
aVnr
p7377
aV7
aV0
aVnr
p7378
aV1
aV6
aV4
aV3
aa(lp7379
V02-11-2016
p7380
aV23
p7381
aV3
aV27
p7382
aV16
p7383
aV2
aVnr
p7384
aV2
aVnr
p7385
aV6
aVnr
p7386
aV2
aV4
aV3
aV5
aV13
p7387
aVnr
p7388
aVnr
p7389
aV3
aV16
p7390
aV2
aVnr
p7391
aV1
aV1
aVnr
p7392
aV4
aV23
p7393
aV4
aV10
p7394
aVnr
p7395
aV1
aVnr
p7396
aV5
aVnr
p7397
aVnr
p7398
aV19
p7399
aVnr
p7400
aVnr
p7401
aV7
aV0
aVnr
p7402
aV1
aV6
aV4
aV3
aa(lp7403
V02-11-2016
p7404
aV23
p7405
aV3
aV27
p7406
aV16
p7407
aV2
aVnr
p7408
aV2
aVnr
p7409
aV6
aVnr
p7410
aV2
aV4
aV3
aV5
aV13
p7411
aVnr
p7412
aVnr
p7413
aV3
aV16
p7414
aV2
aVnr
p7415
aV1
aV1
aVnr
p7416
aV4
aV23
p7417
aV4
aV10
p7418
aVnr
p7419
aV1
aVnr
p7420
aV5
aVnr
p7421
aVnr
p7422
aV19
p7423
aVnr
p7424
aVnr
p7425
aV7
aV0
aVnr
p7426
aV1
aV6
aV4
aV3
aa(lp7427
V02-11-2016
p7428
aV23
p7429
aV3
aV27
p7430
aV16
p7431
aV2
aVnr
p7432
aV2
aVnr
p7433
aV6
aVnr
p7434
aV2
aV4
aV3
aV5
aV13
p7435
aVnr
p7436
aVnr
p7437
aV3
aV16
p7438
aV2
aVnr
p7439
aV1
aV1
aVnr
p7440
aV4
aV23
p7441
aV4
aV10
p7442
aVnr
p7443
aV1
aVnr
p7444
aV5
aVnr
p7445
aVnr
p7446
aV19
p7447
aVnr
p7448
aVnr
p7449
aV7
aV0
aVnr
p7450
aV1
aV6
aV4
aV3
aa(lp7451
V02-11-2016
p7452
aV24
p7453
aV3
aV17
p7454
aV7
aV4
aVnr
p7455
aV1
aVnr
p7456
aV5
aVnr
p7457
aV3
aV4
aV3
aV8
aV8
aVnr
p7458
aVnr
p7459
aV5
aV18
p7460
aV1
aVnr
p7461
aV1
aV1
aVnr
p7462
aV3
aV17
p7463
aV3
aV5
aVnr
p7464
aV1
aVnr
p7465
aV3
aVnr
p7466
aVnr
p7467
aV7
aVnr
p7468
aVnr
p7469
aV3
aV2
aVnr
p7470
aV0
aV6
aV2
aV3
aa(lp7471
V05-11-2016
p7472
aV8
aVnr
p7473
aV12
p7474
aV10
p7475
aV6
aVnr
p7476
aV5
aV5
aV5
aVnr
p7477
aV7
aV7
aV6
aV14
p7478
aV3
aV11
p7479
aV9
aV8
aV20
p7480
aV4
aVnr
p7481
aV6
aVnr
p7482
aV3
aV7
aV10
p7483
aV7
aV6
aVnr
p7484
aV9
aVnr
p7485
aV6
aVnr
p7486
aVnr
p7487
aV12
p7488
aVnr
p7489
aVnr
p7490
aV8
aV6
aVnr
p7491
aV6
aV6
aV10
p7492
aV19
p7493
aa(lp7494
V05-11-2016
p7495
aV9
aVnr
p7496
aV25
p7497
aV20
p7498
aV16
p7499
aVnr
p7500
aV12
p7501
aV12
p7502
aV15
p7503
aVnr
p7504
aV16
p7505
aV18
p7506
aV12
p7507
aV13
p7508
aV11
p7509
aV22
p7510
aV21
p7511
aV14
p7512
aV23
p7513
aV9
aVnr
p7514
aV9
aV18
p7515
aV7
aV15
p7516
aV16
p7517
aV14
p7518
aV15
p7519
aVnr
p7520
aV12
p7521
aVnr
p7522
aV15
p7523
aVnr
p7524
aVnr
p7525
aV11
p7526
aVnr
p7527
aVnr
p7528
aV12
p7529
aV9
aVnr
p7530
aV8
aV8
aV12
p7531
aV21
p7532
aasS'no2'
p7533
(lp7534
(lp7535
V02-11-2016
p7536
aV21
p7537
aV14
p7538
aV5
aVnr
p7539
aV26
p7540
aVnr
p7541
aVnr
p7542
aVnr
p7543
aV14
p7544
aVnr
p7545
aV22
p7546
aVnr
p7547
aV26
p7548
aV14
p7549
aV13
p7550
aVnr
p7551
aVnr
p7552
aV21
p7553
aV26
p7554
aVnr
p7555
aVnr
p7556
aVnr
p7557
aVnr
p7558
aV14
p7559
aVnr
p7560
aV35
p7561
aV17
p7562
aVnr
p7563
aV27
p7564
aVnr
p7565
aV33
p7566
aVnr
p7567
aVnr
p7568
aV8
aVnr
p7569
aVnr
p7570
aV22
p7571
aV34
p7572
aVnr
p7573
aV26
p7574
aV28
p7575
aV17
p7576
aV36
p7577
aa(lp7578
V02-11-2016
p7579
aV21
p7580
aV14
p7581
aV5
aVnr
p7582
aV26
p7583
aVnr
p7584
aVnr
p7585
aVnr
p7586
aV14
p7587
aVnr
p7588
aV22
p7589
aVnr
p7590
aV26
p7591
aV14
p7592
aV13
p7593
aVnr
p7594
aVnr
p7595
aV21
p7596
aV26
p7597
aVnr
p7598
aVnr
p7599
aVnr
p7600
aVnr
p7601
aV14
p7602
aVnr
p7603
aV35
p7604
aV17
p7605
aVnr
p7606
aV27
p7607
aVnr
p7608
aV33
p7609
aVnr
p7610
aVnr
p7611
aV8
aVnr
p7612
aVnr
p7613
aV22
p7614
aV34
p7615
aVnr
p7616
aV26
p7617
aV28
p7618
aV17
p7619
aV36
p7620
aa(lp7621
V02-11-2016
p7622
aV21
p7623
aV14
p7624
aV5
aVnr
p7625
aV26
p7626
aVnr
p7627
aVnr
p7628
aVnr
p7629
aV14
p7630
aVnr
p7631
aV22
p7632
aVnr
p7633
aV26
p7634
aV14
p7635
aV13
p7636
aVnr
p7637
aVnr
p7638
aV21
p7639
aV26
p7640
aVnr
p7641
aVnr
p7642
aVnr
p7643
aVnr
p7644
aV14
p7645
aVnr
p7646
aV35
p7647
aV17
p7648
aVnr
p7649
aV27
p7650
aVnr
p7651
aV33
p7652
aVnr
p7653
aVnr
p7654
aV8
aVnr
p7655
aVnr
p7656
aV22
p7657
aV34
p7658
aVnr
p7659
aV26
p7660
aV28
p7661
aV17
p7662
aV36
p7663
aa(lp7664
V02-11-2016
p7665
aV21
p7666
aV14
p7667
aV5
aVnr
p7668
aV26
p7669
aVnr
p7670
aVnr
p7671
aVnr
p7672
aV14
p7673
aVnr
p7674
aV22
p7675
aVnr
p7676
aV26
p7677
aV14
p7678
aV13
p7679
aVnr
p7680
aVnr
p7681
aV21
p7682
aV26
p7683
aVnr
p7684
aVnr
p7685
aVnr
p7686
aVnr
p7687
aV14
p7688
aVnr
p7689
aV35
p7690
aV17
p7691
aVnr
p7692
aV27
p7693
aVnr
p7694
aV33
p7695
aVnr
p7696
aVnr
p7697
aV8
aVnr
p7698
aVnr
p7699
aV22
p7700
aV34
p7701
aVnr
p7702
aV26
p7703
aV28
p7704
aV17
p7705
aV36
p7706
aa(lp7707
V02-11-2016
p7708
aV21
p7709
aV14
p7710
aV5
aVnr
p7711
aV26
p7712
aVnr
p7713
aVnr
p7714
aVnr
p7715
aV14
p7716
aVnr
p7717
aV22
p7718
aVnr
p7719
aV26
p7720
aV14
p7721
aV13
p7722
aVnr
p7723
aVnr
p7724
aV21
p7725
aV26
p7726
aVnr
p7727
aVnr
p7728
aVnr
p7729
aVnr
p7730
aV14
p7731
aVnr
p7732
aV35
p7733
aV17
p7734
aVnr
p7735
aV27
p7736
aVnr
p7737
aV33
p7738
aVnr
p7739
aVnr
p7740
aV8
aVnr
p7741
aVnr
p7742
aV22
p7743
aV34
p7744
aVnr
p7745
aV26
p7746
aV28
p7747
aV17
p7748
aV36
p7749
aa(lp7750
V02-11-2016
p7751
aV21
p7752
aV14
p7753
aV5
aVnr
p7754
aV26
p7755
aVnr
p7756
aVnr
p7757
aVnr
p7758
aV14
p7759
aVnr
p7760
aV22
p7761
aVnr
p7762
aV26
p7763
aV14
p7764
aV13
p7765
aVnr
p7766
aVnr
p7767
aV21
p7768
aV26
p7769
aVnr
p7770
aVnr
p7771
aVnr
p7772
aVnr
p7773
aV14
p7774
aVnr
p7775
aV35
p7776
aV17
p7777
aVnr
p7778
aV27
p7779
aVnr
p7780
aV33
p7781
aVnr
p7782
aVnr
p7783
aV8
aVnr
p7784
aVnr
p7785
aV22
p7786
aV34
p7787
aVnr
p7788
aV26
p7789
aV28
p7790
aV17
p7791
aV36
p7792
aa(lp7793
V02-11-2016
p7794
aV21
p7795
aV14
p7796
aV5
aVnr
p7797
aV26
p7798
aVnr
p7799
aVnr
p7800
aVnr
p7801
aV14
p7802
aVnr
p7803
aV22
p7804
aVnr
p7805
aV26
p7806
aV14
p7807
aV13
p7808
aVnr
p7809
aVnr
p7810
aV21
p7811
aV26
p7812
aVnr
p7813
aVnr
p7814
aVnr
p7815
aVnr
p7816
aV14
p7817
aVnr
p7818
aV35
p7819
aV17
p7820
aVnr
p7821
aV27
p7822
aVnr
p7823
aV33
p7824
aVnr
p7825
aVnr
p7826
aV8
aVnr
p7827
aVnr
p7828
aV22
p7829
aV34
p7830
aVnr
p7831
aV26
p7832
aV28
p7833
aV17
p7834
aV36
p7835
aa(lp7836
V02-11-2016
p7837
aV21
p7838
aV14
p7839
aV5
aVnr
p7840
aV26
p7841
aVnr
p7842
aVnr
p7843
aVnr
p7844
aV14
p7845
aVnr
p7846
aV22
p7847
aVnr
p7848
aV26
p7849
aV14
p7850
aV13
p7851
aVnr
p7852
aVnr
p7853
aV21
p7854
aV26
p7855
aVnr
p7856
aVnr
p7857
aVnr
p7858
aVnr
p7859
aV14
p7860
aVnr
p7861
aV35
p7862
aV17
p7863
aVnr
p7864
aV27
p7865
aVnr
p7866
aV33
p7867
aVnr
p7868
aVnr
p7869
aV8
aVnr
p7870
aVnr
p7871
aV22
p7872
aV34
p7873
aVnr
p7874
aV26
p7875
aV28
p7876
aV17
p7877
aV36
p7878
aa(lp7879
V02-11-2016
p7880
aV22
p7881
aV21
p7882
aV8
aVnr
p7883
aV25
p7884
aVnr
p7885
aVnr
p7886
aVnr
p7887
aV20
p7888
aVnr
p7889
aV27
p7890
aVnr
p7891
aV26
p7892
aV20
p7893
aV9
aVnr
p7894
aVnr
p7895
aV27
p7896
aV27
p7897
aVnr
p7898
aVnr
p7899
aVnr
p7900
aVnr
p7901
aVnr
p7902
aVnr
p7903
aV31
p7904
aV20
p7905
aVnr
p7906
aV36
p7907
aVnr
p7908
aVnr
p7909
aVnr
p7910
aVnr
p7911
aV8
aVnr
p7912
aVnr
p7913
aV25
p7914
aV32
p7915
aVnr
p7916
aV16
p7917
aV25
p7918
aV21
p7919
aV36
p7920
aa(lp7921
V02-11-2016
p7922
aV22
p7923
aV21
p7924
aV8
aVnr
p7925
aV25
p7926
aVnr
p7927
aVnr
p7928
aVnr
p7929
aV20
p7930
aVnr
p7931
aV27
p7932
aVnr
p7933
aV26
p7934
aV20
p7935
aV9
aVnr
p7936
aVnr
p7937
aV27
p7938
aV27
p7939
aVnr
p7940
aVnr
p7941
aVnr
p7942
aVnr
p7943
aVnr
p7944
aVnr
p7945
aV31
p7946
aV20
p7947
aVnr
p7948
aV36
p7949
aVnr
p7950
aVnr
p7951
aVnr
p7952
aVnr
p7953
aV8
aVnr
p7954
aVnr
p7955
aV25
p7956
aV32
p7957
aVnr
p7958
aV16
p7959
aV25
p7960
aV21
p7961
aV36
p7962
aa(lp7963
V02-11-2016
p7964
aV22
p7965
aV21
p7966
aV8
aVnr
p7967
aV25
p7968
aVnr
p7969
aVnr
p7970
aVnr
p7971
aV20
p7972
aVnr
p7973
aV27
p7974
aVnr
p7975
aV26
p7976
aV20
p7977
aV9
aVnr
p7978
aVnr
p7979
aV27
p7980
aV27
p7981
aVnr
p7982
aVnr
p7983
aVnr
p7984
aVnr
p7985
aVnr
p7986
aVnr
p7987
aV31
p7988
aV20
p7989
aVnr
p7990
aV36
p7991
aVnr
p7992
aVnr
p7993
aVnr
p7994
aVnr
p7995
aV8
aVnr
p7996
aVnr
p7997
aV25
p7998
aV32
p7999
aVnr
p8000
aV16
p8001
aV25
p8002
aV21
p8003
aV36
p8004
aa(lp8005
V02-11-2016
p8006
aV23
p8007
aV26
p8008
aV6
aVnr
p8009
aV22
p8010
aVnr
p8011
aVnr
p8012
aVnr
p8013
aV17
p8014
aVnr
p8015
aV27
p8016
aVnr
p8017
aV25
p8018
aV25
p8019
aV7
aVnr
p8020
aVnr
p8021
aV29
p8022
aV29
p8023
aVnr
p8024
aVnr
p8025
aVnr
p8026
aVnr
p8027
aV23
p8028
aVnr
p8029
aV32
p8030
aV15
p8031
aVnr
p8032
aV35
p8033
aVnr
p8034
aV30
p8035
aVnr
p8036
aVnr
p8037
aV13
p8038
aVnr
p8039
aVnr
p8040
aV27
p8041
aV31
p8042
aVnr
p8043
aV24
p8044
aV28
p8045
aV22
p8046
aV33
p8047
aa(lp8048
V02-11-2016
p8049
aV23
p8050
aV26
p8051
aV6
aVnr
p8052
aV22
p8053
aVnr
p8054
aVnr
p8055
aVnr
p8056
aV17
p8057
aVnr
p8058
aV27
p8059
aVnr
p8060
aV25
p8061
aV25
p8062
aV7
aVnr
p8063
aVnr
p8064
aV29
p8065
aV29
p8066
aVnr
p8067
aVnr
p8068
aVnr
p8069
aVnr
p8070
aV23
p8071
aVnr
p8072
aV32
p8073
aV15
p8074
aVnr
p8075
aV35
p8076
aVnr
p8077
aV30
p8078
aVnr
p8079
aVnr
p8080
aV13
p8081
aVnr
p8082
aVnr
p8083
aV27
p8084
aV31
p8085
aVnr
p8086
aV24
p8087
aV28
p8088
aV22
p8089
aV33
p8090
aa(lp8091
V02-11-2016
p8092
aV23
p8093
aV26
p8094
aV6
aVnr
p8095
aV22
p8096
aVnr
p8097
aVnr
p8098
aVnr
p8099
aV17
p8100
aVnr
p8101
aV27
p8102
aVnr
p8103
aV25
p8104
aV25
p8105
aV7
aVnr
p8106
aVnr
p8107
aV29
p8108
aV29
p8109
aVnr
p8110
aVnr
p8111
aVnr
p8112
aVnr
p8113
aV23
p8114
aVnr
p8115
aV32
p8116
aV15
p8117
aVnr
p8118
aV35
p8119
aVnr
p8120
aV30
p8121
aVnr
p8122
aVnr
p8123
aV13
p8124
aVnr
p8125
aVnr
p8126
aV27
p8127
aV31
p8128
aVnr
p8129
aV24
p8130
aV28
p8131
aV22
p8132
aV33
p8133
aa(lp8134
V02-11-2016
p8135
aV23
p8136
aV26
p8137
aV6
aVnr
p8138
aV22
p8139
aVnr
p8140
aVnr
p8141
aVnr
p8142
aV17
p8143
aVnr
p8144
aV27
p8145
aVnr
p8146
aV25
p8147
aV25
p8148
aV7
aVnr
p8149
aVnr
p8150
aV29
p8151
aV29
p8152
aVnr
p8153
aVnr
p8154
aVnr
p8155
aVnr
p8156
aV23
p8157
aVnr
p8158
aV32
p8159
aV15
p8160
aVnr
p8161
aV35
p8162
aVnr
p8163
aV30
p8164
aVnr
p8165
aVnr
p8166
aV13
p8167
aVnr
p8168
aVnr
p8169
aV27
p8170
aV31
p8171
aVnr
p8172
aV24
p8173
aV28
p8174
aV22
p8175
aV33
p8176
aa(lp8177
V02-11-2016
p8178
aV24
p8179
aV27
p8180
aV16
p8181
aVnr
p8182
aV17
p8183
aVnr
p8184
aVnr
p8185
aVnr
p8186
aV17
p8187
aVnr
p8188
aV22
p8189
aVnr
p8190
aV25
p8191
aV21
p8192
aV13
p8193
aVnr
p8194
aVnr
p8195
aV27
p8196
aV30
p8197
aVnr
p8198
aVnr
p8199
aVnr
p8200
aVnr
p8201
aV23
p8202
aVnr
p8203
aV32
p8204
aV17
p8205
aVnr
p8206
aV31
p8207
aVnr
p8208
aV32
p8209
aVnr
p8210
aVnr
p8211
aV19
p8212
aVnr
p8213
aVnr
p8214
aV29
p8215
aV29
p8216
aVnr
p8217
aV24
p8218
aV29
p8219
aV27
p8220
aV29
p8221
aa(lp8222
V05-11-2016
p8223
aV8
aVnr
p8224
aV20
p8225
aVnr
p8226
aV20
p8227
aVnr
p8228
aVnr
p8229
aV25
p8230
aV23
p8231
aVnr
p8232
aV15
p8233
aVnr
p8234
aV25
p8235
aV15
p8236
aV20
p8237
aV12
p8238
aVnr
p8239
aV26
p8240
aV24
p8241
aVnr
p8242
aVnr
p8243
aVnr
p8244
aV31
p8245
aV20
p8246
aVnr
p8247
aV26
p8248
aV23
p8249
aVnr
p8250
aV18
p8251
aVnr
p8252
aV25
p8253
aVnr
p8254
aVnr
p8255
aV17
p8256
aVnr
p8257
aVnr
p8258
aV27
p8259
aV22
p8260
aVnr
p8261
aV23
p8262
aV28
p8263
aV16
p8264
aV14
p8265
aa(lp8266
V05-11-2016
p8267
aV9
aVnr
p8268
aV9
aVnr
p8269
aV14
p8270
aVnr
p8271
aVnr
p8272
aV20
p8273
aV16
p8274
aVnr
p8275
aV9
aVnr
p8276
aV22
p8277
aV18
p8278
aV17
p8279
aV6
aVnr
p8280
aV22
p8281
aV22
p8282
aVnr
p8283
aVnr
p8284
aVnr
p8285
aV30
p8286
aV16
p8287
aVnr
p8288
aV20
p8289
aV16
p8290
aVnr
p8291
aV17
p8292
aVnr
p8293
aV18
p8294
aVnr
p8295
aVnr
p8296
aV20
p8297
aVnr
p8298
aVnr
p8299
aV24
p8300
aV23
p8301
aVnr
p8302
aV22
p8303
aV29
p8304
aV14
p8305
aV11
p8306
aas.