(dp1
S'tmp'
p2
(lp3
(lp4
V02-11-2016
p5
aV21
p6
aVnr
p7
aV14
p8
aV10
p9
aVnr
p10
aV16
p11
aVnr
p12
aVnr
p13
aVnr
p14
aV15
p15
aV14
p16
aVnr
p17
aV12
p18
aV16
p19
aVnr
p20
aVnr
p21
aV16
p22
aVnr
p23
aVnr
p24
aVnr
p25
aVnr
p26
aVnr
p27
aV16
p28
aV15
p29
aVnr
p30
aV17
p31
aV16
p32
aVnr
p33
aV19
p34
aV13
p35
aVnr
p36
aVnr
p37
aVnr
p38
aVnr
p39
aV15
p40
aVnr
p41
aV15
p42
aVnr
p43
aVnr
p44
aV17
p45
aV17
p46
aV18
p47
aV17
p48
aa(lp49
V02-11-2016
p50
aV21
p51
aVnr
p52
aV14
p53
aV10
p54
aVnr
p55
aV16
p56
aVnr
p57
aVnr
p58
aVnr
p59
aV15
p60
aV14
p61
aVnr
p62
aV12
p63
aV16
p64
aVnr
p65
aVnr
p66
aV16
p67
aVnr
p68
aVnr
p69
aVnr
p70
aVnr
p71
aVnr
p72
aV16
p73
aV15
p74
aVnr
p75
aV17
p76
aV16
p77
aVnr
p78
aV19
p79
aV13
p80
aVnr
p81
aVnr
p82
aVnr
p83
aVnr
p84
aV15
p85
aVnr
p86
aV15
p87
aVnr
p88
aVnr
p89
aV17
p90
aV17
p91
aV18
p92
aV17
p93
aa(lp94
V02-11-2016
p95
aV21
p96
aVnr
p97
aV14
p98
aV10
p99
aVnr
p100
aV16
p101
aVnr
p102
aVnr
p103
aVnr
p104
aV15
p105
aV14
p106
aVnr
p107
aV12
p108
aV16
p109
aVnr
p110
aVnr
p111
aV16
p112
aVnr
p113
aVnr
p114
aVnr
p115
aVnr
p116
aVnr
p117
aV16
p118
aV15
p119
aVnr
p120
aV17
p121
aV16
p122
aVnr
p123
aV19
p124
aV13
p125
aVnr
p126
aVnr
p127
aVnr
p128
aVnr
p129
aV15
p130
aVnr
p131
aV15
p132
aVnr
p133
aVnr
p134
aV17
p135
aV17
p136
aV18
p137
aV17
p138
aa(lp139
V02-11-2016
p140
aV21
p141
aVnr
p142
aV14
p143
aV10
p144
aVnr
p145
aV16
p146
aVnr
p147
aVnr
p148
aVnr
p149
aV15
p150
aV14
p151
aVnr
p152
aV12
p153
aV16
p154
aVnr
p155
aVnr
p156
aV16
p157
aVnr
p158
aVnr
p159
aVnr
p160
aVnr
p161
aVnr
p162
aV16
p163
aV15
p164
aVnr
p165
aV17
p166
aV16
p167
aVnr
p168
aV19
p169
aV13
p170
aVnr
p171
aVnr
p172
aVnr
p173
aVnr
p174
aV15
p175
aVnr
p176
aV15
p177
aVnr
p178
aVnr
p179
aV17
p180
aV17
p181
aV18
p182
aV17
p183
aa(lp184
V02-11-2016
p185
aV21
p186
aVnr
p187
aV14
p188
aV10
p189
aVnr
p190
aV16
p191
aVnr
p192
aVnr
p193
aVnr
p194
aV15
p195
aV14
p196
aVnr
p197
aV12
p198
aV16
p199
aVnr
p200
aVnr
p201
aV16
p202
aVnr
p203
aVnr
p204
aVnr
p205
aVnr
p206
aVnr
p207
aV16
p208
aV15
p209
aVnr
p210
aV17
p211
aV16
p212
aVnr
p213
aV19
p214
aV13
p215
aVnr
p216
aVnr
p217
aVnr
p218
aVnr
p219
aV15
p220
aVnr
p221
aV15
p222
aVnr
p223
aVnr
p224
aV17
p225
aV17
p226
aV18
p227
aV17
p228
aa(lp229
V02-11-2016
p230
aV21
p231
aVnr
p232
aV14
p233
aV10
p234
aVnr
p235
aV16
p236
aVnr
p237
aVnr
p238
aVnr
p239
aV15
p240
aV14
p241
aVnr
p242
aV12
p243
aV16
p244
aVnr
p245
aVnr
p246
aV16
p247
aVnr
p248
aVnr
p249
aVnr
p250
aVnr
p251
aVnr
p252
aV16
p253
aV15
p254
aVnr
p255
aV17
p256
aV16
p257
aVnr
p258
aV19
p259
aV13
p260
aVnr
p261
aVnr
p262
aVnr
p263
aVnr
p264
aV15
p265
aVnr
p266
aV15
p267
aVnr
p268
aVnr
p269
aV17
p270
aV17
p271
aV18
p272
aV17
p273
aa(lp274
V02-11-2016
p275
aV21
p276
aVnr
p277
aV14
p278
aV10
p279
aVnr
p280
aV16
p281
aVnr
p282
aVnr
p283
aVnr
p284
aV15
p285
aV14
p286
aVnr
p287
aV12
p288
aV16
p289
aVnr
p290
aVnr
p291
aV16
p292
aVnr
p293
aVnr
p294
aVnr
p295
aVnr
p296
aVnr
p297
aV16
p298
aV15
p299
aVnr
p300
aV17
p301
aV16
p302
aVnr
p303
aV19
p304
aV13
p305
aVnr
p306
aVnr
p307
aVnr
p308
aVnr
p309
aV15
p310
aVnr
p311
aV15
p312
aVnr
p313
aVnr
p314
aV17
p315
aV17
p316
aV18
p317
aV17
p318
aa(lp319
V02-11-2016
p320
aV21
p321
aVnr
p322
aV14
p323
aV10
p324
aVnr
p325
aV16
p326
aVnr
p327
aVnr
p328
aVnr
p329
aV15
p330
aV14
p331
aVnr
p332
aV12
p333
aV16
p334
aVnr
p335
aVnr
p336
aV16
p337
aVnr
p338
aVnr
p339
aVnr
p340
aVnr
p341
aVnr
p342
aV16
p343
aV15
p344
aVnr
p345
aV17
p346
aV16
p347
aVnr
p348
aV19
p349
aV13
p350
aVnr
p351
aVnr
p352
aVnr
p353
aVnr
p354
aV15
p355
aVnr
p356
aV15
p357
aVnr
p358
aVnr
p359
aV17
p360
aV17
p361
aV18
p362
aV17
p363
aa(lp364
V02-11-2016
p365
aV22
p366
aVnr
p367
aV15
p368
aV10
p369
aVnr
p370
aV16
p371
aVnr
p372
aVnr
p373
aVnr
p374
aV15
p375
aV14
p376
aVnr
p377
aV12
p378
aV15
p379
aVnr
p380
aVnr
p381
aV16
p382
aVnr
p383
aVnr
p384
aVnr
p385
aVnr
p386
aVnr
p387
aV16
p388
aVnr
p389
aVnr
p390
aV16
p391
aV15
p392
aVnr
p393
aV18
p394
aV13
p395
aVnr
p396
aVnr
p397
aVnr
p398
aVnr
p399
aV14
p400
aVnr
p401
aV14
p402
aVnr
p403
aVnr
p404
aV15
p405
aV15
p406
aV17
p407
aV16
p408
aa(lp409
V02-11-2016
p410
aV22
p411
aVnr
p412
aV15
p413
aV10
p414
aVnr
p415
aV16
p416
aVnr
p417
aVnr
p418
aVnr
p419
aV15
p420
aV14
p421
aVnr
p422
aV12
p423
aV15
p424
aVnr
p425
aVnr
p426
aV16
p427
aVnr
p428
aVnr
p429
aVnr
p430
aVnr
p431
aVnr
p432
aV16
p433
aVnr
p434
aVnr
p435
aV16
p436
aV15
p437
aVnr
p438
aV18
p439
aV13
p440
aVnr
p441
aVnr
p442
aVnr
p443
aVnr
p444
aV14
p445
aVnr
p446
aV14
p447
aVnr
p448
aVnr
p449
aV15
p450
aV15
p451
aV17
p452
aV16
p453
aa(lp454
V02-11-2016
p455
aV22
p456
aVnr
p457
aV15
p458
aV10
p459
aVnr
p460
aV16
p461
aVnr
p462
aVnr
p463
aVnr
p464
aV15
p465
aV14
p466
aVnr
p467
aV12
p468
aV15
p469
aVnr
p470
aVnr
p471
aV16
p472
aVnr
p473
aVnr
p474
aVnr
p475
aVnr
p476
aVnr
p477
aV16
p478
aVnr
p479
aVnr
p480
aV16
p481
aV15
p482
aVnr
p483
aV18
p484
aV13
p485
aVnr
p486
aVnr
p487
aVnr
p488
aVnr
p489
aV14
p490
aVnr
p491
aV14
p492
aVnr
p493
aVnr
p494
aV15
p495
aV15
p496
aV17
p497
aV16
p498
aa(lp499
V02-11-2016
p500
aV23
p501
aVnr
p502
aV14
p503
aV9
aVnr
p504
aV16
p505
aVnr
p506
aVnr
p507
aVnr
p508
aV15
p509
aV14
p510
aVnr
p511
aV12
p512
aV14
p513
aVnr
p514
aVnr
p515
aV16
p516
aVnr
p517
aVnr
p518
aVnr
p519
aVnr
p520
aVnr
p521
aV16
p522
aV16
p523
aVnr
p524
aV16
p525
aV15
p526
aVnr
p527
aV17
p528
aV13
p529
aVnr
p530
aVnr
p531
aVnr
p532
aVnr
p533
aV15
p534
aVnr
p535
aV14
p536
aVnr
p537
aVnr
p538
aV16
p539
aV16
p540
aV16
p541
aV15
p542
aa(lp543
V02-11-2016
p544
aV23
p545
aVnr
p546
aV14
p547
aV9
aVnr
p548
aV16
p549
aVnr
p550
aVnr
p551
aVnr
p552
aV15
p553
aV14
p554
aVnr
p555
aV12
p556
aV14
p557
aVnr
p558
aVnr
p559
aV16
p560
aVnr
p561
aVnr
p562
aVnr
p563
aVnr
p564
aVnr
p565
aV16
p566
aV16
p567
aVnr
p568
aV16
p569
aV15
p570
aVnr
p571
aV17
p572
aV13
p573
aVnr
p574
aVnr
p575
aVnr
p576
aVnr
p577
aV15
p578
aVnr
p579
aV14
p580
aVnr
p581
aVnr
p582
aV16
p583
aV16
p584
aV16
p585
aV15
p586
aa(lp587
V02-11-2016
p588
aV23
p589
aVnr
p590
aV14
p591
aV9
aVnr
p592
aV16
p593
aVnr
p594
aVnr
p595
aVnr
p596
aV15
p597
aV14
p598
aVnr
p599
aV12
p600
aV14
p601
aVnr
p602
aVnr
p603
aV16
p604
aVnr
p605
aVnr
p606
aVnr
p607
aVnr
p608
aVnr
p609
aV16
p610
aV16
p611
aVnr
p612
aV16
p613
aV15
p614
aVnr
p615
aV17
p616
aV13
p617
aVnr
p618
aVnr
p619
aVnr
p620
aVnr
p621
aV15
p622
aVnr
p623
aV14
p624
aVnr
p625
aVnr
p626
aV16
p627
aV16
p628
aV16
p629
aV15
p630
aa(lp631
V02-11-2016
p632
aV23
p633
aVnr
p634
aV14
p635
aV9
aVnr
p636
aV16
p637
aVnr
p638
aVnr
p639
aVnr
p640
aV15
p641
aV14
p642
aVnr
p643
aV12
p644
aV14
p645
aVnr
p646
aVnr
p647
aV16
p648
aVnr
p649
aVnr
p650
aVnr
p651
aVnr
p652
aVnr
p653
aV16
p654
aV16
p655
aVnr
p656
aV16
p657
aV15
p658
aVnr
p659
aV17
p660
aV13
p661
aVnr
p662
aVnr
p663
aVnr
p664
aVnr
p665
aV15
p666
aVnr
p667
aV14
p668
aVnr
p669
aVnr
p670
aV16
p671
aV16
p672
aV16
p673
aV15
p674
aa(lp675
V02-11-2016
p676
aV24
p677
aVnr
p678
aV14
p679
aV8
aVnr
p680
aV15
p681
aVnr
p682
aVnr
p683
aVnr
p684
aV14
p685
aV13
p686
aVnr
p687
aV12
p688
aV14
p689
aVnr
p690
aVnr
p691
aV16
p692
aVnr
p693
aVnr
p694
aVnr
p695
aVnr
p696
aVnr
p697
aV16
p698
aV15
p699
aVnr
p700
aV16
p701
aV14
p702
aVnr
p703
aV17
p704
aV13
p705
aVnr
p706
aVnr
p707
aVnr
p708
aVnr
p709
aV14
p710
aVnr
p711
aV15
p712
aVnr
p713
aVnr
p714
aV15
p715
aV16
p716
aV16
p717
aV16
p718
aasS'co'
p719
(lp720
(lp721
V02-11-2016
p722
aV21
p723
aV0.1
p724
aV0.2
p725
aVnr
p726
aVnr
p727
aV0.5
p728
aVnr
p729
aV0.6
p730
aVnr
p731
aV0.4
p732
aVnr
p733
aV0.8
p734
aV0.6
p735
aVnr
p736
aV0.5
p737
aVnr
p738
aVnr
p739
aVnr
p740
aVnr
p741
aVnr
p742
aV0.0
p743
aV0.7
p744
aVnr
p745
aVnr
p746
aVnr
p747
aVnr
p748
aV0.5
p749
aV0.6
p750
aV0.7
p751
aV0.5
p752
aVnr
p753
aV0.9
p754
aVnr
p755
aV0.7
p756
aVnr
p757
aVnr
p758
aV0.2
p759
aVnr
p760
aVnr
p761
aV0.6
p762
aV0.5
p763
aVnr
p764
aV0.7
p765
aV0.6
p766
aVnr
p767
aV0.4
p768
aV1.2
p769
aa(lp770
V02-11-2016
p771
aV21
p772
aV0.1
p773
aV0.2
p774
aVnr
p775
aVnr
p776
aV0.5
p777
aVnr
p778
aV0.6
p779
aVnr
p780
aV0.4
p781
aVnr
p782
aV0.8
p783
aV0.6
p784
aVnr
p785
aV0.5
p786
aVnr
p787
aVnr
p788
aVnr
p789
aVnr
p790
aVnr
p791
aV0.0
p792
aV0.7
p793
aVnr
p794
aVnr
p795
aVnr
p796
aVnr
p797
aV0.5
p798
aV0.6
p799
aV0.7
p800
aV0.5
p801
aVnr
p802
aV0.9
p803
aVnr
p804
aV0.7
p805
aVnr
p806
aVnr
p807
aV0.2
p808
aVnr
p809
aVnr
p810
aV0.6
p811
aV0.5
p812
aVnr
p813
aV0.7
p814
aV0.6
p815
aVnr
p816
aV0.4
p817
aV1.2
p818
aa(lp819
V02-11-2016
p820
aV21
p821
aV0.1
p822
aV0.2
p823
aVnr
p824
aVnr
p825
aV0.5
p826
aVnr
p827
aV0.6
p828
aVnr
p829
aV0.4
p830
aVnr
p831
aV0.8
p832
aV0.6
p833
aVnr
p834
aV0.5
p835
aVnr
p836
aVnr
p837
aVnr
p838
aVnr
p839
aVnr
p840
aV0.0
p841
aV0.7
p842
aVnr
p843
aVnr
p844
aVnr
p845
aVnr
p846
aV0.5
p847
aV0.6
p848
aV0.7
p849
aV0.5
p850
aVnr
p851
aV0.9
p852
aVnr
p853
aV0.7
p854
aVnr
p855
aVnr
p856
aV0.2
p857
aVnr
p858
aVnr
p859
aV0.6
p860
aV0.5
p861
aVnr
p862
aV0.7
p863
aV0.6
p864
aVnr
p865
aV0.4
p866
aV1.2
p867
aa(lp868
V02-11-2016
p869
aV21
p870
aV0.1
p871
aV0.2
p872
aVnr
p873
aVnr
p874
aV0.5
p875
aVnr
p876
aV0.6
p877
aVnr
p878
aV0.4
p879
aVnr
p880
aV0.8
p881
aV0.6
p882
aVnr
p883
aV0.5
p884
aVnr
p885
aVnr
p886
aVnr
p887
aVnr
p888
aVnr
p889
aV0.0
p890
aV0.7
p891
aVnr
p892
aVnr
p893
aVnr
p894
aVnr
p895
aV0.5
p896
aV0.6
p897
aV0.7
p898
aV0.5
p899
aVnr
p900
aV0.9
p901
aVnr
p902
aV0.7
p903
aVnr
p904
aVnr
p905
aV0.2
p906
aVnr
p907
aVnr
p908
aV0.6
p909
aV0.5
p910
aVnr
p911
aV0.7
p912
aV0.6
p913
aVnr
p914
aV0.4
p915
aV1.2
p916
aa(lp917
V02-11-2016
p918
aV21
p919
aV0.1
p920
aV0.2
p921
aVnr
p922
aVnr
p923
aV0.5
p924
aVnr
p925
aV0.6
p926
aVnr
p927
aV0.4
p928
aVnr
p929
aV0.8
p930
aV0.6
p931
aVnr
p932
aV0.5
p933
aVnr
p934
aVnr
p935
aVnr
p936
aVnr
p937
aVnr
p938
aV0.0
p939
aV0.7
p940
aVnr
p941
aVnr
p942
aVnr
p943
aVnr
p944
aV0.5
p945
aV0.6
p946
aV0.7
p947
aV0.5
p948
aVnr
p949
aV0.9
p950
aVnr
p951
aV0.7
p952
aVnr
p953
aVnr
p954
aV0.2
p955
aVnr
p956
aVnr
p957
aV0.6
p958
aV0.5
p959
aVnr
p960
aV0.7
p961
aV0.6
p962
aVnr
p963
aV0.4
p964
aV1.2
p965
aa(lp966
V02-11-2016
p967
aV21
p968
aV0.1
p969
aV0.2
p970
aVnr
p971
aVnr
p972
aV0.5
p973
aVnr
p974
aV0.6
p975
aVnr
p976
aV0.4
p977
aVnr
p978
aV0.8
p979
aV0.6
p980
aVnr
p981
aV0.5
p982
aVnr
p983
aVnr
p984
aVnr
p985
aVnr
p986
aVnr
p987
aV0.0
p988
aV0.7
p989
aVnr
p990
aVnr
p991
aVnr
p992
aVnr
p993
aV0.5
p994
aV0.6
p995
aV0.7
p996
aV0.5
p997
aVnr
p998
aV0.9
p999
aVnr
p1000
aV0.7
p1001
aVnr
p1002
aVnr
p1003
aV0.2
p1004
aVnr
p1005
aVnr
p1006
aV0.6
p1007
aV0.5
p1008
aVnr
p1009
aV0.7
p1010
aV0.6
p1011
aVnr
p1012
aV0.4
p1013
aV1.2
p1014
aa(lp1015
V02-11-2016
p1016
aV21
p1017
aV0.1
p1018
aV0.2
p1019
aVnr
p1020
aVnr
p1021
aV0.5
p1022
aVnr
p1023
aV0.6
p1024
aVnr
p1025
aV0.4
p1026
aVnr
p1027
aV0.8
p1028
aV0.6
p1029
aVnr
p1030
aV0.5
p1031
aVnr
p1032
aVnr
p1033
aVnr
p1034
aVnr
p1035
aVnr
p1036
aV0.0
p1037
aV0.7
p1038
aVnr
p1039
aVnr
p1040
aVnr
p1041
aVnr
p1042
aV0.5
p1043
aV0.6
p1044
aV0.7
p1045
aV0.5
p1046
aVnr
p1047
aV0.9
p1048
aVnr
p1049
aV0.7
p1050
aVnr
p1051
aVnr
p1052
aV0.2
p1053
aVnr
p1054
aVnr
p1055
aV0.6
p1056
aV0.5
p1057
aVnr
p1058
aV0.7
p1059
aV0.6
p1060
aVnr
p1061
aV0.4
p1062
aV1.2
p1063
aa(lp1064
V02-11-2016
p1065
aV21
p1066
aV0.1
p1067
aV0.2
p1068
aVnr
p1069
aVnr
p1070
aV0.5
p1071
aVnr
p1072
aV0.6
p1073
aVnr
p1074
aV0.4
p1075
aVnr
p1076
aV0.8
p1077
aV0.6
p1078
aVnr
p1079
aV0.5
p1080
aVnr
p1081
aVnr
p1082
aVnr
p1083
aVnr
p1084
aVnr
p1085
aV0.0
p1086
aV0.7
p1087
aVnr
p1088
aVnr
p1089
aVnr
p1090
aVnr
p1091
aV0.5
p1092
aV0.6
p1093
aV0.7
p1094
aV0.5
p1095
aVnr
p1096
aV0.9
p1097
aVnr
p1098
aV0.7
p1099
aVnr
p1100
aVnr
p1101
aV0.2
p1102
aVnr
p1103
aVnr
p1104
aV0.6
p1105
aV0.5
p1106
aVnr
p1107
aV0.7
p1108
aV0.6
p1109
aVnr
p1110
aV0.4
p1111
aV1.2
p1112
aa(lp1113
V02-11-2016
p1114
aV22
p1115
aV0.3
p1116
aV0.2
p1117
aVnr
p1118
aVnr
p1119
aV0.6
p1120
aVnr
p1121
aV0.7
p1122
aVnr
p1123
aV0.6
p1124
aVnr
p1125
aV0.9
p1126
aV0.6
p1127
aVnr
p1128
aV0.5
p1129
aVnr
p1130
aVnr
p1131
aVnr
p1132
aVnr
p1133
aVnr
p1134
aV0.1
p1135
aV0.8
p1136
aVnr
p1137
aVnr
p1138
aV0.8
p1139
aVnr
p1140
aVnr
p1141
aV0.5
p1142
aV0.5
p1143
aV0.5
p1144
aVnr
p1145
aV0.9
p1146
aVnr
p1147
aVnr
p1148
aVnr
p1149
aVnr
p1150
aV0.2
p1151
aVnr
p1152
aVnr
p1153
aV0.6
p1154
aV0.4
p1155
aVnr
p1156
aV0.5
p1157
aV0.6
p1158
aVnr
p1159
aV0.5
p1160
aV1.0
p1161
aa(lp1162
V02-11-2016
p1163
aV22
p1164
aV0.3
p1165
aV0.2
p1166
aVnr
p1167
aVnr
p1168
aV0.6
p1169
aVnr
p1170
aV0.7
p1171
aVnr
p1172
aV0.6
p1173
aVnr
p1174
aV0.9
p1175
aV0.6
p1176
aVnr
p1177
aV0.5
p1178
aVnr
p1179
aVnr
p1180
aVnr
p1181
aVnr
p1182
aVnr
p1183
aV0.1
p1184
aV0.8
p1185
aVnr
p1186
aVnr
p1187
aV0.8
p1188
aVnr
p1189
aVnr
p1190
aV0.5
p1191
aV0.5
p1192
aV0.5
p1193
aVnr
p1194
aV0.9
p1195
aVnr
p1196
aVnr
p1197
aVnr
p1198
aVnr
p1199
aV0.2
p1200
aVnr
p1201
aVnr
p1202
aV0.6
p1203
aV0.4
p1204
aVnr
p1205
aV0.5
p1206
aV0.6
p1207
aVnr
p1208
aV0.5
p1209
aV1.0
p1210
aa(lp1211
V02-11-2016
p1212
aV22
p1213
aV0.3
p1214
aV0.2
p1215
aVnr
p1216
aVnr
p1217
aV0.6
p1218
aVnr
p1219
aV0.7
p1220
aVnr
p1221
aV0.6
p1222
aVnr
p1223
aV0.9
p1224
aV0.6
p1225
aVnr
p1226
aV0.5
p1227
aVnr
p1228
aVnr
p1229
aVnr
p1230
aVnr
p1231
aVnr
p1232
aV0.1
p1233
aV0.8
p1234
aVnr
p1235
aVnr
p1236
aV0.8
p1237
aVnr
p1238
aVnr
p1239
aV0.5
p1240
aV0.5
p1241
aV0.5
p1242
aVnr
p1243
aV0.9
p1244
aVnr
p1245
aVnr
p1246
aVnr
p1247
aVnr
p1248
aV0.2
p1249
aVnr
p1250
aVnr
p1251
aV0.6
p1252
aV0.4
p1253
aVnr
p1254
aV0.5
p1255
aV0.6
p1256
aVnr
p1257
aV0.5
p1258
aV1.0
p1259
aa(lp1260
V02-11-2016
p1261
aV23
p1262
aV0.5
p1263
aV0.2
p1264
aVnr
p1265
aVnr
p1266
aV0.7
p1267
aVnr
p1268
aV0.9
p1269
aVnr
p1270
aV0.6
p1271
aVnr
p1272
aV0.8
p1273
aV1.0
p1274
aVnr
p1275
aV0.6
p1276
aVnr
p1277
aVnr
p1278
aVnr
p1279
aVnr
p1280
aVnr
p1281
aV0.1
p1282
aV1.0
p1283
aVnr
p1284
aVnr
p1285
aV0.7
p1286
aVnr
p1287
aV0.7
p1288
aV0.2
p1289
aV0.6
p1290
aV0.4
p1291
aVnr
p1292
aV0.9
p1293
aVnr
p1294
aV0.7
p1295
aVnr
p1296
aVnr
p1297
aV0.3
p1298
aVnr
p1299
aVnr
p1300
aV0.6
p1301
aV0.4
p1302
aVnr
p1303
aV0.8
p1304
aV0.8
p1305
aVnr
p1306
aV0.5
p1307
aV1.1
p1308
aa(lp1309
V02-11-2016
p1310
aV23
p1311
aV0.5
p1312
aV0.2
p1313
aVnr
p1314
aVnr
p1315
aV0.7
p1316
aVnr
p1317
aV0.9
p1318
aVnr
p1319
aV0.6
p1320
aVnr
p1321
aV0.8
p1322
aV1.0
p1323
aVnr
p1324
aV0.6
p1325
aVnr
p1326
aVnr
p1327
aVnr
p1328
aVnr
p1329
aVnr
p1330
aV0.1
p1331
aV1.0
p1332
aVnr
p1333
aVnr
p1334
aV0.7
p1335
aVnr
p1336
aV0.7
p1337
aV0.2
p1338
aV0.6
p1339
aV0.4
p1340
aVnr
p1341
aV0.9
p1342
aVnr
p1343
aV0.7
p1344
aVnr
p1345
aVnr
p1346
aV0.3
p1347
aVnr
p1348
aVnr
p1349
aV0.6
p1350
aV0.4
p1351
aVnr
p1352
aV0.8
p1353
aV0.8
p1354
aVnr
p1355
aV0.5
p1356
aV1.1
p1357
aa(lp1358
V02-11-2016
p1359
aV23
p1360
aV0.5
p1361
aV0.2
p1362
aVnr
p1363
aVnr
p1364
aV0.7
p1365
aVnr
p1366
aV0.9
p1367
aVnr
p1368
aV0.6
p1369
aVnr
p1370
aV0.8
p1371
aV1.0
p1372
aVnr
p1373
aV0.6
p1374
aVnr
p1375
aVnr
p1376
aVnr
p1377
aVnr
p1378
aVnr
p1379
aV0.1
p1380
aV1.0
p1381
aVnr
p1382
aVnr
p1383
aV0.7
p1384
aVnr
p1385
aV0.7
p1386
aV0.2
p1387
aV0.6
p1388
aV0.4
p1389
aVnr
p1390
aV0.9
p1391
aVnr
p1392
aV0.7
p1393
aVnr
p1394
aVnr
p1395
aV0.3
p1396
aVnr
p1397
aVnr
p1398
aV0.6
p1399
aV0.4
p1400
aVnr
p1401
aV0.8
p1402
aV0.8
p1403
aVnr
p1404
aV0.5
p1405
aV1.1
p1406
aa(lp1407
V02-11-2016
p1408
aV23
p1409
aV0.5
p1410
aV0.2
p1411
aVnr
p1412
aVnr
p1413
aV0.7
p1414
aVnr
p1415
aV0.9
p1416
aVnr
p1417
aV0.6
p1418
aVnr
p1419
aV0.8
p1420
aV1.0
p1421
aVnr
p1422
aV0.6
p1423
aVnr
p1424
aVnr
p1425
aVnr
p1426
aVnr
p1427
aVnr
p1428
aV0.1
p1429
aV1.0
p1430
aVnr
p1431
aVnr
p1432
aV0.7
p1433
aVnr
p1434
aV0.7
p1435
aV0.2
p1436
aV0.6
p1437
aV0.4
p1438
aVnr
p1439
aV0.9
p1440
aVnr
p1441
aV0.7
p1442
aVnr
p1443
aVnr
p1444
aV0.3
p1445
aVnr
p1446
aVnr
p1447
aV0.6
p1448
aV0.4
p1449
aVnr
p1450
aV0.8
p1451
aV0.8
p1452
aVnr
p1453
aV0.5
p1454
aV1.1
p1455
aa(lp1456
V02-11-2016
p1457
aV24
p1458
aV0.5
p1459
aV0.3
p1460
aVnr
p1461
aVnr
p1462
aV0.4
p1463
aVnr
p1464
aV1.0
p1465
aVnr
p1466
aV0.6
p1467
aVnr
p1468
aV0.7
p1469
aV0.9
p1470
aVnr
p1471
aV0.6
p1472
aVnr
p1473
aVnr
p1474
aVnr
p1475
aVnr
p1476
aVnr
p1477
aV0.1
p1478
aV1.3
p1479
aVnr
p1480
aVnr
p1481
aV0.7
p1482
aVnr
p1483
aV0.7
p1484
aV0.3
p1485
aV0.6
p1486
aV0.5
p1487
aVnr
p1488
aV0.9
p1489
aVnr
p1490
aV0.8
p1491
aVnr
p1492
aVnr
p1493
aV0.5
p1494
aVnr
p1495
aVnr
p1496
aV0.9
p1497
aV0.3
p1498
aVnr
p1499
aV0.8
p1500
aV0.9
p1501
aVnr
p1502
aV0.6
p1503
aV1.2
p1504
aasS'pm2'
p1505
(lp1506
(lp1507
V02-11-2016
p1508
aV21
p1509
aVnr
p1510
aV9
aV3
aVnr
p1511
aV17
p1512
aVnr
p1513
aV11
p1514
aVnr
p1515
aVnr
p1516
aV23
p1517
aVnr
p1518
aVnr
p1519
aVnr
p1520
aVnr
p1521
aV21
p1522
aV14
p1523
aVnr
p1524
aVnr
p1525
aVnr
p1526
aVnr
p1527
aV13
p1528
aV28
p1529
aVnr
p1530
aVnr
p1531
aV12
p1532
aVnr
p1533
aVnr
p1534
aVnr
p1535
aVnr
p1536
aVnr
p1537
aV13
p1538
aVnr
p1539
aVnr
p1540
aV22
p1541
aVnr
p1542
aVnr
p1543
aV7
aa(lp1544
V02-11-2016
p1545
aV21
p1546
aVnr
p1547
aV9
aV3
aVnr
p1548
aV17
p1549
aVnr
p1550
aV11
p1551
aVnr
p1552
aVnr
p1553
aV23
p1554
aVnr
p1555
aVnr
p1556
aVnr
p1557
aVnr
p1558
aV21
p1559
aV14
p1560
aVnr
p1561
aVnr
p1562
aVnr
p1563
aVnr
p1564
aV13
p1565
aV28
p1566
aVnr
p1567
aVnr
p1568
aV12
p1569
aVnr
p1570
aVnr
p1571
aVnr
p1572
aVnr
p1573
aVnr
p1574
aV13
p1575
aVnr
p1576
aVnr
p1577
aV22
p1578
aVnr
p1579
aVnr
p1580
aV7
aa(lp1581
V02-11-2016
p1582
aV21
p1583
aVnr
p1584
aV9
aV3
aVnr
p1585
aV17
p1586
aVnr
p1587
aV11
p1588
aVnr
p1589
aVnr
p1590
aV23
p1591
aVnr
p1592
aVnr
p1593
aVnr
p1594
aVnr
p1595
aV21
p1596
aV14
p1597
aVnr
p1598
aVnr
p1599
aVnr
p1600
aVnr
p1601
aV13
p1602
aV28
p1603
aVnr
p1604
aVnr
p1605
aV12
p1606
aVnr
p1607
aVnr
p1608
aVnr
p1609
aVnr
p1610
aVnr
p1611
aV13
p1612
aVnr
p1613
aVnr
p1614
aV22
p1615
aVnr
p1616
aVnr
p1617
aV7
aa(lp1618
V02-11-2016
p1619
aV21
p1620
aVnr
p1621
aV9
aV3
aVnr
p1622
aV17
p1623
aVnr
p1624
aV11
p1625
aVnr
p1626
aVnr
p1627
aV23
p1628
aVnr
p1629
aVnr
p1630
aVnr
p1631
aVnr
p1632
aV21
p1633
aV14
p1634
aVnr
p1635
aVnr
p1636
aVnr
p1637
aVnr
p1638
aV13
p1639
aV28
p1640
aVnr
p1641
aVnr
p1642
aV12
p1643
aVnr
p1644
aVnr
p1645
aVnr
p1646
aVnr
p1647
aVnr
p1648
aV13
p1649
aVnr
p1650
aVnr
p1651
aV22
p1652
aVnr
p1653
aVnr
p1654
aV7
aa(lp1655
V02-11-2016
p1656
aV21
p1657
aVnr
p1658
aV9
aV3
aVnr
p1659
aV17
p1660
aVnr
p1661
aV11
p1662
aVnr
p1663
aVnr
p1664
aV23
p1665
aVnr
p1666
aVnr
p1667
aVnr
p1668
aVnr
p1669
aV21
p1670
aV14
p1671
aVnr
p1672
aVnr
p1673
aVnr
p1674
aVnr
p1675
aV13
p1676
aV28
p1677
aVnr
p1678
aVnr
p1679
aV12
p1680
aVnr
p1681
aVnr
p1682
aVnr
p1683
aVnr
p1684
aVnr
p1685
aV13
p1686
aVnr
p1687
aVnr
p1688
aV22
p1689
aVnr
p1690
aVnr
p1691
aV7
aa(lp1692
V02-11-2016
p1693
aV21
p1694
aVnr
p1695
aV9
aV3
aVnr
p1696
aV17
p1697
aVnr
p1698
aV11
p1699
aVnr
p1700
aVnr
p1701
aV23
p1702
aVnr
p1703
aVnr
p1704
aVnr
p1705
aVnr
p1706
aV21
p1707
aV14
p1708
aVnr
p1709
aVnr
p1710
aVnr
p1711
aVnr
p1712
aV13
p1713
aV28
p1714
aVnr
p1715
aVnr
p1716
aV12
p1717
aVnr
p1718
aVnr
p1719
aVnr
p1720
aVnr
p1721
aVnr
p1722
aV13
p1723
aVnr
p1724
aVnr
p1725
aV22
p1726
aVnr
p1727
aVnr
p1728
aV7
aa(lp1729
V02-11-2016
p1730
aV21
p1731
aVnr
p1732
aV9
aV3
aVnr
p1733
aV17
p1734
aVnr
p1735
aV11
p1736
aVnr
p1737
aVnr
p1738
aV23
p1739
aVnr
p1740
aVnr
p1741
aVnr
p1742
aVnr
p1743
aV21
p1744
aV14
p1745
aVnr
p1746
aVnr
p1747
aVnr
p1748
aVnr
p1749
aV13
p1750
aV28
p1751
aVnr
p1752
aVnr
p1753
aV12
p1754
aVnr
p1755
aVnr
p1756
aVnr
p1757
aVnr
p1758
aVnr
p1759
aV13
p1760
aVnr
p1761
aVnr
p1762
aV22
p1763
aVnr
p1764
aVnr
p1765
aV7
aa(lp1766
V02-11-2016
p1767
aV21
p1768
aVnr
p1769
aV9
aV3
aVnr
p1770
aV17
p1771
aVnr
p1772
aV11
p1773
aVnr
p1774
aVnr
p1775
aV23
p1776
aVnr
p1777
aVnr
p1778
aVnr
p1779
aVnr
p1780
aV21
p1781
aV14
p1782
aVnr
p1783
aVnr
p1784
aVnr
p1785
aVnr
p1786
aV13
p1787
aV28
p1788
aVnr
p1789
aVnr
p1790
aV12
p1791
aVnr
p1792
aVnr
p1793
aVnr
p1794
aVnr
p1795
aVnr
p1796
aV13
p1797
aVnr
p1798
aVnr
p1799
aV22
p1800
aVnr
p1801
aVnr
p1802
aV7
aa(lp1803
V02-11-2016
p1804
aV22
p1805
aVnr
p1806
aV5
aV6
aVnr
p1807
aV15
p1808
aVnr
p1809
aV6
aVnr
p1810
aVnr
p1811
aV20
p1812
aVnr
p1813
aVnr
p1814
aVnr
p1815
aVnr
p1816
aV21
p1817
aV7
aVnr
p1818
aVnr
p1819
aVnr
p1820
aVnr
p1821
aVnr
p1822
aV39
p1823
aVnr
p1824
aVnr
p1825
aV15
p1826
aVnr
p1827
aVnr
p1828
aVnr
p1829
aVnr
p1830
aVnr
p1831
aV15
p1832
aVnr
p1833
aVnr
p1834
aV18
p1835
aVnr
p1836
aVnr
p1837
aV20
p1838
aa(lp1839
V02-11-2016
p1840
aV22
p1841
aVnr
p1842
aV5
aV6
aVnr
p1843
aV15
p1844
aVnr
p1845
aV6
aVnr
p1846
aVnr
p1847
aV20
p1848
aVnr
p1849
aVnr
p1850
aVnr
p1851
aVnr
p1852
aV21
p1853
aV7
aVnr
p1854
aVnr
p1855
aVnr
p1856
aVnr
p1857
aVnr
p1858
aV39
p1859
aVnr
p1860
aVnr
p1861
aV15
p1862
aVnr
p1863
aVnr
p1864
aVnr
p1865
aVnr
p1866
aVnr
p1867
aV15
p1868
aVnr
p1869
aVnr
p1870
aV18
p1871
aVnr
p1872
aVnr
p1873
aV20
p1874
aa(lp1875
V02-11-2016
p1876
aV22
p1877
aVnr
p1878
aV5
aV6
aVnr
p1879
aV15
p1880
aVnr
p1881
aV6
aVnr
p1882
aVnr
p1883
aV20
p1884
aVnr
p1885
aVnr
p1886
aVnr
p1887
aVnr
p1888
aV21
p1889
aV7
aVnr
p1890
aVnr
p1891
aVnr
p1892
aVnr
p1893
aVnr
p1894
aV39
p1895
aVnr
p1896
aVnr
p1897
aV15
p1898
aVnr
p1899
aVnr
p1900
aVnr
p1901
aVnr
p1902
aVnr
p1903
aV15
p1904
aVnr
p1905
aVnr
p1906
aV18
p1907
aVnr
p1908
aVnr
p1909
aV20
p1910
aa(lp1911
V02-11-2016
p1912
aV23
p1913
aVnr
p1914
aV2
aV4
aVnr
p1915
aV12
p1916
aVnr
p1917
aV8
aVnr
p1918
aVnr
p1919
aV17
p1920
aVnr
p1921
aVnr
p1922
aVnr
p1923
aVnr
p1924
aV17
p1925
aV7
aVnr
p1926
aVnr
p1927
aVnr
p1928
aVnr
p1929
aV9
aV30
p1930
aVnr
p1931
aVnr
p1932
aV20
p1933
aVnr
p1934
aVnr
p1935
aVnr
p1936
aVnr
p1937
aVnr
p1938
aV14
p1939
aVnr
p1940
aVnr
p1941
aV21
p1942
aVnr
p1943
aVnr
p1944
aV21
p1945
aa(lp1946
V02-11-2016
p1947
aV23
p1948
aVnr
p1949
aV2
aV4
aVnr
p1950
aV12
p1951
aVnr
p1952
aV8
aVnr
p1953
aVnr
p1954
aV17
p1955
aVnr
p1956
aVnr
p1957
aVnr
p1958
aVnr
p1959
aV17
p1960
aV7
aVnr
p1961
aVnr
p1962
aVnr
p1963
aVnr
p1964
aV9
aV30
p1965
aVnr
p1966
aVnr
p1967
aV20
p1968
aVnr
p1969
aVnr
p1970
aVnr
p1971
aVnr
p1972
aVnr
p1973
aV14
p1974
aVnr
p1975
aVnr
p1976
aV21
p1977
aVnr
p1978
aVnr
p1979
aV21
p1980
aa(lp1981
V02-11-2016
p1982
aV23
p1983
aVnr
p1984
aV2
aV4
aVnr
p1985
aV12
p1986
aVnr
p1987
aV8
aVnr
p1988
aVnr
p1989
aV17
p1990
aVnr
p1991
aVnr
p1992
aVnr
p1993
aVnr
p1994
aV17
p1995
aV7
aVnr
p1996
aVnr
p1997
aVnr
p1998
aVnr
p1999
aV9
aV30
p2000
aVnr
p2001
aVnr
p2002
aV20
p2003
aVnr
p2004
aVnr
p2005
aVnr
p2006
aVnr
p2007
aVnr
p2008
aV14
p2009
aVnr
p2010
aVnr
p2011
aV21
p2012
aVnr
p2013
aVnr
p2014
aV21
p2015
aa(lp2016
V02-11-2016
p2017
aV23
p2018
aVnr
p2019
aV2
aV4
aVnr
p2020
aV12
p2021
aVnr
p2022
aV8
aVnr
p2023
aVnr
p2024
aV17
p2025
aVnr
p2026
aVnr
p2027
aVnr
p2028
aVnr
p2029
aV17
p2030
aV7
aVnr
p2031
aVnr
p2032
aVnr
p2033
aVnr
p2034
aV9
aV30
p2035
aVnr
p2036
aVnr
p2037
aV20
p2038
aVnr
p2039
aVnr
p2040
aVnr
p2041
aVnr
p2042
aVnr
p2043
aV14
p2044
aVnr
p2045
aVnr
p2046
aV21
p2047
aVnr
p2048
aVnr
p2049
aV21
p2050
aa(lp2051
V02-11-2016
p2052
aV24
p2053
aVnr
p2054
aV6
aV1
aVnr
p2055
aV11
p2056
aVnr
p2057
aV10
p2058
aVnr
p2059
aVnr
p2060
aV16
p2061
aVnr
p2062
aVnr
p2063
aVnr
p2064
aVnr
p2065
aV16
p2066
aV8
aVnr
p2067
aVnr
p2068
aVnr
p2069
aVnr
p2070
aV7
aV9
aVnr
p2071
aVnr
p2072
aV20
p2073
aVnr
p2074
aVnr
p2075
aVnr
p2076
aVnr
p2077
aVnr
p2078
aV17
p2079
aVnr
p2080
aVnr
p2081
aV5
aVnr
p2082
aVnr
p2083
aV14
p2084
aasS'pm10'
p2085
(lp2086
(lp2087
V02-11-2016
p2088
aV21
p2089
aV27
p2090
aV12
p2091
aVnr
p2092
aV24
p2093
aV22
p2094
aVnr
p2095
aVnr
p2096
aVnr
p2097
aVnr
p2098
aV46
p2099
aVnr
p2100
aV17
p2101
aV41
p2102
aVnr
p2103
aVnr
p2104
aV26
p2105
aV16
p2106
aV29
p2107
aVnr
p2108
aVnr
p2109
aVnr
p2110
aVnr
p2111
aV17
p2112
aV33
p2113
aVnr
p2114
aVnr
p2115
aVnr
p2116
aV27
p2117
aVnr
p2118
aVnr
p2119
aVnr
p2120
aVnr
p2121
aVnr
p2122
aVnr
p2123
aV21
p2124
aV33
p2125
aVnr
p2126
aVnr
p2127
aVnr
p2128
aV41
p2129
aV32
p2130
aa(lp2131
V02-11-2016
p2132
aV21
p2133
aV27
p2134
aV12
p2135
aVnr
p2136
aV24
p2137
aV22
p2138
aVnr
p2139
aVnr
p2140
aVnr
p2141
aVnr
p2142
aV46
p2143
aVnr
p2144
aV17
p2145
aV41
p2146
aVnr
p2147
aVnr
p2148
aV26
p2149
aV16
p2150
aV29
p2151
aVnr
p2152
aVnr
p2153
aVnr
p2154
aVnr
p2155
aV17
p2156
aV33
p2157
aVnr
p2158
aVnr
p2159
aVnr
p2160
aV27
p2161
aVnr
p2162
aVnr
p2163
aVnr
p2164
aVnr
p2165
aVnr
p2166
aVnr
p2167
aV21
p2168
aV33
p2169
aVnr
p2170
aVnr
p2171
aVnr
p2172
aV41
p2173
aV32
p2174
aa(lp2175
V02-11-2016
p2176
aV21
p2177
aV27
p2178
aV12
p2179
aVnr
p2180
aV24
p2181
aV22
p2182
aVnr
p2183
aVnr
p2184
aVnr
p2185
aVnr
p2186
aV46
p2187
aVnr
p2188
aV17
p2189
aV41
p2190
aVnr
p2191
aVnr
p2192
aV26
p2193
aV16
p2194
aV29
p2195
aVnr
p2196
aVnr
p2197
aVnr
p2198
aVnr
p2199
aV17
p2200
aV33
p2201
aVnr
p2202
aVnr
p2203
aVnr
p2204
aV27
p2205
aVnr
p2206
aVnr
p2207
aVnr
p2208
aVnr
p2209
aVnr
p2210
aVnr
p2211
aV21
p2212
aV33
p2213
aVnr
p2214
aVnr
p2215
aVnr
p2216
aV41
p2217
aV32
p2218
aa(lp2219
V02-11-2016
p2220
aV21
p2221
aV27
p2222
aV12
p2223
aVnr
p2224
aV24
p2225
aV22
p2226
aVnr
p2227
aVnr
p2228
aVnr
p2229
aVnr
p2230
aV46
p2231
aVnr
p2232
aV17
p2233
aV41
p2234
aVnr
p2235
aVnr
p2236
aV26
p2237
aV16
p2238
aV29
p2239
aVnr
p2240
aVnr
p2241
aVnr
p2242
aVnr
p2243
aV17
p2244
aV33
p2245
aVnr
p2246
aVnr
p2247
aVnr
p2248
aV27
p2249
aVnr
p2250
aVnr
p2251
aVnr
p2252
aVnr
p2253
aVnr
p2254
aVnr
p2255
aV21
p2256
aV33
p2257
aVnr
p2258
aVnr
p2259
aVnr
p2260
aV41
p2261
aV32
p2262
aa(lp2263
V02-11-2016
p2264
aV21
p2265
aV27
p2266
aV12
p2267
aVnr
p2268
aV24
p2269
aV22
p2270
aVnr
p2271
aVnr
p2272
aVnr
p2273
aVnr
p2274
aV46
p2275
aVnr
p2276
aV17
p2277
aV41
p2278
aVnr
p2279
aVnr
p2280
aV26
p2281
aV16
p2282
aV29
p2283
aVnr
p2284
aVnr
p2285
aVnr
p2286
aVnr
p2287
aV17
p2288
aV33
p2289
aVnr
p2290
aVnr
p2291
aVnr
p2292
aV27
p2293
aVnr
p2294
aVnr
p2295
aVnr
p2296
aVnr
p2297
aVnr
p2298
aVnr
p2299
aV21
p2300
aV33
p2301
aVnr
p2302
aVnr
p2303
aVnr
p2304
aV41
p2305
aV32
p2306
aa(lp2307
V02-11-2016
p2308
aV21
p2309
aV27
p2310
aV12
p2311
aVnr
p2312
aV24
p2313
aV22
p2314
aVnr
p2315
aVnr
p2316
aVnr
p2317
aVnr
p2318
aV46
p2319
aVnr
p2320
aV17
p2321
aV41
p2322
aVnr
p2323
aVnr
p2324
aV26
p2325
aV16
p2326
aV29
p2327
aVnr
p2328
aVnr
p2329
aVnr
p2330
aVnr
p2331
aV17
p2332
aV33
p2333
aVnr
p2334
aVnr
p2335
aVnr
p2336
aV27
p2337
aVnr
p2338
aVnr
p2339
aVnr
p2340
aVnr
p2341
aVnr
p2342
aVnr
p2343
aV21
p2344
aV33
p2345
aVnr
p2346
aVnr
p2347
aVnr
p2348
aV41
p2349
aV32
p2350
aa(lp2351
V02-11-2016
p2352
aV21
p2353
aV27
p2354
aV12
p2355
aVnr
p2356
aV24
p2357
aV22
p2358
aVnr
p2359
aVnr
p2360
aVnr
p2361
aVnr
p2362
aV46
p2363
aVnr
p2364
aV17
p2365
aV41
p2366
aVnr
p2367
aVnr
p2368
aV26
p2369
aV16
p2370
aV29
p2371
aVnr
p2372
aVnr
p2373
aVnr
p2374
aVnr
p2375
aV17
p2376
aV33
p2377
aVnr
p2378
aVnr
p2379
aVnr
p2380
aV27
p2381
aVnr
p2382
aVnr
p2383
aVnr
p2384
aVnr
p2385
aVnr
p2386
aVnr
p2387
aV21
p2388
aV33
p2389
aVnr
p2390
aVnr
p2391
aVnr
p2392
aV41
p2393
aV32
p2394
aa(lp2395
V02-11-2016
p2396
aV21
p2397
aV27
p2398
aV12
p2399
aVnr
p2400
aV24
p2401
aV22
p2402
aVnr
p2403
aVnr
p2404
aVnr
p2405
aVnr
p2406
aV46
p2407
aVnr
p2408
aV17
p2409
aV41
p2410
aVnr
p2411
aVnr
p2412
aV26
p2413
aV16
p2414
aV29
p2415
aVnr
p2416
aVnr
p2417
aVnr
p2418
aVnr
p2419
aV17
p2420
aV33
p2421
aVnr
p2422
aVnr
p2423
aVnr
p2424
aV27
p2425
aVnr
p2426
aVnr
p2427
aVnr
p2428
aVnr
p2429
aVnr
p2430
aVnr
p2431
aV21
p2432
aV33
p2433
aVnr
p2434
aVnr
p2435
aVnr
p2436
aV41
p2437
aV32
p2438
aa(lp2439
V02-11-2016
p2440
aV22
p2441
aV23
p2442
aV8
aVnr
p2443
aV31
p2444
aV19
p2445
aVnr
p2446
aVnr
p2447
aVnr
p2448
aVnr
p2449
aV11
p2450
aVnr
p2451
aV11
p2452
aV40
p2453
aVnr
p2454
aVnr
p2455
aV22
p2456
aV9
aV12
p2457
aVnr
p2458
aVnr
p2459
aVnr
p2460
aVnr
p2461
aVnr
p2462
aV43
p2463
aVnr
p2464
aVnr
p2465
aVnr
p2466
aV31
p2467
aVnr
p2468
aVnr
p2469
aVnr
p2470
aV36
p2471
aVnr
p2472
aVnr
p2473
aV21
p2474
aV32
p2475
aVnr
p2476
aVnr
p2477
aVnr
p2478
aV44
p2479
aV51
p2480
aa(lp2481
V02-11-2016
p2482
aV22
p2483
aV23
p2484
aV8
aVnr
p2485
aV31
p2486
aV19
p2487
aVnr
p2488
aVnr
p2489
aVnr
p2490
aVnr
p2491
aV11
p2492
aVnr
p2493
aV11
p2494
aV40
p2495
aVnr
p2496
aVnr
p2497
aV22
p2498
aV9
aV12
p2499
aVnr
p2500
aVnr
p2501
aVnr
p2502
aVnr
p2503
aVnr
p2504
aV43
p2505
aVnr
p2506
aVnr
p2507
aVnr
p2508
aV31
p2509
aVnr
p2510
aVnr
p2511
aVnr
p2512
aV36
p2513
aVnr
p2514
aVnr
p2515
aV21
p2516
aV32
p2517
aVnr
p2518
aVnr
p2519
aVnr
p2520
aV44
p2521
aV51
p2522
aa(lp2523
V02-11-2016
p2524
aV22
p2525
aV23
p2526
aV8
aVnr
p2527
aV31
p2528
aV19
p2529
aVnr
p2530
aVnr
p2531
aVnr
p2532
aVnr
p2533
aV11
p2534
aVnr
p2535
aV11
p2536
aV40
p2537
aVnr
p2538
aVnr
p2539
aV22
p2540
aV9
aV12
p2541
aVnr
p2542
aVnr
p2543
aVnr
p2544
aVnr
p2545
aVnr
p2546
aV43
p2547
aVnr
p2548
aVnr
p2549
aVnr
p2550
aV31
p2551
aVnr
p2552
aVnr
p2553
aVnr
p2554
aV36
p2555
aVnr
p2556
aVnr
p2557
aV21
p2558
aV32
p2559
aVnr
p2560
aVnr
p2561
aVnr
p2562
aV44
p2563
aV51
p2564
aa(lp2565
V02-11-2016
p2566
aV23
p2567
aV22
p2568
aV5
aVnr
p2569
aV33
p2570
aV17
p2571
aVnr
p2572
aVnr
p2573
aVnr
p2574
aVnr
p2575
aV9
aVnr
p2576
aV5
aV36
p2577
aVnr
p2578
aVnr
p2579
aV25
p2580
aV9
aV17
p2581
aVnr
p2582
aVnr
p2583
aVnr
p2584
aVnr
p2585
aV14
p2586
aV34
p2587
aVnr
p2588
aVnr
p2589
aVnr
p2590
aV34
p2591
aVnr
p2592
aVnr
p2593
aVnr
p2594
aVnr
p2595
aVnr
p2596
aVnr
p2597
aV22
p2598
aV32
p2599
aVnr
p2600
aVnr
p2601
aVnr
p2602
aV38
p2603
aV39
p2604
aa(lp2605
V02-11-2016
p2606
aV23
p2607
aV22
p2608
aV5
aVnr
p2609
aV33
p2610
aV17
p2611
aVnr
p2612
aVnr
p2613
aVnr
p2614
aVnr
p2615
aV9
aVnr
p2616
aV5
aV36
p2617
aVnr
p2618
aVnr
p2619
aV25
p2620
aV9
aV17
p2621
aVnr
p2622
aVnr
p2623
aVnr
p2624
aVnr
p2625
aV14
p2626
aV34
p2627
aVnr
p2628
aVnr
p2629
aVnr
p2630
aV34
p2631
aVnr
p2632
aVnr
p2633
aVnr
p2634
aVnr
p2635
aVnr
p2636
aVnr
p2637
aV22
p2638
aV32
p2639
aVnr
p2640
aVnr
p2641
aVnr
p2642
aV38
p2643
aV39
p2644
aa(lp2645
V02-11-2016
p2646
aV23
p2647
aV22
p2648
aV5
aVnr
p2649
aV33
p2650
aV17
p2651
aVnr
p2652
aVnr
p2653
aVnr
p2654
aVnr
p2655
aV9
aVnr
p2656
aV5
aV36
p2657
aVnr
p2658
aVnr
p2659
aV25
p2660
aV9
aV17
p2661
aVnr
p2662
aVnr
p2663
aVnr
p2664
aVnr
p2665
aV14
p2666
aV34
p2667
aVnr
p2668
aVnr
p2669
aVnr
p2670
aV34
p2671
aVnr
p2672
aVnr
p2673
aVnr
p2674
aVnr
p2675
aVnr
p2676
aVnr
p2677
aV22
p2678
aV32
p2679
aVnr
p2680
aVnr
p2681
aVnr
p2682
aV38
p2683
aV39
p2684
aa(lp2685
V02-11-2016
p2686
aV23
p2687
aV22
p2688
aV5
aVnr
p2689
aV33
p2690
aV17
p2691
aVnr
p2692
aVnr
p2693
aVnr
p2694
aVnr
p2695
aV9
aVnr
p2696
aV5
aV36
p2697
aVnr
p2698
aVnr
p2699
aV25
p2700
aV9
aV17
p2701
aVnr
p2702
aVnr
p2703
aVnr
p2704
aVnr
p2705
aV14
p2706
aV34
p2707
aVnr
p2708
aVnr
p2709
aVnr
p2710
aV34
p2711
aVnr
p2712
aVnr
p2713
aVnr
p2714
aVnr
p2715
aVnr
p2716
aVnr
p2717
aV22
p2718
aV32
p2719
aVnr
p2720
aVnr
p2721
aVnr
p2722
aV38
p2723
aV39
p2724
aa(lp2725
V02-11-2016
p2726
aV24
p2727
aV26
p2728
aV9
aVnr
p2729
aV22
p2730
aV16
p2731
aVnr
p2732
aVnr
p2733
aVnr
p2734
aVnr
p2735
aV22
p2736
aVnr
p2737
aV21
p2738
aV19
p2739
aVnr
p2740
aVnr
p2741
aV22
p2742
aV10
p2743
aV20
p2744
aVnr
p2745
aVnr
p2746
aVnr
p2747
aVnr
p2748
aV11
p2749
aV11
p2750
aVnr
p2751
aVnr
p2752
aVnr
p2753
aV33
p2754
aVnr
p2755
aVnr
p2756
aVnr
p2757
aV26
p2758
aVnr
p2759
aVnr
p2760
aV22
p2761
aV22
p2762
aVnr
p2763
aVnr
p2764
aVnr
p2765
aV27
p2766
aV31
p2767
aasS'no'
p2768
(lp2769
(lp2770
V02-11-2016
p2771
aV21
p2772
aV4
aV0
aVnr
p2773
aV13
p2774
aVnr
p2775
aVnr
p2776
aVnr
p2777
aV0
aVnr
p2778
aV16
p2779
aVnr
p2780
aV15
p2781
aV2
aV4
aVnr
p2782
aVnr
p2783
aV3
aVnr
p2784
aV3
aVnr
p2785
aVnr
p2786
aVnr
p2787
aVnr
p2788
aV4
aVnr
p2789
aV13
p2790
aV3
aVnr
p2791
aV19
p2792
aVnr
p2793
aV6
aVnr
p2794
aVnr
p2795
aV1
aVnr
p2796
aVnr
p2797
aV7
aV40
p2798
aVnr
p2799
aV5
aV3
aV5
aV55
p2800
aa(lp2801
V02-11-2016
p2802
aV21
p2803
aV4
aV0
aVnr
p2804
aV13
p2805
aVnr
p2806
aVnr
p2807
aVnr
p2808
aV0
aVnr
p2809
aV16
p2810
aVnr
p2811
aV15
p2812
aV2
aV4
aVnr
p2813
aVnr
p2814
aV3
aVnr
p2815
aV3
aVnr
p2816
aVnr
p2817
aVnr
p2818
aVnr
p2819
aV4
aVnr
p2820
aV13
p2821
aV3
aVnr
p2822
aV19
p2823
aVnr
p2824
aV6
aVnr
p2825
aVnr
p2826
aV1
aVnr
p2827
aVnr
p2828
aV7
aV40
p2829
aVnr
p2830
aV5
aV3
aV5
aV55
p2831
aa(lp2832
V02-11-2016
p2833
aV21
p2834
aV4
aV0
aVnr
p2835
aV13
p2836
aVnr
p2837
aVnr
p2838
aVnr
p2839
aV0
aVnr
p2840
aV16
p2841
aVnr
p2842
aV15
p2843
aV2
aV4
aVnr
p2844
aVnr
p2845
aV3
aVnr
p2846
aV3
aVnr
p2847
aVnr
p2848
aVnr
p2849
aVnr
p2850
aV4
aVnr
p2851
aV13
p2852
aV3
aVnr
p2853
aV19
p2854
aVnr
p2855
aV6
aVnr
p2856
aVnr
p2857
aV1
aVnr
p2858
aVnr
p2859
aV7
aV40
p2860
aVnr
p2861
aV5
aV3
aV5
aV55
p2862
aa(lp2863
V02-11-2016
p2864
aV21
p2865
aV4
aV0
aVnr
p2866
aV13
p2867
aVnr
p2868
aVnr
p2869
aVnr
p2870
aV0
aVnr
p2871
aV16
p2872
aVnr
p2873
aV15
p2874
aV2
aV4
aVnr
p2875
aVnr
p2876
aV3
aVnr
p2877
aV3
aVnr
p2878
aVnr
p2879
aVnr
p2880
aVnr
p2881
aV4
aVnr
p2882
aV13
p2883
aV3
aVnr
p2884
aV19
p2885
aVnr
p2886
aV6
aVnr
p2887
aVnr
p2888
aV1
aVnr
p2889
aVnr
p2890
aV7
aV40
p2891
aVnr
p2892
aV5
aV3
aV5
aV55
p2893
aa(lp2894
V02-11-2016
p2895
aV21
p2896
aV4
aV0
aVnr
p2897
aV13
p2898
aVnr
p2899
aVnr
p2900
aVnr
p2901
aV0
aVnr
p2902
aV16
p2903
aVnr
p2904
aV15
p2905
aV2
aV4
aVnr
p2906
aVnr
p2907
aV3
aVnr
p2908
aV3
aVnr
p2909
aVnr
p2910
aVnr
p2911
aVnr
p2912
aV4
aVnr
p2913
aV13
p2914
aV3
aVnr
p2915
aV19
p2916
aVnr
p2917
aV6
aVnr
p2918
aVnr
p2919
aV1
aVnr
p2920
aVnr
p2921
aV7
aV40
p2922
aVnr
p2923
aV5
aV3
aV5
aV55
p2924
aa(lp2925
V02-11-2016
p2926
aV21
p2927
aV4
aV0
aVnr
p2928
aV13
p2929
aVnr
p2930
aVnr
p2931
aVnr
p2932
aV0
aVnr
p2933
aV16
p2934
aVnr
p2935
aV15
p2936
aV2
aV4
aVnr
p2937
aVnr
p2938
aV3
aVnr
p2939
aV3
aVnr
p2940
aVnr
p2941
aVnr
p2942
aVnr
p2943
aV4
aVnr
p2944
aV13
p2945
aV3
aVnr
p2946
aV19
p2947
aVnr
p2948
aV6
aVnr
p2949
aVnr
p2950
aV1
aVnr
p2951
aVnr
p2952
aV7
aV40
p2953
aVnr
p2954
aV5
aV3
aV5
aV55
p2955
aa(lp2956
V02-11-2016
p2957
aV21
p2958
aV4
aV0
aVnr
p2959
aV13
p2960
aVnr
p2961
aVnr
p2962
aVnr
p2963
aV0
aVnr
p2964
aV16
p2965
aVnr
p2966
aV15
p2967
aV2
aV4
aVnr
p2968
aVnr
p2969
aV3
aVnr
p2970
aV3
aVnr
p2971
aVnr
p2972
aVnr
p2973
aVnr
p2974
aV4
aVnr
p2975
aV13
p2976
aV3
aVnr
p2977
aV19
p2978
aVnr
p2979
aV6
aVnr
p2980
aVnr
p2981
aV1
aVnr
p2982
aVnr
p2983
aV7
aV40
p2984
aVnr
p2985
aV5
aV3
aV5
aV55
p2986
aa(lp2987
V02-11-2016
p2988
aV21
p2989
aV4
aV0
aVnr
p2990
aV13
p2991
aVnr
p2992
aVnr
p2993
aVnr
p2994
aV0
aVnr
p2995
aV16
p2996
aVnr
p2997
aV15
p2998
aV2
aV4
aVnr
p2999
aVnr
p3000
aV3
aVnr
p3001
aV3
aVnr
p3002
aVnr
p3003
aVnr
p3004
aVnr
p3005
aV4
aVnr
p3006
aV13
p3007
aV3
aVnr
p3008
aV19
p3009
aVnr
p3010
aV6
aVnr
p3011
aVnr
p3012
aV1
aVnr
p3013
aVnr
p3014
aV7
aV40
p3015
aVnr
p3016
aV5
aV3
aV5
aV55
p3017
aa(lp3018
V02-11-2016
p3019
aV22
p3020
aV7
aV1
aVnr
p3021
aV22
p3022
aVnr
p3023
aVnr
p3024
aVnr
p3025
aV4
aVnr
p3026
aV17
p3027
aVnr
p3028
aV12
p3029
aV4
aV2
aVnr
p3030
aVnr
p3031
aV6
aVnr
p3032
aV6
aVnr
p3033
aVnr
p3034
aVnr
p3035
aVnr
p3036
aVnr
p3037
aVnr
p3038
aV9
aV4
aVnr
p3039
aV17
p3040
aVnr
p3041
aV9
aVnr
p3042
aVnr
p3043
aV1
aVnr
p3044
aVnr
p3045
aV11
p3046
aV28
p3047
aVnr
p3048
aV2
aV4
aV7
aV37
p3049
aa(lp3050
V02-11-2016
p3051
aV22
p3052
aV7
aV1
aVnr
p3053
aV22
p3054
aVnr
p3055
aVnr
p3056
aVnr
p3057
aV4
aVnr
p3058
aV17
p3059
aVnr
p3060
aV12
p3061
aV4
aV2
aVnr
p3062
aVnr
p3063
aV6
aVnr
p3064
aV6
aVnr
p3065
aVnr
p3066
aVnr
p3067
aVnr
p3068
aVnr
p3069
aVnr
p3070
aV9
aV4
aVnr
p3071
aV17
p3072
aVnr
p3073
aV9
aVnr
p3074
aVnr
p3075
aV1
aVnr
p3076
aVnr
p3077
aV11
p3078
aV28
p3079
aVnr
p3080
aV2
aV4
aV7
aV37
p3081
aa(lp3082
V02-11-2016
p3083
aV22
p3084
aV7
aV1
aVnr
p3085
aV22
p3086
aVnr
p3087
aVnr
p3088
aVnr
p3089
aV4
aVnr
p3090
aV17
p3091
aVnr
p3092
aV12
p3093
aV4
aV2
aVnr
p3094
aVnr
p3095
aV6
aVnr
p3096
aV6
aVnr
p3097
aVnr
p3098
aVnr
p3099
aVnr
p3100
aVnr
p3101
aVnr
p3102
aV9
aV4
aVnr
p3103
aV17
p3104
aVnr
p3105
aV9
aVnr
p3106
aVnr
p3107
aV1
aVnr
p3108
aVnr
p3109
aV11
p3110
aV28
p3111
aVnr
p3112
aV2
aV4
aV7
aV37
p3113
aa(lp3114
V02-11-2016
p3115
aV23
p3116
aV18
p3117
aV0
aVnr
p3118
aV33
p3119
aVnr
p3120
aVnr
p3121
aVnr
p3122
aV4
aVnr
p3123
aV15
p3124
aVnr
p3125
aV14
p3126
aV12
p3127
aV2
aVnr
p3128
aVnr
p3129
aV20
p3130
aVnr
p3131
aV19
p3132
aVnr
p3133
aVnr
p3134
aVnr
p3135
aVnr
p3136
aV11
p3137
aVnr
p3138
aV11
p3139
aV3
aVnr
p3140
aV21
p3141
aVnr
p3142
aV6
aVnr
p3143
aVnr
p3144
aV2
aVnr
p3145
aVnr
p3146
aV12
p3147
aV36
p3148
aVnr
p3149
aV9
aV10
p3150
aV8
aV42
p3151
aa(lp3152
V02-11-2016
p3153
aV23
p3154
aV18
p3155
aV0
aVnr
p3156
aV33
p3157
aVnr
p3158
aVnr
p3159
aVnr
p3160
aV4
aVnr
p3161
aV15
p3162
aVnr
p3163
aV14
p3164
aV12
p3165
aV2
aVnr
p3166
aVnr
p3167
aV20
p3168
aVnr
p3169
aV19
p3170
aVnr
p3171
aVnr
p3172
aVnr
p3173
aVnr
p3174
aV11
p3175
aVnr
p3176
aV11
p3177
aV3
aVnr
p3178
aV21
p3179
aVnr
p3180
aV6
aVnr
p3181
aVnr
p3182
aV2
aVnr
p3183
aVnr
p3184
aV12
p3185
aV36
p3186
aVnr
p3187
aV9
aV10
p3188
aV8
aV42
p3189
aa(lp3190
V02-11-2016
p3191
aV23
p3192
aV18
p3193
aV0
aVnr
p3194
aV33
p3195
aVnr
p3196
aVnr
p3197
aVnr
p3198
aV4
aVnr
p3199
aV15
p3200
aVnr
p3201
aV14
p3202
aV12
p3203
aV2
aVnr
p3204
aVnr
p3205
aV20
p3206
aVnr
p3207
aV19
p3208
aVnr
p3209
aVnr
p3210
aVnr
p3211
aVnr
p3212
aV11
p3213
aVnr
p3214
aV11
p3215
aV3
aVnr
p3216
aV21
p3217
aVnr
p3218
aV6
aVnr
p3219
aVnr
p3220
aV2
aVnr
p3221
aVnr
p3222
aV12
p3223
aV36
p3224
aVnr
p3225
aV9
aV10
p3226
aV8
aV42
p3227
aa(lp3228
V02-11-2016
p3229
aV23
p3230
aV18
p3231
aV0
aVnr
p3232
aV33
p3233
aVnr
p3234
aVnr
p3235
aVnr
p3236
aV4
aVnr
p3237
aV15
p3238
aVnr
p3239
aV14
p3240
aV12
p3241
aV2
aVnr
p3242
aVnr
p3243
aV20
p3244
aVnr
p3245
aV19
p3246
aVnr
p3247
aVnr
p3248
aVnr
p3249
aVnr
p3250
aV11
p3251
aVnr
p3252
aV11
p3253
aV3
aVnr
p3254
aV21
p3255
aVnr
p3256
aV6
aVnr
p3257
aVnr
p3258
aV2
aVnr
p3259
aVnr
p3260
aV12
p3261
aV36
p3262
aVnr
p3263
aV9
aV10
p3264
aV8
aV42
p3265
aa(lp3266
V02-11-2016
p3267
aV24
p3268
aV10
p3269
aV3
aVnr
p3270
aV8
aVnr
p3271
aVnr
p3272
aVnr
p3273
aV4
aVnr
p3274
aV11
p3275
aVnr
p3276
aV44
p3277
aV9
aV6
aVnr
p3278
aVnr
p3279
aV10
p3280
aVnr
p3281
aV38
p3282
aVnr
p3283
aVnr
p3284
aVnr
p3285
aVnr
p3286
aV12
p3287
aVnr
p3288
aV15
p3289
aV4
aVnr
p3290
aV26
p3291
aVnr
p3292
aV12
p3293
aVnr
p3294
aVnr
p3295
aV4
aVnr
p3296
aVnr
p3297
aV30
p3298
aV16
p3299
aVnr
p3300
aV17
p3301
aV19
p3302
aV14
p3303
aV57
p3304
aasS'o3'
p3305
(lp3306
(lp3307
V02-11-2016
p3308
aV21
p3309
aV15
p3310
aV24
p3311
aV15
p3312
aV5
aVnr
p3313
aV13
p3314
aVnr
p3315
aV16
p3316
aVnr
p3317
aV4
aV17
p3318
aV12
p3319
aV21
p3320
aV15
p3321
aVnr
p3322
aVnr
p3323
aV17
p3324
aV24
p3325
aV12
p3326
aVnr
p3327
aV3
aVnr
p3328
aVnr
p3329
aV21
p3330
aV27
p3331
aV5
aV15
p3332
aVnr
p3333
aV4
aVnr
p3334
aV8
aVnr
p3335
aVnr
p3336
aV28
p3337
aVnr
p3338
aVnr
p3339
aV15
p3340
aV1
aVnr
p3341
aV7
aV16
p3342
aV10
p3343
aV4
aa(lp3344
V02-11-2016
p3345
aV21
p3346
aV15
p3347
aV24
p3348
aV15
p3349
aV5
aVnr
p3350
aV13
p3351
aVnr
p3352
aV16
p3353
aVnr
p3354
aV4
aV17
p3355
aV12
p3356
aV21
p3357
aV15
p3358
aVnr
p3359
aVnr
p3360
aV17
p3361
aV24
p3362
aV12
p3363
aVnr
p3364
aV3
aVnr
p3365
aVnr
p3366
aV21
p3367
aV27
p3368
aV5
aV15
p3369
aVnr
p3370
aV4
aVnr
p3371
aV8
aVnr
p3372
aVnr
p3373
aV28
p3374
aVnr
p3375
aVnr
p3376
aV15
p3377
aV1
aVnr
p3378
aV7
aV16
p3379
aV10
p3380
aV4
aa(lp3381
V02-11-2016
p3382
aV21
p3383
aV15
p3384
aV24
p3385
aV15
p3386
aV5
aVnr
p3387
aV13
p3388
aVnr
p3389
aV16
p3390
aVnr
p3391
aV4
aV17
p3392
aV12
p3393
aV21
p3394
aV15
p3395
aVnr
p3396
aVnr
p3397
aV17
p3398
aV24
p3399
aV12
p3400
aVnr
p3401
aV3
aVnr
p3402
aVnr
p3403
aV21
p3404
aV27
p3405
aV5
aV15
p3406
aVnr
p3407
aV4
aVnr
p3408
aV8
aVnr
p3409
aVnr
p3410
aV28
p3411
aVnr
p3412
aVnr
p3413
aV15
p3414
aV1
aVnr
p3415
aV7
aV16
p3416
aV10
p3417
aV4
aa(lp3418
V02-11-2016
p3419
aV21
p3420
aV15
p3421
aV24
p3422
aV15
p3423
aV5
aVnr
p3424
aV13
p3425
aVnr
p3426
aV16
p3427
aVnr
p3428
aV4
aV17
p3429
aV12
p3430
aV21
p3431
aV15
p3432
aVnr
p3433
aVnr
p3434
aV17
p3435
aV24
p3436
aV12
p3437
aVnr
p3438
aV3
aVnr
p3439
aVnr
p3440
aV21
p3441
aV27
p3442
aV5
aV15
p3443
aVnr
p3444
aV4
aVnr
p3445
aV8
aVnr
p3446
aVnr
p3447
aV28
p3448
aVnr
p3449
aVnr
p3450
aV15
p3451
aV1
aVnr
p3452
aV7
aV16
p3453
aV10
p3454
aV4
aa(lp3455
V02-11-2016
p3456
aV21
p3457
aV15
p3458
aV24
p3459
aV15
p3460
aV5
aVnr
p3461
aV13
p3462
aVnr
p3463
aV16
p3464
aVnr
p3465
aV4
aV17
p3466
aV12
p3467
aV21
p3468
aV15
p3469
aVnr
p3470
aVnr
p3471
aV17
p3472
aV24
p3473
aV12
p3474
aVnr
p3475
aV3
aVnr
p3476
aVnr
p3477
aV21
p3478
aV27
p3479
aV5
aV15
p3480
aVnr
p3481
aV4
aVnr
p3482
aV8
aVnr
p3483
aVnr
p3484
aV28
p3485
aVnr
p3486
aVnr
p3487
aV15
p3488
aV1
aVnr
p3489
aV7
aV16
p3490
aV10
p3491
aV4
aa(lp3492
V02-11-2016
p3493
aV21
p3494
aV15
p3495
aV24
p3496
aV15
p3497
aV5
aVnr
p3498
aV13
p3499
aVnr
p3500
aV16
p3501
aVnr
p3502
aV4
aV17
p3503
aV12
p3504
aV21
p3505
aV15
p3506
aVnr
p3507
aVnr
p3508
aV17
p3509
aV24
p3510
aV12
p3511
aVnr
p3512
aV3
aVnr
p3513
aVnr
p3514
aV21
p3515
aV27
p3516
aV5
aV15
p3517
aVnr
p3518
aV4
aVnr
p3519
aV8
aVnr
p3520
aVnr
p3521
aV28
p3522
aVnr
p3523
aVnr
p3524
aV15
p3525
aV1
aVnr
p3526
aV7
aV16
p3527
aV10
p3528
aV4
aa(lp3529
V02-11-2016
p3530
aV21
p3531
aV15
p3532
aV24
p3533
aV15
p3534
aV5
aVnr
p3535
aV13
p3536
aVnr
p3537
aV16
p3538
aVnr
p3539
aV4
aV17
p3540
aV12
p3541
aV21
p3542
aV15
p3543
aVnr
p3544
aVnr
p3545
aV17
p3546
aV24
p3547
aV12
p3548
aVnr
p3549
aV3
aVnr
p3550
aVnr
p3551
aV21
p3552
aV27
p3553
aV5
aV15
p3554
aVnr
p3555
aV4
aVnr
p3556
aV8
aVnr
p3557
aVnr
p3558
aV28
p3559
aVnr
p3560
aVnr
p3561
aV15
p3562
aV1
aVnr
p3563
aV7
aV16
p3564
aV10
p3565
aV4
aa(lp3566
V02-11-2016
p3567
aV21
p3568
aV15
p3569
aV24
p3570
aV15
p3571
aV5
aVnr
p3572
aV13
p3573
aVnr
p3574
aV16
p3575
aVnr
p3576
aV4
aV17
p3577
aV12
p3578
aV21
p3579
aV15
p3580
aVnr
p3581
aVnr
p3582
aV17
p3583
aV24
p3584
aV12
p3585
aVnr
p3586
aV3
aVnr
p3587
aVnr
p3588
aV21
p3589
aV27
p3590
aV5
aV15
p3591
aVnr
p3592
aV4
aVnr
p3593
aV8
aVnr
p3594
aVnr
p3595
aV28
p3596
aVnr
p3597
aVnr
p3598
aV15
p3599
aV1
aVnr
p3600
aV7
aV16
p3601
aV10
p3602
aV4
aa(lp3603
V02-11-2016
p3604
aV22
p3605
aV5
aV20
p3606
aV10
p3607
aV4
aVnr
p3608
aV6
aVnr
p3609
aV6
aVnr
p3610
aV3
aV12
p3611
aV7
aV13
p3612
aV17
p3613
aVnr
p3614
aVnr
p3615
aV9
aV19
p3616
aV8
aVnr
p3617
aV2
aV1
aVnr
p3618
aVnr
p3619
aV26
p3620
aV7
aV7
aVnr
p3621
aV1
aVnr
p3622
aVnr
p3623
aVnr
p3624
aVnr
p3625
aV26
p3626
aVnr
p3627
aVnr
p3628
aV10
p3629
aV1
aVnr
p3630
aV10
p3631
aV13
p3632
aV5
aV4
aa(lp3633
V02-11-2016
p3634
aV22
p3635
aV5
aV20
p3636
aV10
p3637
aV4
aVnr
p3638
aV6
aVnr
p3639
aV6
aVnr
p3640
aV3
aV12
p3641
aV7
aV13
p3642
aV17
p3643
aVnr
p3644
aVnr
p3645
aV9
aV19
p3646
aV8
aVnr
p3647
aV2
aV1
aVnr
p3648
aVnr
p3649
aV26
p3650
aV7
aV7
aVnr
p3651
aV1
aVnr
p3652
aVnr
p3653
aVnr
p3654
aVnr
p3655
aV26
p3656
aVnr
p3657
aVnr
p3658
aV10
p3659
aV1
aVnr
p3660
aV10
p3661
aV13
p3662
aV5
aV4
aa(lp3663
V02-11-2016
p3664
aV22
p3665
aV5
aV20
p3666
aV10
p3667
aV4
aVnr
p3668
aV6
aVnr
p3669
aV6
aVnr
p3670
aV3
aV12
p3671
aV7
aV13
p3672
aV17
p3673
aVnr
p3674
aVnr
p3675
aV9
aV19
p3676
aV8
aVnr
p3677
aV2
aV1
aVnr
p3678
aVnr
p3679
aV26
p3680
aV7
aV7
aVnr
p3681
aV1
aVnr
p3682
aVnr
p3683
aVnr
p3684
aVnr
p3685
aV26
p3686
aVnr
p3687
aVnr
p3688
aV10
p3689
aV1
aVnr
p3690
aV10
p3691
aV13
p3692
aV5
aV4
aa(lp3693
V02-11-2016
p3694
aV23
p3695
aV3
aV27
p3696
aV16
p3697
aV2
aVnr
p3698
aV2
aVnr
p3699
aV6
aVnr
p3700
aV2
aV4
aV3
aV5
aV13
p3701
aVnr
p3702
aVnr
p3703
aV3
aV16
p3704
aV2
aVnr
p3705
aV1
aV1
aVnr
p3706
aV4
aV23
p3707
aV4
aV10
p3708
aVnr
p3709
aV1
aVnr
p3710
aV5
aVnr
p3711
aVnr
p3712
aV19
p3713
aVnr
p3714
aVnr
p3715
aV7
aV0
aVnr
p3716
aV1
aV6
aV4
aV3
aa(lp3717
V02-11-2016
p3718
aV23
p3719
aV3
aV27
p3720
aV16
p3721
aV2
aVnr
p3722
aV2
aVnr
p3723
aV6
aVnr
p3724
aV2
aV4
aV3
aV5
aV13
p3725
aVnr
p3726
aVnr
p3727
aV3
aV16
p3728
aV2
aVnr
p3729
aV1
aV1
aVnr
p3730
aV4
aV23
p3731
aV4
aV10
p3732
aVnr
p3733
aV1
aVnr
p3734
aV5
aVnr
p3735
aVnr
p3736
aV19
p3737
aVnr
p3738
aVnr
p3739
aV7
aV0
aVnr
p3740
aV1
aV6
aV4
aV3
aa(lp3741
V02-11-2016
p3742
aV23
p3743
aV3
aV27
p3744
aV16
p3745
aV2
aVnr
p3746
aV2
aVnr
p3747
aV6
aVnr
p3748
aV2
aV4
aV3
aV5
aV13
p3749
aVnr
p3750
aVnr
p3751
aV3
aV16
p3752
aV2
aVnr
p3753
aV1
aV1
aVnr
p3754
aV4
aV23
p3755
aV4
aV10
p3756
aVnr
p3757
aV1
aVnr
p3758
aV5
aVnr
p3759
aVnr
p3760
aV19
p3761
aVnr
p3762
aVnr
p3763
aV7
aV0
aVnr
p3764
aV1
aV6
aV4
aV3
aa(lp3765
V02-11-2016
p3766
aV23
p3767
aV3
aV27
p3768
aV16
p3769
aV2
aVnr
p3770
aV2
aVnr
p3771
aV6
aVnr
p3772
aV2
aV4
aV3
aV5
aV13
p3773
aVnr
p3774
aVnr
p3775
aV3
aV16
p3776
aV2
aVnr
p3777
aV1
aV1
aVnr
p3778
aV4
aV23
p3779
aV4
aV10
p3780
aVnr
p3781
aV1
aVnr
p3782
aV5
aVnr
p3783
aVnr
p3784
aV19
p3785
aVnr
p3786
aVnr
p3787
aV7
aV0
aVnr
p3788
aV1
aV6
aV4
aV3
aa(lp3789
V02-11-2016
p3790
aV24
p3791
aV3
aV17
p3792
aV7
aV4
aVnr
p3793
aV1
aVnr
p3794
aV5
aVnr
p3795
aV3
aV4
aV3
aV8
aV8
aVnr
p3796
aVnr
p3797
aV5
aV18
p3798
aV1
aVnr
p3799
aV1
aV1
aVnr
p3800
aV3
aV17
p3801
aV3
aV5
aVnr
p3802
aV1
aVnr
p3803
aV3
aVnr
p3804
aVnr
p3805
aV7
aVnr
p3806
aVnr
p3807
aV3
aV2
aVnr
p3808
aV0
aV6
aV2
aV3
aasS'wsp'
p3809
(lp3810
(lp3811
V02-11-2016
p3812
aV21
p3813
aVnr
p3814
aV7
aV3
aVnr
p3815
aV4
aVnr
p3816
aVnr
p3817
aV5
aV2
aVnr
p3818
aV5
aV4
aVnr
p3819
aVnr
p3820
aV4
aVnr
p3821
aVnr
p3822
aVnr
p3823
aVnr
p3824
aVnr
p3825
aV5
aV7
aVnr
p3826
aV6
aV5
aVnr
p3827
aV1
aV7
aVnr
p3828
aVnr
p3829
aVnr
p3830
aVnr
p3831
aV8
aVnr
p3832
aV4
aVnr
p3833
aVnr
p3834
aV4
aV6
aV4
aV6
aa(lp3835
V02-11-2016
p3836
aV21
p3837
aVnr
p3838
aV7
aV3
aVnr
p3839
aV4
aVnr
p3840
aVnr
p3841
aV5
aV2
aVnr
p3842
aV5
aV4
aVnr
p3843
aVnr
p3844
aV4
aVnr
p3845
aVnr
p3846
aVnr
p3847
aVnr
p3848
aVnr
p3849
aV5
aV7
aVnr
p3850
aV6
aV5
aVnr
p3851
aV1
aV7
aVnr
p3852
aVnr
p3853
aVnr
p3854
aVnr
p3855
aV8
aVnr
p3856
aV4
aVnr
p3857
aVnr
p3858
aV4
aV6
aV4
aV6
aa(lp3859
V02-11-2016
p3860
aV21
p3861
aVnr
p3862
aV7
aV3
aVnr
p3863
aV4
aVnr
p3864
aVnr
p3865
aV5
aV2
aVnr
p3866
aV5
aV4
aVnr
p3867
aVnr
p3868
aV4
aVnr
p3869
aVnr
p3870
aVnr
p3871
aVnr
p3872
aVnr
p3873
aV5
aV7
aVnr
p3874
aV6
aV5
aVnr
p3875
aV1
aV7
aVnr
p3876
aVnr
p3877
aVnr
p3878
aVnr
p3879
aV8
aVnr
p3880
aV4
aVnr
p3881
aVnr
p3882
aV4
aV6
aV4
aV6
aa(lp3883
V02-11-2016
p3884
aV21
p3885
aVnr
p3886
aV7
aV3
aVnr
p3887
aV4
aVnr
p3888
aVnr
p3889
aV5
aV2
aVnr
p3890
aV5
aV4
aVnr
p3891
aVnr
p3892
aV4
aVnr
p3893
aVnr
p3894
aVnr
p3895
aVnr
p3896
aVnr
p3897
aV5
aV7
aVnr
p3898
aV6
aV5
aVnr
p3899
aV1
aV7
aVnr
p3900
aVnr
p3901
aVnr
p3902
aVnr
p3903
aV8
aVnr
p3904
aV4
aVnr
p3905
aVnr
p3906
aV4
aV6
aV4
aV6
aa(lp3907
V02-11-2016
p3908
aV21
p3909
aVnr
p3910
aV7
aV3
aVnr
p3911
aV4
aVnr
p3912
aVnr
p3913
aV5
aV2
aVnr
p3914
aV5
aV4
aVnr
p3915
aVnr
p3916
aV4
aVnr
p3917
aVnr
p3918
aVnr
p3919
aVnr
p3920
aVnr
p3921
aV5
aV7
aVnr
p3922
aV6
aV5
aVnr
p3923
aV1
aV7
aVnr
p3924
aVnr
p3925
aVnr
p3926
aVnr
p3927
aV8
aVnr
p3928
aV4
aVnr
p3929
aVnr
p3930
aV4
aV6
aV4
aV6
aa(lp3931
V02-11-2016
p3932
aV21
p3933
aVnr
p3934
aV7
aV3
aVnr
p3935
aV4
aVnr
p3936
aVnr
p3937
aV5
aV2
aVnr
p3938
aV5
aV4
aVnr
p3939
aVnr
p3940
aV4
aVnr
p3941
aVnr
p3942
aVnr
p3943
aVnr
p3944
aVnr
p3945
aV5
aV7
aVnr
p3946
aV6
aV5
aVnr
p3947
aV1
aV7
aVnr
p3948
aVnr
p3949
aVnr
p3950
aVnr
p3951
aV8
aVnr
p3952
aV4
aVnr
p3953
aVnr
p3954
aV4
aV6
aV4
aV6
aa(lp3955
V02-11-2016
p3956
aV21
p3957
aVnr
p3958
aV7
aV3
aVnr
p3959
aV4
aVnr
p3960
aVnr
p3961
aV5
aV2
aVnr
p3962
aV5
aV4
aVnr
p3963
aVnr
p3964
aV4
aVnr
p3965
aVnr
p3966
aVnr
p3967
aVnr
p3968
aVnr
p3969
aV5
aV7
aVnr
p3970
aV6
aV5
aVnr
p3971
aV1
aV7
aVnr
p3972
aVnr
p3973
aVnr
p3974
aVnr
p3975
aV8
aVnr
p3976
aV4
aVnr
p3977
aVnr
p3978
aV4
aV6
aV4
aV6
aa(lp3979
V02-11-2016
p3980
aV21
p3981
aVnr
p3982
aV7
aV3
aVnr
p3983
aV4
aVnr
p3984
aVnr
p3985
aV5
aV2
aVnr
p3986
aV5
aV4
aVnr
p3987
aVnr
p3988
aV4
aVnr
p3989
aVnr
p3990
aVnr
p3991
aVnr
p3992
aVnr
p3993
aV5
aV7
aVnr
p3994
aV6
aV5
aVnr
p3995
aV1
aV7
aVnr
p3996
aVnr
p3997
aVnr
p3998
aVnr
p3999
aV8
aVnr
p4000
aV4
aVnr
p4001
aVnr
p4002
aV4
aV6
aV4
aV6
aa(lp4003
V02-11-2016
p4004
aV22
p4005
aVnr
p4006
aV5
aV3
aVnr
p4007
aV4
aVnr
p4008
aVnr
p4009
aV4
aV1
aVnr
p4010
aV4
aV2
aVnr
p4011
aVnr
p4012
aV2
aVnr
p4013
aVnr
p4014
aVnr
p4015
aVnr
p4016
aVnr
p4017
aV5
aVnr
p4018
aVnr
p4019
aV7
aV4
aVnr
p4020
aV3
aV7
aVnr
p4021
aVnr
p4022
aVnr
p4023
aVnr
p4024
aV6
aVnr
p4025
aV4
aVnr
p4026
aVnr
p4027
aV3
aV5
aV3
aV8
aa(lp4028
V02-11-2016
p4029
aV22
p4030
aVnr
p4031
aV5
aV3
aVnr
p4032
aV4
aVnr
p4033
aVnr
p4034
aV4
aV1
aVnr
p4035
aV4
aV2
aVnr
p4036
aVnr
p4037
aV2
aVnr
p4038
aVnr
p4039
aVnr
p4040
aVnr
p4041
aVnr
p4042
aV5
aVnr
p4043
aVnr
p4044
aV7
aV4
aVnr
p4045
aV3
aV7
aVnr
p4046
aVnr
p4047
aVnr
p4048
aVnr
p4049
aV6
aVnr
p4050
aV4
aVnr
p4051
aVnr
p4052
aV3
aV5
aV3
aV8
aa(lp4053
V02-11-2016
p4054
aV22
p4055
aVnr
p4056
aV5
aV3
aVnr
p4057
aV4
aVnr
p4058
aVnr
p4059
aV4
aV1
aVnr
p4060
aV4
aV2
aVnr
p4061
aVnr
p4062
aV2
aVnr
p4063
aVnr
p4064
aVnr
p4065
aVnr
p4066
aVnr
p4067
aV5
aVnr
p4068
aVnr
p4069
aV7
aV4
aVnr
p4070
aV3
aV7
aVnr
p4071
aVnr
p4072
aVnr
p4073
aVnr
p4074
aV6
aVnr
p4075
aV4
aVnr
p4076
aVnr
p4077
aV3
aV5
aV3
aV8
aa(lp4078
V02-11-2016
p4079
aV23
p4080
aVnr
p4081
aV8
aVnr
p4082
aVnr
p4083
aV4
aVnr
p4084
aVnr
p4085
aV3
aV2
aVnr
p4086
aV4
aV1
aVnr
p4087
aVnr
p4088
aV2
aVnr
p4089
aVnr
p4090
aVnr
p4091
aVnr
p4092
aVnr
p4093
aV4
aV5
aVnr
p4094
aV3
aV6
aVnr
p4095
aV2
aV6
aVnr
p4096
aVnr
p4097
aVnr
p4098
aVnr
p4099
aV3
aVnr
p4100
aV3
aVnr
p4101
aVnr
p4102
aV4
aV3
aV4
aV4
aa(lp4103
V02-11-2016
p4104
aV23
p4105
aVnr
p4106
aV8
aVnr
p4107
aVnr
p4108
aV4
aVnr
p4109
aVnr
p4110
aV3
aV2
aVnr
p4111
aV4
aV1
aVnr
p4112
aVnr
p4113
aV2
aVnr
p4114
aVnr
p4115
aVnr
p4116
aVnr
p4117
aVnr
p4118
aV4
aV5
aVnr
p4119
aV3
aV6
aVnr
p4120
aV2
aV6
aVnr
p4121
aVnr
p4122
aVnr
p4123
aVnr
p4124
aV3
aVnr
p4125
aV3
aVnr
p4126
aVnr
p4127
aV4
aV3
aV4
aV4
aa(lp4128
V02-11-2016
p4129
aV23
p4130
aVnr
p4131
aV8
aVnr
p4132
aVnr
p4133
aV4
aVnr
p4134
aVnr
p4135
aV3
aV2
aVnr
p4136
aV4
aV1
aVnr
p4137
aVnr
p4138
aV2
aVnr
p4139
aVnr
p4140
aVnr
p4141
aVnr
p4142
aVnr
p4143
aV4
aV5
aVnr
p4144
aV3
aV6
aVnr
p4145
aV2
aV6
aVnr
p4146
aVnr
p4147
aVnr
p4148
aVnr
p4149
aV3
aVnr
p4150
aV3
aVnr
p4151
aVnr
p4152
aV4
aV3
aV4
aV4
aa(lp4153
V02-11-2016
p4154
aV23
p4155
aVnr
p4156
aV8
aVnr
p4157
aVnr
p4158
aV4
aVnr
p4159
aVnr
p4160
aV3
aV2
aVnr
p4161
aV4
aV1
aVnr
p4162
aVnr
p4163
aV2
aVnr
p4164
aVnr
p4165
aVnr
p4166
aVnr
p4167
aVnr
p4168
aV4
aV5
aVnr
p4169
aV3
aV6
aVnr
p4170
aV2
aV6
aVnr
p4171
aVnr
p4172
aVnr
p4173
aVnr
p4174
aV3
aVnr
p4175
aV3
aVnr
p4176
aVnr
p4177
aV4
aV3
aV4
aV4
aa(lp4178
V02-11-2016
p4179
aV24
p4180
aVnr
p4181
aV4
aV4
aVnr
p4182
aV3
aVnr
p4183
aVnr
p4184
aV2
aV2
aVnr
p4185
aV4
aV2
aVnr
p4186
aVnr
p4187
aV2
aVnr
p4188
aVnr
p4189
aVnr
p4190
aVnr
p4191
aVnr
p4192
aV3
aV3
aVnr
p4193
aV2
aV3
aVnr
p4194
aV2
aV5
aVnr
p4195
aVnr
p4196
aVnr
p4197
aVnr
p4198
aV4
aVnr
p4199
aV2
aVnr
p4200
aVnr
p4201
aV3
aV2
aV2
aV5
aasS'wdr'
p4202
(lp4203
(lp4204
V02-11-2016
p4205
aV21
p4206
aVnr
p4207
aV223
p4208
aV89
p4209
aVnr
p4210
aV265
p4211
aVnr
p4212
aVnr
p4213
aVnr
p4214
aV165
p4215
aV210
p4216
aVnr
p4217
aV263
p4218
aV355
p4219
aVnr
p4220
aVnr
p4221
aV219
p4222
aVnr
p4223
aVnr
p4224
aVnr
p4225
aVnr
p4226
aVnr
p4227
aV214
p4228
aV259
p4229
aVnr
p4230
aV216
p4231
aV239
p4232
aVnr
p4233
aV121
p4234
aV233
p4235
aVnr
p4236
aVnr
p4237
aVnr
p4238
aVnr
p4239
aV252
p4240
aVnr
p4241
aV258
p4242
aVnr
p4243
aVnr
p4244
aV154
p4245
aV237
p4246
aV336
p4247
aV243
p4248
aa(lp4249
V02-11-2016
p4250
aV21
p4251
aVnr
p4252
aV223
p4253
aV89
p4254
aVnr
p4255
aV265
p4256
aVnr
p4257
aVnr
p4258
aVnr
p4259
aV165
p4260
aV210
p4261
aVnr
p4262
aV263
p4263
aV355
p4264
aVnr
p4265
aVnr
p4266
aV219
p4267
aVnr
p4268
aVnr
p4269
aVnr
p4270
aVnr
p4271
aVnr
p4272
aV214
p4273
aV259
p4274
aVnr
p4275
aV216
p4276
aV239
p4277
aVnr
p4278
aV121
p4279
aV233
p4280
aVnr
p4281
aVnr
p4282
aVnr
p4283
aVnr
p4284
aV252
p4285
aVnr
p4286
aV258
p4287
aVnr
p4288
aVnr
p4289
aV154
p4290
aV237
p4291
aV336
p4292
aV243
p4293
aa(lp4294
V02-11-2016
p4295
aV21
p4296
aVnr
p4297
aV223
p4298
aV89
p4299
aVnr
p4300
aV265
p4301
aVnr
p4302
aVnr
p4303
aVnr
p4304
aV165
p4305
aV210
p4306
aVnr
p4307
aV263
p4308
aV355
p4309
aVnr
p4310
aVnr
p4311
aV219
p4312
aVnr
p4313
aVnr
p4314
aVnr
p4315
aVnr
p4316
aVnr
p4317
aV214
p4318
aV259
p4319
aVnr
p4320
aV216
p4321
aV239
p4322
aVnr
p4323
aV121
p4324
aV233
p4325
aVnr
p4326
aVnr
p4327
aVnr
p4328
aVnr
p4329
aV252
p4330
aVnr
p4331
aV258
p4332
aVnr
p4333
aVnr
p4334
aV154
p4335
aV237
p4336
aV336
p4337
aV243
p4338
aa(lp4339
V02-11-2016
p4340
aV21
p4341
aVnr
p4342
aV223
p4343
aV89
p4344
aVnr
p4345
aV265
p4346
aVnr
p4347
aVnr
p4348
aVnr
p4349
aV165
p4350
aV210
p4351
aVnr
p4352
aV263
p4353
aV355
p4354
aVnr
p4355
aVnr
p4356
aV219
p4357
aVnr
p4358
aVnr
p4359
aVnr
p4360
aVnr
p4361
aVnr
p4362
aV214
p4363
aV259
p4364
aVnr
p4365
aV216
p4366
aV239
p4367
aVnr
p4368
aV121
p4369
aV233
p4370
aVnr
p4371
aVnr
p4372
aVnr
p4373
aVnr
p4374
aV252
p4375
aVnr
p4376
aV258
p4377
aVnr
p4378
aVnr
p4379
aV154
p4380
aV237
p4381
aV336
p4382
aV243
p4383
aa(lp4384
V02-11-2016
p4385
aV21
p4386
aVnr
p4387
aV223
p4388
aV89
p4389
aVnr
p4390
aV265
p4391
aVnr
p4392
aVnr
p4393
aVnr
p4394
aV165
p4395
aV210
p4396
aVnr
p4397
aV263
p4398
aV355
p4399
aVnr
p4400
aVnr
p4401
aV219
p4402
aVnr
p4403
aVnr
p4404
aVnr
p4405
aVnr
p4406
aVnr
p4407
aV214
p4408
aV259
p4409
aVnr
p4410
aV216
p4411
aV239
p4412
aVnr
p4413
aV121
p4414
aV233
p4415
aVnr
p4416
aVnr
p4417
aVnr
p4418
aVnr
p4419
aV252
p4420
aVnr
p4421
aV258
p4422
aVnr
p4423
aVnr
p4424
aV154
p4425
aV237
p4426
aV336
p4427
aV243
p4428
aa(lp4429
V02-11-2016
p4430
aV21
p4431
aVnr
p4432
aV223
p4433
aV89
p4434
aVnr
p4435
aV265
p4436
aVnr
p4437
aVnr
p4438
aVnr
p4439
aV165
p4440
aV210
p4441
aVnr
p4442
aV263
p4443
aV355
p4444
aVnr
p4445
aVnr
p4446
aV219
p4447
aVnr
p4448
aVnr
p4449
aVnr
p4450
aVnr
p4451
aVnr
p4452
aV214
p4453
aV259
p4454
aVnr
p4455
aV216
p4456
aV239
p4457
aVnr
p4458
aV121
p4459
aV233
p4460
aVnr
p4461
aVnr
p4462
aVnr
p4463
aVnr
p4464
aV252
p4465
aVnr
p4466
aV258
p4467
aVnr
p4468
aVnr
p4469
aV154
p4470
aV237
p4471
aV336
p4472
aV243
p4473
aa(lp4474
V02-11-2016
p4475
aV21
p4476
aVnr
p4477
aV223
p4478
aV89
p4479
aVnr
p4480
aV265
p4481
aVnr
p4482
aVnr
p4483
aVnr
p4484
aV165
p4485
aV210
p4486
aVnr
p4487
aV263
p4488
aV355
p4489
aVnr
p4490
aVnr
p4491
aV219
p4492
aVnr
p4493
aVnr
p4494
aVnr
p4495
aVnr
p4496
aVnr
p4497
aV214
p4498
aV259
p4499
aVnr
p4500
aV216
p4501
aV239
p4502
aVnr
p4503
aV121
p4504
aV233
p4505
aVnr
p4506
aVnr
p4507
aVnr
p4508
aVnr
p4509
aV252
p4510
aVnr
p4511
aV258
p4512
aVnr
p4513
aVnr
p4514
aV154
p4515
aV237
p4516
aV336
p4517
aV243
p4518
aa(lp4519
V02-11-2016
p4520
aV21
p4521
aVnr
p4522
aV223
p4523
aV89
p4524
aVnr
p4525
aV265
p4526
aVnr
p4527
aVnr
p4528
aVnr
p4529
aV165
p4530
aV210
p4531
aVnr
p4532
aV263
p4533
aV355
p4534
aVnr
p4535
aVnr
p4536
aV219
p4537
aVnr
p4538
aVnr
p4539
aVnr
p4540
aVnr
p4541
aVnr
p4542
aV214
p4543
aV259
p4544
aVnr
p4545
aV216
p4546
aV239
p4547
aVnr
p4548
aV121
p4549
aV233
p4550
aVnr
p4551
aVnr
p4552
aVnr
p4553
aVnr
p4554
aV252
p4555
aVnr
p4556
aV258
p4557
aVnr
p4558
aVnr
p4559
aV154
p4560
aV237
p4561
aV336
p4562
aV243
p4563
aa(lp4564
V02-11-2016
p4565
aV22
p4566
aVnr
p4567
aV207
p4568
aV292
p4569
aVnr
p4570
aV198
p4571
aVnr
p4572
aVnr
p4573
aVnr
p4574
aV156
p4575
aV338
p4576
aVnr
p4577
aV237
p4578
aV320
p4579
aVnr
p4580
aVnr
p4581
aV221
p4582
aVnr
p4583
aVnr
p4584
aVnr
p4585
aVnr
p4586
aVnr
p4587
aV227
p4588
aVnr
p4589
aVnr
p4590
aV219
p4591
aV184
p4592
aVnr
p4593
aV219
p4594
aV225
p4595
aVnr
p4596
aVnr
p4597
aVnr
p4598
aVnr
p4599
aV233
p4600
aVnr
p4601
aV235
p4602
aVnr
p4603
aVnr
p4604
aV234
p4605
aV229
p4606
aV261
p4607
aV236
p4608
aa(lp4609
V02-11-2016
p4610
aV22
p4611
aVnr
p4612
aV207
p4613
aV292
p4614
aVnr
p4615
aV198
p4616
aVnr
p4617
aVnr
p4618
aVnr
p4619
aV156
p4620
aV338
p4621
aVnr
p4622
aV237
p4623
aV320
p4624
aVnr
p4625
aVnr
p4626
aV221
p4627
aVnr
p4628
aVnr
p4629
aVnr
p4630
aVnr
p4631
aVnr
p4632
aV227
p4633
aVnr
p4634
aVnr
p4635
aV219
p4636
aV184
p4637
aVnr
p4638
aV219
p4639
aV225
p4640
aVnr
p4641
aVnr
p4642
aVnr
p4643
aVnr
p4644
aV233
p4645
aVnr
p4646
aV235
p4647
aVnr
p4648
aVnr
p4649
aV234
p4650
aV229
p4651
aV261
p4652
aV236
p4653
aa(lp4654
V02-11-2016
p4655
aV22
p4656
aVnr
p4657
aV207
p4658
aV292
p4659
aVnr
p4660
aV198
p4661
aVnr
p4662
aVnr
p4663
aVnr
p4664
aV156
p4665
aV338
p4666
aVnr
p4667
aV237
p4668
aV320
p4669
aVnr
p4670
aVnr
p4671
aV221
p4672
aVnr
p4673
aVnr
p4674
aVnr
p4675
aVnr
p4676
aVnr
p4677
aV227
p4678
aVnr
p4679
aVnr
p4680
aV219
p4681
aV184
p4682
aVnr
p4683
aV219
p4684
aV225
p4685
aVnr
p4686
aVnr
p4687
aVnr
p4688
aVnr
p4689
aV233
p4690
aVnr
p4691
aV235
p4692
aVnr
p4693
aVnr
p4694
aV234
p4695
aV229
p4696
aV261
p4697
aV236
p4698
aa(lp4699
V02-11-2016
p4700
aV23
p4701
aVnr
p4702
aV212
p4703
aV221
p4704
aVnr
p4705
aV266
p4706
aVnr
p4707
aVnr
p4708
aVnr
p4709
aV138
p4710
aV33
p4711
aVnr
p4712
aV235
p4713
aV300
p4714
aVnr
p4715
aVnr
p4716
aV289
p4717
aVnr
p4718
aVnr
p4719
aVnr
p4720
aVnr
p4721
aVnr
p4722
aV298
p4723
aV266
p4724
aVnr
p4725
aV279
p4726
aV230
p4727
aVnr
p4728
aV229
p4729
aV227
p4730
aVnr
p4731
aVnr
p4732
aVnr
p4733
aVnr
p4734
aV216
p4735
aVnr
p4736
aV252
p4737
aVnr
p4738
aVnr
p4739
aV206
p4740
aV8
aV246
p4741
aV231
p4742
aa(lp4743
V02-11-2016
p4744
aV23
p4745
aVnr
p4746
aV212
p4747
aV221
p4748
aVnr
p4749
aV266
p4750
aVnr
p4751
aVnr
p4752
aVnr
p4753
aV138
p4754
aV33
p4755
aVnr
p4756
aV235
p4757
aV300
p4758
aVnr
p4759
aVnr
p4760
aV289
p4761
aVnr
p4762
aVnr
p4763
aVnr
p4764
aVnr
p4765
aVnr
p4766
aV298
p4767
aV266
p4768
aVnr
p4769
aV279
p4770
aV230
p4771
aVnr
p4772
aV229
p4773
aV227
p4774
aVnr
p4775
aVnr
p4776
aVnr
p4777
aVnr
p4778
aV216
p4779
aVnr
p4780
aV252
p4781
aVnr
p4782
aVnr
p4783
aV206
p4784
aV8
aV246
p4785
aV231
p4786
aa(lp4787
V02-11-2016
p4788
aV23
p4789
aVnr
p4790
aV212
p4791
aV221
p4792
aVnr
p4793
aV266
p4794
aVnr
p4795
aVnr
p4796
aVnr
p4797
aV138
p4798
aV33
p4799
aVnr
p4800
aV235
p4801
aV300
p4802
aVnr
p4803
aVnr
p4804
aV289
p4805
aVnr
p4806
aVnr
p4807
aVnr
p4808
aVnr
p4809
aVnr
p4810
aV298
p4811
aV266
p4812
aVnr
p4813
aV279
p4814
aV230
p4815
aVnr
p4816
aV229
p4817
aV227
p4818
aVnr
p4819
aVnr
p4820
aVnr
p4821
aVnr
p4822
aV216
p4823
aVnr
p4824
aV252
p4825
aVnr
p4826
aVnr
p4827
aV206
p4828
aV8
aV246
p4829
aV231
p4830
aa(lp4831
V02-11-2016
p4832
aV23
p4833
aVnr
p4834
aV212
p4835
aV221
p4836
aVnr
p4837
aV266
p4838
aVnr
p4839
aVnr
p4840
aVnr
p4841
aV138
p4842
aV33
p4843
aVnr
p4844
aV235
p4845
aV300
p4846
aVnr
p4847
aVnr
p4848
aV289
p4849
aVnr
p4850
aVnr
p4851
aVnr
p4852
aVnr
p4853
aVnr
p4854
aV298
p4855
aV266
p4856
aVnr
p4857
aV279
p4858
aV230
p4859
aVnr
p4860
aV229
p4861
aV227
p4862
aVnr
p4863
aVnr
p4864
aVnr
p4865
aVnr
p4866
aV216
p4867
aVnr
p4868
aV252
p4869
aVnr
p4870
aVnr
p4871
aV206
p4872
aV8
aV246
p4873
aV231
p4874
aa(lp4875
V02-11-2016
p4876
aV24
p4877
aVnr
p4878
aV164
p4879
aV200
p4880
aVnr
p4881
aV31
p4882
aVnr
p4883
aVnr
p4884
aVnr
p4885
aV87
p4886
aV117
p4887
aVnr
p4888
aV210
p4889
aV318
p4890
aVnr
p4891
aVnr
p4892
aV253
p4893
aVnr
p4894
aVnr
p4895
aVnr
p4896
aVnr
p4897
aVnr
p4898
aV302
p4899
aV334
p4900
aVnr
p4901
aV155
p4902
aV155
p4903
aVnr
p4904
aV92
p4905
aV216
p4906
aVnr
p4907
aVnr
p4908
aVnr
p4909
aVnr
p4910
aV152
p4911
aVnr
p4912
aV284
p4913
aVnr
p4914
aVnr
p4915
aV111
p4916
aV90
p4917
aV266
p4918
aV47
p4919
aasS'so2'
p4920
(lp4921
(lp4922
V02-11-2016
p4923
aV21
p4924
aV1
aV1
aVnr
p4925
aVnr
p4926
aV1
aVnr
p4927
aV4
aVnr
p4928
aV2
aVnr
p4929
aV2
aV1
aVnr
p4930
aV3
aV2
aVnr
p4931
aVnr
p4932
aV3
aV1
aV4
aVnr
p4933
aV3
aVnr
p4934
aVnr
p4935
aVnr
p4936
aV2
aV2
aV3
aV2
aVnr
p4937
aV3
aVnr
p4938
aV5
aVnr
p4939
aVnr
p4940
aV2
aVnr
p4941
aVnr
p4942
aV4
aV3
aVnr
p4943
aVnr
p4944
aV4
aVnr
p4945
aV1
aV4
aa(lp4946
V02-11-2016
p4947
aV21
p4948
aV1
aV1
aVnr
p4949
aVnr
p4950
aV1
aVnr
p4951
aV4
aVnr
p4952
aV2
aVnr
p4953
aV2
aV1
aVnr
p4954
aV3
aV2
aVnr
p4955
aVnr
p4956
aV3
aV1
aV4
aVnr
p4957
aV3
aVnr
p4958
aVnr
p4959
aVnr
p4960
aV2
aV2
aV3
aV2
aVnr
p4961
aV3
aVnr
p4962
aV5
aVnr
p4963
aVnr
p4964
aV2
aVnr
p4965
aVnr
p4966
aV4
aV3
aVnr
p4967
aVnr
p4968
aV4
aVnr
p4969
aV1
aV4
aa(lp4970
V02-11-2016
p4971
aV21
p4972
aV1
aV1
aVnr
p4973
aVnr
p4974
aV1
aVnr
p4975
aV4
aVnr
p4976
aV2
aVnr
p4977
aV2
aV1
aVnr
p4978
aV3
aV2
aVnr
p4979
aVnr
p4980
aV3
aV1
aV4
aVnr
p4981
aV3
aVnr
p4982
aVnr
p4983
aVnr
p4984
aV2
aV2
aV3
aV2
aVnr
p4985
aV3
aVnr
p4986
aV5
aVnr
p4987
aVnr
p4988
aV2
aVnr
p4989
aVnr
p4990
aV4
aV3
aVnr
p4991
aVnr
p4992
aV4
aVnr
p4993
aV1
aV4
aa(lp4994
V02-11-2016
p4995
aV21
p4996
aV1
aV1
aVnr
p4997
aVnr
p4998
aV1
aVnr
p4999
aV4
aVnr
p5000
aV2
aVnr
p5001
aV2
aV1
aVnr
p5002
aV3
aV2
aVnr
p5003
aVnr
p5004
aV3
aV1
aV4
aVnr
p5005
aV3
aVnr
p5006
aVnr
p5007
aVnr
p5008
aV2
aV2
aV3
aV2
aVnr
p5009
aV3
aVnr
p5010
aV5
aVnr
p5011
aVnr
p5012
aV2
aVnr
p5013
aVnr
p5014
aV4
aV3
aVnr
p5015
aVnr
p5016
aV4
aVnr
p5017
aV1
aV4
aa(lp5018
V02-11-2016
p5019
aV21
p5020
aV1
aV1
aVnr
p5021
aVnr
p5022
aV1
aVnr
p5023
aV4
aVnr
p5024
aV2
aVnr
p5025
aV2
aV1
aVnr
p5026
aV3
aV2
aVnr
p5027
aVnr
p5028
aV3
aV1
aV4
aVnr
p5029
aV3
aVnr
p5030
aVnr
p5031
aVnr
p5032
aV2
aV2
aV3
aV2
aVnr
p5033
aV3
aVnr
p5034
aV5
aVnr
p5035
aVnr
p5036
aV2
aVnr
p5037
aVnr
p5038
aV4
aV3
aVnr
p5039
aVnr
p5040
aV4
aVnr
p5041
aV1
aV4
aa(lp5042
V02-11-2016
p5043
aV21
p5044
aV1
aV1
aVnr
p5045
aVnr
p5046
aV1
aVnr
p5047
aV4
aVnr
p5048
aV2
aVnr
p5049
aV2
aV1
aVnr
p5050
aV3
aV2
aVnr
p5051
aVnr
p5052
aV3
aV1
aV4
aVnr
p5053
aV3
aVnr
p5054
aVnr
p5055
aVnr
p5056
aV2
aV2
aV3
aV2
aVnr
p5057
aV3
aVnr
p5058
aV5
aVnr
p5059
aVnr
p5060
aV2
aVnr
p5061
aVnr
p5062
aV4
aV3
aVnr
p5063
aVnr
p5064
aV4
aVnr
p5065
aV1
aV4
aa(lp5066
V02-11-2016
p5067
aV21
p5068
aV1
aV1
aVnr
p5069
aVnr
p5070
aV1
aVnr
p5071
aV4
aVnr
p5072
aV2
aVnr
p5073
aV2
aV1
aVnr
p5074
aV3
aV2
aVnr
p5075
aVnr
p5076
aV3
aV1
aV4
aVnr
p5077
aV3
aVnr
p5078
aVnr
p5079
aVnr
p5080
aV2
aV2
aV3
aV2
aVnr
p5081
aV3
aVnr
p5082
aV5
aVnr
p5083
aVnr
p5084
aV2
aVnr
p5085
aVnr
p5086
aV4
aV3
aVnr
p5087
aVnr
p5088
aV4
aVnr
p5089
aV1
aV4
aa(lp5090
V02-11-2016
p5091
aV21
p5092
aV1
aV1
aVnr
p5093
aVnr
p5094
aV1
aVnr
p5095
aV4
aVnr
p5096
aV2
aVnr
p5097
aV2
aV1
aVnr
p5098
aV3
aV2
aVnr
p5099
aVnr
p5100
aV3
aV1
aV4
aVnr
p5101
aV3
aVnr
p5102
aVnr
p5103
aVnr
p5104
aV2
aV2
aV3
aV2
aVnr
p5105
aV3
aVnr
p5106
aV5
aVnr
p5107
aVnr
p5108
aV2
aVnr
p5109
aVnr
p5110
aV4
aV3
aVnr
p5111
aVnr
p5112
aV4
aVnr
p5113
aV1
aV4
aa(lp5114
V02-11-2016
p5115
aV22
p5116
aV1
aV2
aVnr
p5117
aVnr
p5118
aV1
aVnr
p5119
aV2
aVnr
p5120
aV1
aVnr
p5121
aV2
aV1
aVnr
p5122
aV3
aV1
aVnr
p5123
aVnr
p5124
aV2
aV1
aV2
aVnr
p5125
aV2
aV3
aVnr
p5126
aVnr
p5127
aVnr
p5128
aV2
aV2
aV2
aVnr
p5129
aV5
aVnr
p5130
aV4
aVnr
p5131
aVnr
p5132
aV3
aVnr
p5133
aVnr
p5134
aV4
aV3
aVnr
p5135
aVnr
p5136
aV2
aVnr
p5137
aV1
aV5
aa(lp5138
V02-11-2016
p5139
aV22
p5140
aV1
aV2
aVnr
p5141
aVnr
p5142
aV1
aVnr
p5143
aV2
aVnr
p5144
aV1
aVnr
p5145
aV2
aV1
aVnr
p5146
aV3
aV1
aVnr
p5147
aVnr
p5148
aV2
aV1
aV2
aVnr
p5149
aV2
aV3
aVnr
p5150
aVnr
p5151
aVnr
p5152
aV2
aV2
aV2
aVnr
p5153
aV5
aVnr
p5154
aV4
aVnr
p5155
aVnr
p5156
aV3
aVnr
p5157
aVnr
p5158
aV4
aV3
aVnr
p5159
aVnr
p5160
aV2
aVnr
p5161
aV1
aV5
aa(lp5162
V02-11-2016
p5163
aV22
p5164
aV1
aV2
aVnr
p5165
aVnr
p5166
aV1
aVnr
p5167
aV2
aVnr
p5168
aV1
aVnr
p5169
aV2
aV1
aVnr
p5170
aV3
aV1
aVnr
p5171
aVnr
p5172
aV2
aV1
aV2
aVnr
p5173
aV2
aV3
aVnr
p5174
aVnr
p5175
aVnr
p5176
aV2
aV2
aV2
aVnr
p5177
aV5
aVnr
p5178
aV4
aVnr
p5179
aVnr
p5180
aV3
aVnr
p5181
aVnr
p5182
aV4
aV3
aVnr
p5183
aVnr
p5184
aV2
aVnr
p5185
aV1
aV5
aa(lp5186
V02-11-2016
p5187
aV22
p5188
aV1
aV2
aVnr
p5189
aVnr
p5190
aV1
aVnr
p5191
aV2
aVnr
p5192
aV1
aVnr
p5193
aV2
aV1
aVnr
p5194
aV3
aV1
aVnr
p5195
aVnr
p5196
aV2
aV1
aV2
aVnr
p5197
aV2
aV3
aVnr
p5198
aVnr
p5199
aVnr
p5200
aV2
aV2
aV2
aVnr
p5201
aV5
aVnr
p5202
aV4
aVnr
p5203
aVnr
p5204
aV3
aVnr
p5205
aVnr
p5206
aV4
aV3
aVnr
p5207
aVnr
p5208
aV2
aVnr
p5209
aV1
aV5
aa(lp5210
V02-11-2016
p5211
aV23
p5212
aV2
aV4
aVnr
p5213
aVnr
p5214
aV1
aVnr
p5215
aV2
aVnr
p5216
aV1
aVnr
p5217
aV2
aV2
aVnr
p5218
aV3
aV1
aVnr
p5219
aVnr
p5220
aV2
aV1
aV2
aVnr
p5221
aV3
aV3
aVnr
p5222
aVnr
p5223
aV2
aV2
aV2
aV2
aVnr
p5224
aV6
aVnr
p5225
aV3
aVnr
p5226
aVnr
p5227
aV3
aVnr
p5228
aVnr
p5229
aV3
aV3
aVnr
p5230
aVnr
p5231
aV2
aVnr
p5232
aV1
aV5
aa(lp5233
V02-11-2016
p5234
aV23
p5235
aV2
aV4
aVnr
p5236
aVnr
p5237
aV1
aVnr
p5238
aV2
aVnr
p5239
aV1
aVnr
p5240
aV2
aV2
aVnr
p5241
aV3
aV1
aVnr
p5242
aVnr
p5243
aV2
aV1
aV2
aVnr
p5244
aV3
aV3
aVnr
p5245
aVnr
p5246
aV2
aV2
aV2
aV2
aVnr
p5247
aV6
aVnr
p5248
aV3
aVnr
p5249
aVnr
p5250
aV3
aVnr
p5251
aVnr
p5252
aV3
aV3
aVnr
p5253
aVnr
p5254
aV2
aVnr
p5255
aV1
aV5
aa(lp5256
V02-11-2016
p5257
aV23
p5258
aV2
aV4
aVnr
p5259
aVnr
p5260
aV1
aVnr
p5261
aV2
aVnr
p5262
aV1
aVnr
p5263
aV2
aV2
aVnr
p5264
aV3
aV1
aVnr
p5265
aVnr
p5266
aV2
aV1
aV2
aVnr
p5267
aV3
aV3
aVnr
p5268
aVnr
p5269
aV2
aV2
aV2
aV2
aVnr
p5270
aV6
aVnr
p5271
aV3
aVnr
p5272
aVnr
p5273
aV3
aVnr
p5274
aVnr
p5275
aV3
aV3
aVnr
p5276
aVnr
p5277
aV2
aVnr
p5278
aV1
aV5
aa(lp5279
V02-11-2016
p5280
aV24
p5281
aV2
aV10
p5282
aVnr
p5283
aVnr
p5284
aV0
aVnr
p5285
aV2
aVnr
p5286
aV1
aVnr
p5287
aV2
aV2
aVnr
p5288
aV4
aV1
aVnr
p5289
aVnr
p5290
aV2
aV2
aV2
aVnr
p5291
aV3
aV3
aVnr
p5292
aVnr
p5293
aV2
aV2
aV2
aV2
aVnr
p5294
aV5
aVnr
p5295
aV4
aVnr
p5296
aVnr
p5297
aV2
aVnr
p5298
aVnr
p5299
aV3
aV3
aVnr
p5300
aVnr
p5301
aV2
aVnr
p5302
aV2
aV4
aasS'nox'
p5303
(lp5304
(lp5305
V02-11-2016
p5306
aV21
p5307
aV19
p5308
aV6
aVnr
p5309
aV39
p5310
aVnr
p5311
aVnr
p5312
aVnr
p5313
aV14
p5314
aVnr
p5315
aV38
p5316
aVnr
p5317
aV41
p5318
aV16
p5319
aV17
p5320
aVnr
p5321
aVnr
p5322
aV24
p5323
aVnr
p5324
aV29
p5325
aVnr
p5326
aVnr
p5327
aVnr
p5328
aVnr
p5329
aV18
p5330
aVnr
p5331
aV48
p5332
aV20
p5333
aVnr
p5334
aV46
p5335
aVnr
p5336
aV39
p5337
aVnr
p5338
aVnr
p5339
aV9
aVnr
p5340
aVnr
p5341
aV29
p5342
aV74
p5343
aVnr
p5344
aV31
p5345
aV32
p5346
aV22
p5347
aV91
p5348
aa(lp5349
V02-11-2016
p5350
aV21
p5351
aV19
p5352
aV6
aVnr
p5353
aV39
p5354
aVnr
p5355
aVnr
p5356
aVnr
p5357
aV14
p5358
aVnr
p5359
aV38
p5360
aVnr
p5361
aV41
p5362
aV16
p5363
aV17
p5364
aVnr
p5365
aVnr
p5366
aV24
p5367
aVnr
p5368
aV29
p5369
aVnr
p5370
aVnr
p5371
aVnr
p5372
aVnr
p5373
aV18
p5374
aVnr
p5375
aV48
p5376
aV20
p5377
aVnr
p5378
aV46
p5379
aVnr
p5380
aV39
p5381
aVnr
p5382
aVnr
p5383
aV9
aVnr
p5384
aVnr
p5385
aV29
p5386
aV74
p5387
aVnr
p5388
aV31
p5389
aV32
p5390
aV22
p5391
aV91
p5392
aa(lp5393
V02-11-2016
p5394
aV21
p5395
aV19
p5396
aV6
aVnr
p5397
aV39
p5398
aVnr
p5399
aVnr
p5400
aVnr
p5401
aV14
p5402
aVnr
p5403
aV38
p5404
aVnr
p5405
aV41
p5406
aV16
p5407
aV17
p5408
aVnr
p5409
aVnr
p5410
aV24
p5411
aVnr
p5412
aV29
p5413
aVnr
p5414
aVnr
p5415
aVnr
p5416
aVnr
p5417
aV18
p5418
aVnr
p5419
aV48
p5420
aV20
p5421
aVnr
p5422
aV46
p5423
aVnr
p5424
aV39
p5425
aVnr
p5426
aVnr
p5427
aV9
aVnr
p5428
aVnr
p5429
aV29
p5430
aV74
p5431
aVnr
p5432
aV31
p5433
aV32
p5434
aV22
p5435
aV91
p5436
aa(lp5437
V02-11-2016
p5438
aV21
p5439
aV19
p5440
aV6
aVnr
p5441
aV39
p5442
aVnr
p5443
aVnr
p5444
aVnr
p5445
aV14
p5446
aVnr
p5447
aV38
p5448
aVnr
p5449
aV41
p5450
aV16
p5451
aV17
p5452
aVnr
p5453
aVnr
p5454
aV24
p5455
aVnr
p5456
aV29
p5457
aVnr
p5458
aVnr
p5459
aVnr
p5460
aVnr
p5461
aV18
p5462
aVnr
p5463
aV48
p5464
aV20
p5465
aVnr
p5466
aV46
p5467
aVnr
p5468
aV39
p5469
aVnr
p5470
aVnr
p5471
aV9
aVnr
p5472
aVnr
p5473
aV29
p5474
aV74
p5475
aVnr
p5476
aV31
p5477
aV32
p5478
aV22
p5479
aV91
p5480
aa(lp5481
V02-11-2016
p5482
aV21
p5483
aV19
p5484
aV6
aVnr
p5485
aV39
p5486
aVnr
p5487
aVnr
p5488
aVnr
p5489
aV14
p5490
aVnr
p5491
aV38
p5492
aVnr
p5493
aV41
p5494
aV16
p5495
aV17
p5496
aVnr
p5497
aVnr
p5498
aV24
p5499
aVnr
p5500
aV29
p5501
aVnr
p5502
aVnr
p5503
aVnr
p5504
aVnr
p5505
aV18
p5506
aVnr
p5507
aV48
p5508
aV20
p5509
aVnr
p5510
aV46
p5511
aVnr
p5512
aV39
p5513
aVnr
p5514
aVnr
p5515
aV9
aVnr
p5516
aVnr
p5517
aV29
p5518
aV74
p5519
aVnr
p5520
aV31
p5521
aV32
p5522
aV22
p5523
aV91
p5524
aa(lp5525
V02-11-2016
p5526
aV21
p5527
aV19
p5528
aV6
aVnr
p5529
aV39
p5530
aVnr
p5531
aVnr
p5532
aVnr
p5533
aV14
p5534
aVnr
p5535
aV38
p5536
aVnr
p5537
aV41
p5538
aV16
p5539
aV17
p5540
aVnr
p5541
aVnr
p5542
aV24
p5543
aVnr
p5544
aV29
p5545
aVnr
p5546
aVnr
p5547
aVnr
p5548
aVnr
p5549
aV18
p5550
aVnr
p5551
aV48
p5552
aV20
p5553
aVnr
p5554
aV46
p5555
aVnr
p5556
aV39
p5557
aVnr
p5558
aVnr
p5559
aV9
aVnr
p5560
aVnr
p5561
aV29
p5562
aV74
p5563
aVnr
p5564
aV31
p5565
aV32
p5566
aV22
p5567
aV91
p5568
aa(lp5569
V02-11-2016
p5570
aV21
p5571
aV19
p5572
aV6
aVnr
p5573
aV39
p5574
aVnr
p5575
aVnr
p5576
aVnr
p5577
aV14
p5578
aVnr
p5579
aV38
p5580
aVnr
p5581
aV41
p5582
aV16
p5583
aV17
p5584
aVnr
p5585
aVnr
p5586
aV24
p5587
aVnr
p5588
aV29
p5589
aVnr
p5590
aVnr
p5591
aVnr
p5592
aVnr
p5593
aV18
p5594
aVnr
p5595
aV48
p5596
aV20
p5597
aVnr
p5598
aV46
p5599
aVnr
p5600
aV39
p5601
aVnr
p5602
aVnr
p5603
aV9
aVnr
p5604
aVnr
p5605
aV29
p5606
aV74
p5607
aVnr
p5608
aV31
p5609
aV32
p5610
aV22
p5611
aV91
p5612
aa(lp5613
V02-11-2016
p5614
aV21
p5615
aV19
p5616
aV6
aVnr
p5617
aV39
p5618
aVnr
p5619
aVnr
p5620
aVnr
p5621
aV14
p5622
aVnr
p5623
aV38
p5624
aVnr
p5625
aV41
p5626
aV16
p5627
aV17
p5628
aVnr
p5629
aVnr
p5630
aV24
p5631
aVnr
p5632
aV29
p5633
aVnr
p5634
aVnr
p5635
aVnr
p5636
aVnr
p5637
aV18
p5638
aVnr
p5639
aV48
p5640
aV20
p5641
aVnr
p5642
aV46
p5643
aVnr
p5644
aV39
p5645
aVnr
p5646
aVnr
p5647
aV9
aVnr
p5648
aVnr
p5649
aV29
p5650
aV74
p5651
aVnr
p5652
aV31
p5653
aV32
p5654
aV22
p5655
aV91
p5656
aa(lp5657
V02-11-2016
p5658
aV22
p5659
aV28
p5660
aV9
aVnr
p5661
aV47
p5662
aVnr
p5663
aVnr
p5664
aVnr
p5665
aV25
p5666
aVnr
p5667
aV44
p5668
aVnr
p5669
aV38
p5670
aV24
p5671
aV11
p5672
aVnr
p5673
aVnr
p5674
aV33
p5675
aVnr
p5676
aV33
p5677
aVnr
p5678
aVnr
p5679
aVnr
p5680
aVnr
p5681
aVnr
p5682
aVnr
p5683
aV40
p5684
aV24
p5685
aVnr
p5686
aV53
p5687
aVnr
p5688
aV42
p5689
aVnr
p5690
aVnr
p5691
aV9
aVnr
p5692
aVnr
p5693
aV36
p5694
aV60
p5695
aVnr
p5696
aV17
p5697
aV29
p5698
aV28
p5699
aV72
p5700
aa(lp5701
V02-11-2016
p5702
aV22
p5703
aV28
p5704
aV9
aVnr
p5705
aV47
p5706
aVnr
p5707
aVnr
p5708
aVnr
p5709
aV25
p5710
aVnr
p5711
aV44
p5712
aVnr
p5713
aV38
p5714
aV24
p5715
aV11
p5716
aVnr
p5717
aVnr
p5718
aV33
p5719
aVnr
p5720
aV33
p5721
aVnr
p5722
aVnr
p5723
aVnr
p5724
aVnr
p5725
aVnr
p5726
aVnr
p5727
aV40
p5728
aV24
p5729
aVnr
p5730
aV53
p5731
aVnr
p5732
aV42
p5733
aVnr
p5734
aVnr
p5735
aV9
aVnr
p5736
aVnr
p5737
aV36
p5738
aV60
p5739
aVnr
p5740
aV17
p5741
aV29
p5742
aV28
p5743
aV72
p5744
aa(lp5745
V02-11-2016
p5746
aV22
p5747
aV28
p5748
aV9
aVnr
p5749
aV47
p5750
aVnr
p5751
aVnr
p5752
aVnr
p5753
aV25
p5754
aVnr
p5755
aV44
p5756
aVnr
p5757
aV38
p5758
aV24
p5759
aV11
p5760
aVnr
p5761
aVnr
p5762
aV33
p5763
aVnr
p5764
aV33
p5765
aVnr
p5766
aVnr
p5767
aVnr
p5768
aVnr
p5769
aVnr
p5770
aVnr
p5771
aV40
p5772
aV24
p5773
aVnr
p5774
aV53
p5775
aVnr
p5776
aV42
p5777
aVnr
p5778
aVnr
p5779
aV9
aVnr
p5780
aVnr
p5781
aV36
p5782
aV60
p5783
aVnr
p5784
aV17
p5785
aV29
p5786
aV28
p5787
aV72
p5788
aa(lp5789
V02-11-2016
p5790
aV23
p5791
aV44
p5792
aV6
aVnr
p5793
aV55
p5794
aVnr
p5795
aVnr
p5796
aVnr
p5797
aV22
p5798
aVnr
p5799
aV42
p5800
aVnr
p5801
aV39
p5802
aV37
p5803
aV9
aVnr
p5804
aVnr
p5805
aV49
p5806
aVnr
p5807
aV48
p5808
aVnr
p5809
aVnr
p5810
aVnr
p5811
aVnr
p5812
aV34
p5813
aVnr
p5814
aV43
p5815
aV18
p5816
aVnr
p5817
aV55
p5818
aVnr
p5819
aV37
p5820
aVnr
p5821
aVnr
p5822
aV15
p5823
aVnr
p5824
aVnr
p5825
aV38
p5826
aV67
p5827
aVnr
p5828
aV33
p5829
aV38
p5830
aV30
p5831
aV75
p5832
aa(lp5833
V02-11-2016
p5834
aV23
p5835
aV44
p5836
aV6
aVnr
p5837
aV55
p5838
aVnr
p5839
aVnr
p5840
aVnr
p5841
aV22
p5842
aVnr
p5843
aV42
p5844
aVnr
p5845
aV39
p5846
aV37
p5847
aV9
aVnr
p5848
aVnr
p5849
aV49
p5850
aVnr
p5851
aV48
p5852
aVnr
p5853
aVnr
p5854
aVnr
p5855
aVnr
p5856
aV34
p5857
aVnr
p5858
aV43
p5859
aV18
p5860
aVnr
p5861
aV55
p5862
aVnr
p5863
aV37
p5864
aVnr
p5865
aVnr
p5866
aV15
p5867
aVnr
p5868
aVnr
p5869
aV38
p5870
aV67
p5871
aVnr
p5872
aV33
p5873
aV38
p5874
aV30
p5875
aV75
p5876
aa(lp5877
V02-11-2016
p5878
aV23
p5879
aV44
p5880
aV6
aVnr
p5881
aV55
p5882
aVnr
p5883
aVnr
p5884
aVnr
p5885
aV22
p5886
aVnr
p5887
aV42
p5888
aVnr
p5889
aV39
p5890
aV37
p5891
aV9
aVnr
p5892
aVnr
p5893
aV49
p5894
aVnr
p5895
aV48
p5896
aVnr
p5897
aVnr
p5898
aVnr
p5899
aVnr
p5900
aV34
p5901
aVnr
p5902
aV43
p5903
aV18
p5904
aVnr
p5905
aV55
p5906
aVnr
p5907
aV37
p5908
aVnr
p5909
aVnr
p5910
aV15
p5911
aVnr
p5912
aVnr
p5913
aV38
p5914
aV67
p5915
aVnr
p5916
aV33
p5917
aV38
p5918
aV30
p5919
aV75
p5920
aa(lp5921
V02-11-2016
p5922
aV23
p5923
aV44
p5924
aV6
aVnr
p5925
aV55
p5926
aVnr
p5927
aVnr
p5928
aVnr
p5929
aV22
p5930
aVnr
p5931
aV42
p5932
aVnr
p5933
aV39
p5934
aV37
p5935
aV9
aVnr
p5936
aVnr
p5937
aV49
p5938
aVnr
p5939
aV48
p5940
aVnr
p5941
aVnr
p5942
aVnr
p5943
aVnr
p5944
aV34
p5945
aVnr
p5946
aV43
p5947
aV18
p5948
aVnr
p5949
aV55
p5950
aVnr
p5951
aV37
p5952
aVnr
p5953
aVnr
p5954
aV15
p5955
aVnr
p5956
aVnr
p5957
aV38
p5958
aV67
p5959
aVnr
p5960
aV33
p5961
aV38
p5962
aV30
p5963
aV75
p5964
aa(lp5965
V02-11-2016
p5966
aV24
p5967
aV37
p5968
aV18
p5969
aVnr
p5970
aV25
p5971
aVnr
p5972
aVnr
p5973
aVnr
p5974
aV21
p5975
aVnr
p5976
aV33
p5977
aVnr
p5978
aV69
p5979
aV30
p5980
aV18
p5981
aVnr
p5982
aVnr
p5983
aV38
p5984
aVnr
p5985
aV67
p5986
aVnr
p5987
aVnr
p5988
aVnr
p5989
aVnr
p5990
aV35
p5991
aVnr
p5992
aV47
p5993
aV21
p5994
aVnr
p5995
aV57
p5996
aVnr
p5997
aV43
p5998
aVnr
p5999
aVnr
p6000
aV23
p6001
aVnr
p6002
aVnr
p6003
aV59
p6004
aV44
p6005
aVnr
p6006
aV41
p6007
aV49
p6008
aV41
p6009
aV85
p6010
aasS'rh'
p6011
(lp6012
(lp6013
V02-11-2016
p6014
aV21
p6015
aVnr
p6016
aV68
p6017
aV91
p6018
aVnr
p6019
aV69
p6020
aVnr
p6021
aVnr
p6022
aVnr
p6023
aV80
p6024
aV87
p6025
aVnr
p6026
aV81
p6027
aV69
p6028
aVnr
p6029
aVnr
p6030
aV68
p6031
aVnr
p6032
aVnr
p6033
aVnr
p6034
aVnr
p6035
aVnr
p6036
aV72
p6037
aV73
p6038
aVnr
p6039
aV66
p6040
aV68
p6041
aVnr
p6042
aV48
p6043
aV77
p6044
aVnr
p6045
aVnr
p6046
aVnr
p6047
aVnr
p6048
aV75
p6049
aVnr
p6050
aV72
p6051
aVnr
p6052
aVnr
p6053
aV73
p6054
aV66
p6055
aV63
p6056
aV62
p6057
aa(lp6058
V02-11-2016
p6059
aV21
p6060
aVnr
p6061
aV68
p6062
aV91
p6063
aVnr
p6064
aV69
p6065
aVnr
p6066
aVnr
p6067
aVnr
p6068
aV80
p6069
aV87
p6070
aVnr
p6071
aV81
p6072
aV69
p6073
aVnr
p6074
aVnr
p6075
aV68
p6076
aVnr
p6077
aVnr
p6078
aVnr
p6079
aVnr
p6080
aVnr
p6081
aV72
p6082
aV73
p6083
aVnr
p6084
aV66
p6085
aV68
p6086
aVnr
p6087
aV48
p6088
aV77
p6089
aVnr
p6090
aVnr
p6091
aVnr
p6092
aVnr
p6093
aV75
p6094
aVnr
p6095
aV72
p6096
aVnr
p6097
aVnr
p6098
aV73
p6099
aV66
p6100
aV63
p6101
aV62
p6102
aa(lp6103
V02-11-2016
p6104
aV21
p6105
aVnr
p6106
aV68
p6107
aV91
p6108
aVnr
p6109
aV69
p6110
aVnr
p6111
aVnr
p6112
aVnr
p6113
aV80
p6114
aV87
p6115
aVnr
p6116
aV81
p6117
aV69
p6118
aVnr
p6119
aVnr
p6120
aV68
p6121
aVnr
p6122
aVnr
p6123
aVnr
p6124
aVnr
p6125
aVnr
p6126
aV72
p6127
aV73
p6128
aVnr
p6129
aV66
p6130
aV68
p6131
aVnr
p6132
aV48
p6133
aV77
p6134
aVnr
p6135
aVnr
p6136
aVnr
p6137
aVnr
p6138
aV75
p6139
aVnr
p6140
aV72
p6141
aVnr
p6142
aVnr
p6143
aV73
p6144
aV66
p6145
aV63
p6146
aV62
p6147
aa(lp6148
V02-11-2016
p6149
aV21
p6150
aVnr
p6151
aV68
p6152
aV91
p6153
aVnr
p6154
aV69
p6155
aVnr
p6156
aVnr
p6157
aVnr
p6158
aV80
p6159
aV87
p6160
aVnr
p6161
aV81
p6162
aV69
p6163
aVnr
p6164
aVnr
p6165
aV68
p6166
aVnr
p6167
aVnr
p6168
aVnr
p6169
aVnr
p6170
aVnr
p6171
aV72
p6172
aV73
p6173
aVnr
p6174
aV66
p6175
aV68
p6176
aVnr
p6177
aV48
p6178
aV77
p6179
aVnr
p6180
aVnr
p6181
aVnr
p6182
aVnr
p6183
aV75
p6184
aVnr
p6185
aV72
p6186
aVnr
p6187
aVnr
p6188
aV73
p6189
aV66
p6190
aV63
p6191
aV62
p6192
aa(lp6193
V02-11-2016
p6194
aV21
p6195
aVnr
p6196
aV68
p6197
aV91
p6198
aVnr
p6199
aV69
p6200
aVnr
p6201
aVnr
p6202
aVnr
p6203
aV80
p6204
aV87
p6205
aVnr
p6206
aV81
p6207
aV69
p6208
aVnr
p6209
aVnr
p6210
aV68
p6211
aVnr
p6212
aVnr
p6213
aVnr
p6214
aVnr
p6215
aVnr
p6216
aV72
p6217
aV73
p6218
aVnr
p6219
aV66
p6220
aV68
p6221
aVnr
p6222
aV48
p6223
aV77
p6224
aVnr
p6225
aVnr
p6226
aVnr
p6227
aVnr
p6228
aV75
p6229
aVnr
p6230
aV72
p6231
aVnr
p6232
aVnr
p6233
aV73
p6234
aV66
p6235
aV63
p6236
aV62
p6237
aa(lp6238
V02-11-2016
p6239
aV21
p6240
aVnr
p6241
aV68
p6242
aV91
p6243
aVnr
p6244
aV69
p6245
aVnr
p6246
aVnr
p6247
aVnr
p6248
aV80
p6249
aV87
p6250
aVnr
p6251
aV81
p6252
aV69
p6253
aVnr
p6254
aVnr
p6255
aV68
p6256
aVnr
p6257
aVnr
p6258
aVnr
p6259
aVnr
p6260
aVnr
p6261
aV72
p6262
aV73
p6263
aVnr
p6264
aV66
p6265
aV68
p6266
aVnr
p6267
aV48
p6268
aV77
p6269
aVnr
p6270
aVnr
p6271
aVnr
p6272
aVnr
p6273
aV75
p6274
aVnr
p6275
aV72
p6276
aVnr
p6277
aVnr
p6278
aV73
p6279
aV66
p6280
aV63
p6281
aV62
p6282
aa(lp6283
V02-11-2016
p6284
aV21
p6285
aVnr
p6286
aV68
p6287
aV91
p6288
aVnr
p6289
aV69
p6290
aVnr
p6291
aVnr
p6292
aVnr
p6293
aV80
p6294
aV87
p6295
aVnr
p6296
aV81
p6297
aV69
p6298
aVnr
p6299
aVnr
p6300
aV68
p6301
aVnr
p6302
aVnr
p6303
aVnr
p6304
aVnr
p6305
aVnr
p6306
aV72
p6307
aV73
p6308
aVnr
p6309
aV66
p6310
aV68
p6311
aVnr
p6312
aV48
p6313
aV77
p6314
aVnr
p6315
aVnr
p6316
aVnr
p6317
aVnr
p6318
aV75
p6319
aVnr
p6320
aV72
p6321
aVnr
p6322
aVnr
p6323
aV73
p6324
aV66
p6325
aV63
p6326
aV62
p6327
aa(lp6328
V02-11-2016
p6329
aV21
p6330
aVnr
p6331
aV68
p6332
aV91
p6333
aVnr
p6334
aV69
p6335
aVnr
p6336
aVnr
p6337
aVnr
p6338
aV80
p6339
aV87
p6340
aVnr
p6341
aV81
p6342
aV69
p6343
aVnr
p6344
aVnr
p6345
aV68
p6346
aVnr
p6347
aVnr
p6348
aVnr
p6349
aVnr
p6350
aVnr
p6351
aV72
p6352
aV73
p6353
aVnr
p6354
aV66
p6355
aV68
p6356
aVnr
p6357
aV48
p6358
aV77
p6359
aVnr
p6360
aVnr
p6361
aVnr
p6362
aVnr
p6363
aV75
p6364
aVnr
p6365
aV72
p6366
aVnr
p6367
aVnr
p6368
aV73
p6369
aV66
p6370
aV63
p6371
aV62
p6372
aa(lp6373
V02-11-2016
p6374
aV22
p6375
aVnr
p6376
aV67
p6377
aV94
p6378
aVnr
p6379
aV73
p6380
aVnr
p6381
aVnr
p6382
aVnr
p6383
aV81
p6384
aV88
p6385
aVnr
p6386
aV79
p6387
aV75
p6388
aVnr
p6389
aVnr
p6390
aV66
p6391
aVnr
p6392
aVnr
p6393
aVnr
p6394
aVnr
p6395
aVnr
p6396
aV72
p6397
aVnr
p6398
aVnr
p6399
aV69
p6400
aV76
p6401
aVnr
p6402
aV55
p6403
aV76
p6404
aVnr
p6405
aVnr
p6406
aVnr
p6407
aVnr
p6408
aV78
p6409
aVnr
p6410
aV72
p6411
aVnr
p6412
aVnr
p6413
aV83
p6414
aV78
p6415
aV71
p6416
aV65
p6417
aa(lp6418
V02-11-2016
p6419
aV22
p6420
aVnr
p6421
aV67
p6422
aV94
p6423
aVnr
p6424
aV73
p6425
aVnr
p6426
aVnr
p6427
aVnr
p6428
aV81
p6429
aV88
p6430
aVnr
p6431
aV79
p6432
aV75
p6433
aVnr
p6434
aVnr
p6435
aV66
p6436
aVnr
p6437
aVnr
p6438
aVnr
p6439
aVnr
p6440
aVnr
p6441
aV72
p6442
aVnr
p6443
aVnr
p6444
aV69
p6445
aV76
p6446
aVnr
p6447
aV55
p6448
aV76
p6449
aVnr
p6450
aVnr
p6451
aVnr
p6452
aVnr
p6453
aV78
p6454
aVnr
p6455
aV72
p6456
aVnr
p6457
aVnr
p6458
aV83
p6459
aV78
p6460
aV71
p6461
aV65
p6462
aa(lp6463
V02-11-2016
p6464
aV22
p6465
aVnr
p6466
aV67
p6467
aV94
p6468
aVnr
p6469
aV73
p6470
aVnr
p6471
aVnr
p6472
aVnr
p6473
aV81
p6474
aV88
p6475
aVnr
p6476
aV79
p6477
aV75
p6478
aVnr
p6479
aVnr
p6480
aV66
p6481
aVnr
p6482
aVnr
p6483
aVnr
p6484
aVnr
p6485
aVnr
p6486
aV72
p6487
aVnr
p6488
aVnr
p6489
aV69
p6490
aV76
p6491
aVnr
p6492
aV55
p6493
aV76
p6494
aVnr
p6495
aVnr
p6496
aVnr
p6497
aVnr
p6498
aV78
p6499
aVnr
p6500
aV72
p6501
aVnr
p6502
aVnr
p6503
aV83
p6504
aV78
p6505
aV71
p6506
aV65
p6507
aa(lp6508
V02-11-2016
p6509
aV23
p6510
aVnr
p6511
aV67
p6512
aV92
p6513
aVnr
p6514
aV75
p6515
aVnr
p6516
aVnr
p6517
aVnr
p6518
aV81
p6519
aV88
p6520
aVnr
p6521
aV77
p6522
aV83
p6523
aVnr
p6524
aVnr
p6525
aV70
p6526
aVnr
p6527
aVnr
p6528
aVnr
p6529
aVnr
p6530
aVnr
p6531
aV76
p6532
aV70
p6533
aVnr
p6534
aV69
p6535
aV76
p6536
aVnr
p6537
aV59
p6538
aV76
p6539
aVnr
p6540
aVnr
p6541
aVnr
p6542
aVnr
p6543
aV79
p6544
aVnr
p6545
aV72
p6546
aVnr
p6547
aVnr
p6548
aV81
p6549
aV81
p6550
aV73
p6551
aV70
p6552
aa(lp6553
V02-11-2016
p6554
aV23
p6555
aVnr
p6556
aV67
p6557
aV92
p6558
aVnr
p6559
aV75
p6560
aVnr
p6561
aVnr
p6562
aVnr
p6563
aV81
p6564
aV88
p6565
aVnr
p6566
aV77
p6567
aV83
p6568
aVnr
p6569
aVnr
p6570
aV70
p6571
aVnr
p6572
aVnr
p6573
aVnr
p6574
aVnr
p6575
aVnr
p6576
aV76
p6577
aV70
p6578
aVnr
p6579
aV69
p6580
aV76
p6581
aVnr
p6582
aV59
p6583
aV76
p6584
aVnr
p6585
aVnr
p6586
aVnr
p6587
aVnr
p6588
aV79
p6589
aVnr
p6590
aV72
p6591
aVnr
p6592
aVnr
p6593
aV81
p6594
aV81
p6595
aV73
p6596
aV70
p6597
aa(lp6598
V02-11-2016
p6599
aV23
p6600
aVnr
p6601
aV67
p6602
aV92
p6603
aVnr
p6604
aV75
p6605
aVnr
p6606
aVnr
p6607
aVnr
p6608
aV81
p6609
aV88
p6610
aVnr
p6611
aV77
p6612
aV83
p6613
aVnr
p6614
aVnr
p6615
aV70
p6616
aVnr
p6617
aVnr
p6618
aVnr
p6619
aVnr
p6620
aVnr
p6621
aV76
p6622
aV70
p6623
aVnr
p6624
aV69
p6625
aV76
p6626
aVnr
p6627
aV59
p6628
aV76
p6629
aVnr
p6630
aVnr
p6631
aVnr
p6632
aVnr
p6633
aV79
p6634
aVnr
p6635
aV72
p6636
aVnr
p6637
aVnr
p6638
aV81
p6639
aV81
p6640
aV73
p6641
aV70
p6642
aa(lp6643
V02-11-2016
p6644
aV23
p6645
aVnr
p6646
aV67
p6647
aV92
p6648
aVnr
p6649
aV75
p6650
aVnr
p6651
aVnr
p6652
aVnr
p6653
aV81
p6654
aV88
p6655
aVnr
p6656
aV77
p6657
aV83
p6658
aVnr
p6659
aVnr
p6660
aV70
p6661
aVnr
p6662
aVnr
p6663
aVnr
p6664
aVnr
p6665
aVnr
p6666
aV76
p6667
aV70
p6668
aVnr
p6669
aV69
p6670
aV76
p6671
aVnr
p6672
aV59
p6673
aV76
p6674
aVnr
p6675
aVnr
p6676
aVnr
p6677
aVnr
p6678
aV79
p6679
aVnr
p6680
aV72
p6681
aVnr
p6682
aVnr
p6683
aV81
p6684
aV81
p6685
aV73
p6686
aV70
p6687
aa(lp6688
V02-11-2016
p6689
aV24
p6690
aVnr
p6691
aV72
p6692
aV96
p6693
aVnr
p6694
aV80
p6695
aVnr
p6696
aVnr
p6697
aVnr
p6698
aV84
p6699
aV88
p6700
aVnr
p6701
aV77
p6702
aV85
p6703
aVnr
p6704
aVnr
p6705
aV68
p6706
aVnr
p6707
aVnr
p6708
aVnr
p6709
aVnr
p6710
aVnr
p6711
aV71
p6712
aV78
p6713
aVnr
p6714
aV68
p6715
aV81
p6716
aVnr
p6717
aV63
p6718
aV78
p6719
aVnr
p6720
aVnr
p6721
aVnr
p6722
aVnr
p6723
aV85
p6724
aVnr
p6725
aV75
p6726
aVnr
p6727
aVnr
p6728
aV84
p6729
aV80
p6730
aV73
p6731
aV68
p6732
aasS'no2'
p6733
(lp6734
(lp6735
V02-11-2016
p6736
aV21
p6737
aV14
p6738
aV5
aVnr
p6739
aV26
p6740
aVnr
p6741
aVnr
p6742
aVnr
p6743
aV14
p6744
aVnr
p6745
aV22
p6746
aVnr
p6747
aV26
p6748
aV14
p6749
aV13
p6750
aVnr
p6751
aVnr
p6752
aV21
p6753
aV26
p6754
aVnr
p6755
aVnr
p6756
aVnr
p6757
aVnr
p6758
aV14
p6759
aVnr
p6760
aV35
p6761
aV17
p6762
aVnr
p6763
aV27
p6764
aVnr
p6765
aV33
p6766
aVnr
p6767
aVnr
p6768
aV8
aVnr
p6769
aVnr
p6770
aV22
p6771
aV34
p6772
aVnr
p6773
aV26
p6774
aV28
p6775
aV17
p6776
aV36
p6777
aa(lp6778
V02-11-2016
p6779
aV21
p6780
aV14
p6781
aV5
aVnr
p6782
aV26
p6783
aVnr
p6784
aVnr
p6785
aVnr
p6786
aV14
p6787
aVnr
p6788
aV22
p6789
aVnr
p6790
aV26
p6791
aV14
p6792
aV13
p6793
aVnr
p6794
aVnr
p6795
aV21
p6796
aV26
p6797
aVnr
p6798
aVnr
p6799
aVnr
p6800
aVnr
p6801
aV14
p6802
aVnr
p6803
aV35
p6804
aV17
p6805
aVnr
p6806
aV27
p6807
aVnr
p6808
aV33
p6809
aVnr
p6810
aVnr
p6811
aV8
aVnr
p6812
aVnr
p6813
aV22
p6814
aV34
p6815
aVnr
p6816
aV26
p6817
aV28
p6818
aV17
p6819
aV36
p6820
aa(lp6821
V02-11-2016
p6822
aV21
p6823
aV14
p6824
aV5
aVnr
p6825
aV26
p6826
aVnr
p6827
aVnr
p6828
aVnr
p6829
aV14
p6830
aVnr
p6831
aV22
p6832
aVnr
p6833
aV26
p6834
aV14
p6835
aV13
p6836
aVnr
p6837
aVnr
p6838
aV21
p6839
aV26
p6840
aVnr
p6841
aVnr
p6842
aVnr
p6843
aVnr
p6844
aV14
p6845
aVnr
p6846
aV35
p6847
aV17
p6848
aVnr
p6849
aV27
p6850
aVnr
p6851
aV33
p6852
aVnr
p6853
aVnr
p6854
aV8
aVnr
p6855
aVnr
p6856
aV22
p6857
aV34
p6858
aVnr
p6859
aV26
p6860
aV28
p6861
aV17
p6862
aV36
p6863
aa(lp6864
V02-11-2016
p6865
aV21
p6866
aV14
p6867
aV5
aVnr
p6868
aV26
p6869
aVnr
p6870
aVnr
p6871
aVnr
p6872
aV14
p6873
aVnr
p6874
aV22
p6875
aVnr
p6876
aV26
p6877
aV14
p6878
aV13
p6879
aVnr
p6880
aVnr
p6881
aV21
p6882
aV26
p6883
aVnr
p6884
aVnr
p6885
aVnr
p6886
aVnr
p6887
aV14
p6888
aVnr
p6889
aV35
p6890
aV17
p6891
aVnr
p6892
aV27
p6893
aVnr
p6894
aV33
p6895
aVnr
p6896
aVnr
p6897
aV8
aVnr
p6898
aVnr
p6899
aV22
p6900
aV34
p6901
aVnr
p6902
aV26
p6903
aV28
p6904
aV17
p6905
aV36
p6906
aa(lp6907
V02-11-2016
p6908
aV21
p6909
aV14
p6910
aV5
aVnr
p6911
aV26
p6912
aVnr
p6913
aVnr
p6914
aVnr
p6915
aV14
p6916
aVnr
p6917
aV22
p6918
aVnr
p6919
aV26
p6920
aV14
p6921
aV13
p6922
aVnr
p6923
aVnr
p6924
aV21
p6925
aV26
p6926
aVnr
p6927
aVnr
p6928
aVnr
p6929
aVnr
p6930
aV14
p6931
aVnr
p6932
aV35
p6933
aV17
p6934
aVnr
p6935
aV27
p6936
aVnr
p6937
aV33
p6938
aVnr
p6939
aVnr
p6940
aV8
aVnr
p6941
aVnr
p6942
aV22
p6943
aV34
p6944
aVnr
p6945
aV26
p6946
aV28
p6947
aV17
p6948
aV36
p6949
aa(lp6950
V02-11-2016
p6951
aV21
p6952
aV14
p6953
aV5
aVnr
p6954
aV26
p6955
aVnr
p6956
aVnr
p6957
aVnr
p6958
aV14
p6959
aVnr
p6960
aV22
p6961
aVnr
p6962
aV26
p6963
aV14
p6964
aV13
p6965
aVnr
p6966
aVnr
p6967
aV21
p6968
aV26
p6969
aVnr
p6970
aVnr
p6971
aVnr
p6972
aVnr
p6973
aV14
p6974
aVnr
p6975
aV35
p6976
aV17
p6977
aVnr
p6978
aV27
p6979
aVnr
p6980
aV33
p6981
aVnr
p6982
aVnr
p6983
aV8
aVnr
p6984
aVnr
p6985
aV22
p6986
aV34
p6987
aVnr
p6988
aV26
p6989
aV28
p6990
aV17
p6991
aV36
p6992
aa(lp6993
V02-11-2016
p6994
aV21
p6995
aV14
p6996
aV5
aVnr
p6997
aV26
p6998
aVnr
p6999
aVnr
p7000
aVnr
p7001
aV14
p7002
aVnr
p7003
aV22
p7004
aVnr
p7005
aV26
p7006
aV14
p7007
aV13
p7008
aVnr
p7009
aVnr
p7010
aV21
p7011
aV26
p7012
aVnr
p7013
aVnr
p7014
aVnr
p7015
aVnr
p7016
aV14
p7017
aVnr
p7018
aV35
p7019
aV17
p7020
aVnr
p7021
aV27
p7022
aVnr
p7023
aV33
p7024
aVnr
p7025
aVnr
p7026
aV8
aVnr
p7027
aVnr
p7028
aV22
p7029
aV34
p7030
aVnr
p7031
aV26
p7032
aV28
p7033
aV17
p7034
aV36
p7035
aa(lp7036
V02-11-2016
p7037
aV21
p7038
aV14
p7039
aV5
aVnr
p7040
aV26
p7041
aVnr
p7042
aVnr
p7043
aVnr
p7044
aV14
p7045
aVnr
p7046
aV22
p7047
aVnr
p7048
aV26
p7049
aV14
p7050
aV13
p7051
aVnr
p7052
aVnr
p7053
aV21
p7054
aV26
p7055
aVnr
p7056
aVnr
p7057
aVnr
p7058
aVnr
p7059
aV14
p7060
aVnr
p7061
aV35
p7062
aV17
p7063
aVnr
p7064
aV27
p7065
aVnr
p7066
aV33
p7067
aVnr
p7068
aVnr
p7069
aV8
aVnr
p7070
aVnr
p7071
aV22
p7072
aV34
p7073
aVnr
p7074
aV26
p7075
aV28
p7076
aV17
p7077
aV36
p7078
aa(lp7079
V02-11-2016
p7080
aV22
p7081
aV21
p7082
aV8
aVnr
p7083
aV25
p7084
aVnr
p7085
aVnr
p7086
aVnr
p7087
aV20
p7088
aVnr
p7089
aV27
p7090
aVnr
p7091
aV26
p7092
aV20
p7093
aV9
aVnr
p7094
aVnr
p7095
aV27
p7096
aV27
p7097
aVnr
p7098
aVnr
p7099
aVnr
p7100
aVnr
p7101
aVnr
p7102
aVnr
p7103
aV31
p7104
aV20
p7105
aVnr
p7106
aV36
p7107
aVnr
p7108
aVnr
p7109
aVnr
p7110
aVnr
p7111
aV8
aVnr
p7112
aVnr
p7113
aV25
p7114
aV32
p7115
aVnr
p7116
aV16
p7117
aV25
p7118
aV21
p7119
aV36
p7120
aa(lp7121
V02-11-2016
p7122
aV22
p7123
aV21
p7124
aV8
aVnr
p7125
aV25
p7126
aVnr
p7127
aVnr
p7128
aVnr
p7129
aV20
p7130
aVnr
p7131
aV27
p7132
aVnr
p7133
aV26
p7134
aV20
p7135
aV9
aVnr
p7136
aVnr
p7137
aV27
p7138
aV27
p7139
aVnr
p7140
aVnr
p7141
aVnr
p7142
aVnr
p7143
aVnr
p7144
aVnr
p7145
aV31
p7146
aV20
p7147
aVnr
p7148
aV36
p7149
aVnr
p7150
aVnr
p7151
aVnr
p7152
aVnr
p7153
aV8
aVnr
p7154
aVnr
p7155
aV25
p7156
aV32
p7157
aVnr
p7158
aV16
p7159
aV25
p7160
aV21
p7161
aV36
p7162
aa(lp7163
V02-11-2016
p7164
aV22
p7165
aV21
p7166
aV8
aVnr
p7167
aV25
p7168
aVnr
p7169
aVnr
p7170
aVnr
p7171
aV20
p7172
aVnr
p7173
aV27
p7174
aVnr
p7175
aV26
p7176
aV20
p7177
aV9
aVnr
p7178
aVnr
p7179
aV27
p7180
aV27
p7181
aVnr
p7182
aVnr
p7183
aVnr
p7184
aVnr
p7185
aVnr
p7186
aVnr
p7187
aV31
p7188
aV20
p7189
aVnr
p7190
aV36
p7191
aVnr
p7192
aVnr
p7193
aVnr
p7194
aVnr
p7195
aV8
aVnr
p7196
aVnr
p7197
aV25
p7198
aV32
p7199
aVnr
p7200
aV16
p7201
aV25
p7202
aV21
p7203
aV36
p7204
aa(lp7205
V02-11-2016
p7206
aV23
p7207
aV26
p7208
aV6
aVnr
p7209
aV22
p7210
aVnr
p7211
aVnr
p7212
aVnr
p7213
aV17
p7214
aVnr
p7215
aV27
p7216
aVnr
p7217
aV25
p7218
aV25
p7219
aV7
aVnr
p7220
aVnr
p7221
aV29
p7222
aV29
p7223
aVnr
p7224
aVnr
p7225
aVnr
p7226
aVnr
p7227
aV23
p7228
aVnr
p7229
aV32
p7230
aV15
p7231
aVnr
p7232
aV35
p7233
aVnr
p7234
aV30
p7235
aVnr
p7236
aVnr
p7237
aV13
p7238
aVnr
p7239
aVnr
p7240
aV27
p7241
aV31
p7242
aVnr
p7243
aV24
p7244
aV28
p7245
aV22
p7246
aV33
p7247
aa(lp7248
V02-11-2016
p7249
aV23
p7250
aV26
p7251
aV6
aVnr
p7252
aV22
p7253
aVnr
p7254
aVnr
p7255
aVnr
p7256
aV17
p7257
aVnr
p7258
aV27
p7259
aVnr
p7260
aV25
p7261
aV25
p7262
aV7
aVnr
p7263
aVnr
p7264
aV29
p7265
aV29
p7266
aVnr
p7267
aVnr
p7268
aVnr
p7269
aVnr
p7270
aV23
p7271
aVnr
p7272
aV32
p7273
aV15
p7274
aVnr
p7275
aV35
p7276
aVnr
p7277
aV30
p7278
aVnr
p7279
aVnr
p7280
aV13
p7281
aVnr
p7282
aVnr
p7283
aV27
p7284
aV31
p7285
aVnr
p7286
aV24
p7287
aV28
p7288
aV22
p7289
aV33
p7290
aa(lp7291
V02-11-2016
p7292
aV23
p7293
aV26
p7294
aV6
aVnr
p7295
aV22
p7296
aVnr
p7297
aVnr
p7298
aVnr
p7299
aV17
p7300
aVnr
p7301
aV27
p7302
aVnr
p7303
aV25
p7304
aV25
p7305
aV7
aVnr
p7306
aVnr
p7307
aV29
p7308
aV29
p7309
aVnr
p7310
aVnr
p7311
aVnr
p7312
aVnr
p7313
aV23
p7314
aVnr
p7315
aV32
p7316
aV15
p7317
aVnr
p7318
aV35
p7319
aVnr
p7320
aV30
p7321
aVnr
p7322
aVnr
p7323
aV13
p7324
aVnr
p7325
aVnr
p7326
aV27
p7327
aV31
p7328
aVnr
p7329
aV24
p7330
aV28
p7331
aV22
p7332
aV33
p7333
aa(lp7334
V02-11-2016
p7335
aV23
p7336
aV26
p7337
aV6
aVnr
p7338
aV22
p7339
aVnr
p7340
aVnr
p7341
aVnr
p7342
aV17
p7343
aVnr
p7344
aV27
p7345
aVnr
p7346
aV25
p7347
aV25
p7348
aV7
aVnr
p7349
aVnr
p7350
aV29
p7351
aV29
p7352
aVnr
p7353
aVnr
p7354
aVnr
p7355
aVnr
p7356
aV23
p7357
aVnr
p7358
aV32
p7359
aV15
p7360
aVnr
p7361
aV35
p7362
aVnr
p7363
aV30
p7364
aVnr
p7365
aVnr
p7366
aV13
p7367
aVnr
p7368
aVnr
p7369
aV27
p7370
aV31
p7371
aVnr
p7372
aV24
p7373
aV28
p7374
aV22
p7375
aV33
p7376
aa(lp7377
V02-11-2016
p7378
aV24
p7379
aV27
p7380
aV16
p7381
aVnr
p7382
aV17
p7383
aVnr
p7384
aVnr
p7385
aVnr
p7386
aV17
p7387
aVnr
p7388
aV22
p7389
aVnr
p7390
aV25
p7391
aV21
p7392
aV13
p7393
aVnr
p7394
aVnr
p7395
aV27
p7396
aV30
p7397
aVnr
p7398
aVnr
p7399
aVnr
p7400
aVnr
p7401
aV23
p7402
aVnr
p7403
aV32
p7404
aV17
p7405
aVnr
p7406
aV31
p7407
aVnr
p7408
aV32
p7409
aVnr
p7410
aVnr
p7411
aV19
p7412
aVnr
p7413
aVnr
p7414
aV29
p7415
aV29
p7416
aVnr
p7417
aV24
p7418
aV29
p7419
aV27
p7420
aV29
p7421
aas.