(dp1
S'tmp'
p2
(lp3
(lp4
V08-11-2016
p5
aV12
p6
aVnr
p7
aV16
p8
aV13
p9
aVnr
p10
aV19
p11
aVnr
p12
aVnr
p13
aVnr
p14
aV19
p15
aVnr
p16
aVnr
p17
aV15
p18
aV18
p19
aV22
p20
aVnr
p21
aV19
p22
aVnr
p23
aVnr
p24
aVnr
p25
aVnr
p26
aVnr
p27
aV19
p28
aV18
p29
aVnr
p30
aV17
p31
aV18
p32
aVnr
p33
aV20
p34
aV16
p35
aVnr
p36
aVnr
p37
aVnr
p38
aVnr
p39
aV19
p40
aVnr
p41
aV18
p42
aVnr
p43
aVnr
p44
aV19
p45
aV19
p46
aV18
p47
aV19
p48
aasS'co'
p49
(lp50
(lp51
V08-11-2016
p52
aV12
p53
aV0.2
p54
aV0.9
p55
aVnr
p56
aVnr
p57
aV0.3
p58
aVnr
p59
aV1.1
p60
aV0.8
p61
aV1.4
p62
aVnr
p63
aV0.4
p64
aV0.8
p65
aVnr
p66
aV1.1
p67
aVnr
p68
aV0.8
p69
aVnr
p70
aV0.4
p71
aVnr
p72
aV0.3
p73
aV1.3
p74
aVnr
p75
aVnr
p76
aV1.0
p77
aV1.1
p78
aV1.2
p79
aV0.5
p80
aV0.4
p81
aV1.2
p82
aVnr
p83
aV1.1
p84
aVnr
p85
aV1.0
p86
aVnr
p87
aVnr
p88
aV0.6
p89
aVnr
p90
aVnr
p91
aV0.8
p92
aV0.3
p93
aVnr
p94
aV0.9
p95
aV0.7
p96
aVnr
p97
aV0.4
p98
aV1.4
p99
aasS'pm2'
p100
(lp101
(lp102
V08-11-2016
p103
aV12
p104
aVnr
p105
aV52
p106
aV36
p107
aVnr
p108
aV61
p109
aV51
p110
aV48
p111
aVnr
p112
aVnr
p113
aV67
p114
aVnr
p115
aVnr
p116
aVnr
p117
aVnr
p118
aV51
p119
aV10
p120
aVnr
p121
aVnr
p122
aVnr
p123
aV53
p124
aV44
p125
aV34
p126
aV35
p127
aVnr
p128
aV44
p129
aVnr
p130
aVnr
p131
aVnr
p132
aVnr
p133
aVnr
p134
aV41
p135
aVnr
p136
aVnr
p137
aV43
p138
aVnr
p139
aVnr
p140
aV61
p141
aasS'pm10'
p142
(lp143
(lp144
V08-11-2016
p145
aV12
p146
aV40
p147
aV70
p148
aVnr
p149
aV34
p150
aV89
p151
aV80
p152
aVnr
p153
aVnr
p154
aVnr
p155
aV74
p156
aVnr
p157
aV59
p158
aV55
p159
aV46
p160
aVnr
p161
aV77
p162
aV13
p163
aV70
p164
aVnr
p165
aVnr
p166
aVnr
p167
aV88
p168
aV64
p169
aV46
p170
aVnr
p171
aVnr
p172
aVnr
p173
aV80
p174
aVnr
p175
aVnr
p176
aVnr
p177
aV54
p178
aVnr
p179
aVnr
p180
aV76
p181
aV73
p182
aVnr
p183
aVnr
p184
aVnr
p185
aV75
p186
aV119
p187
aasS'no'
p188
(lp189
(lp190
V08-11-2016
p191
aV12
p192
aV8
aV19
p193
aVnr
p194
aV11
p195
aVnr
p196
aVnr
p197
aV18
p198
aV24
p199
aVnr
p200
aV7
aVnr
p201
aV31
p202
aV30
p203
aV11
p204
aV18
p205
aVnr
p206
aV24
p207
aVnr
p208
aV31
p209
aVnr
p210
aVnr
p211
aVnr
p212
aV36
p213
aV27
p214
aVnr
p215
aV12
p216
aV31
p217
aVnr
p218
aV16
p219
aVnr
p220
aV28
p221
aVnr
p222
aVnr
p223
aV9
aVnr
p224
aVnr
p225
aV29
p226
aV14
p227
aVnr
p228
aV22
p229
aV17
p230
aV9
aV32
p231
aasS'rh'
p232
(lp233
(lp234
V08-11-2016
p235
aV12
p236
aVnr
p237
aV60
p238
aV74
p239
aVnr
p240
aV53
p241
aVnr
p242
aVnr
p243
aVnr
p244
aV53
p245
aVnr
p246
aVnr
p247
aV65
p248
aV59
p249
aV44
p250
aVnr
p251
aV45
p252
aVnr
p253
aVnr
p254
aVnr
p255
aVnr
p256
aVnr
p257
aV54
p258
aV53
p259
aVnr
p260
aV55
p261
aV57
p262
aVnr
p263
aV42
p264
aV66
p265
aVnr
p266
aVnr
p267
aVnr
p268
aVnr
p269
aV57
p270
aVnr
p271
aV47
p272
aVnr
p273
aVnr
p274
aV55
p275
aV56
p276
aV53
p277
aV48
p278
aasS'wsp'
p279
(lp280
(lp281
V08-11-2016
p282
aV12
p283
aVnr
p284
aV5
aV4
aVnr
p285
aVnr
p286
aVnr
p287
aVnr
p288
aV4
aVnr
p289
aVnr
p290
aV6
aV4
aV2
aVnr
p291
aV2
aVnr
p292
aVnr
p293
aVnr
p294
aVnr
p295
aVnr
p296
aV4
aV4
aVnr
p297
aV4
aV4
aVnr
p298
aV2
aV5
aVnr
p299
aVnr
p300
aVnr
p301
aVnr
p302
aV4
aVnr
p303
aV2
aVnr
p304
aVnr
p305
aV4
aV4
aV3
aV2
aasS'wdr'
p306
(lp307
(lp308
V08-11-2016
p309
aV12
p310
aVnr
p311
aV29
p312
aV45
p313
aVnr
p314
aV178
p315
aVnr
p316
aVnr
p317
aVnr
p318
aV274
p319
aVnr
p320
aVnr
p321
aV99
p322
aV67
p323
aV33
p324
aVnr
p325
aV72
p326
aVnr
p327
aVnr
p328
aVnr
p329
aVnr
p330
aVnr
p331
aV93
p332
aV82
p333
aVnr
p334
aV106
p335
aV35
p336
aVnr
p337
aV339
p338
aV70
p339
aVnr
p340
aVnr
p341
aVnr
p342
aVnr
p343
aV68
p344
aVnr
p345
aV140
p346
aVnr
p347
aVnr
p348
aV346
p349
aV168
p350
aV335
p351
aV234
p352
aasS'so2'
p353
(lp354
(lp355
V08-11-2016
p356
aV12
p357
aV32
p358
aV8
aVnr
p359
aVnr
p360
aV9
aVnr
p361
aV17
p362
aV16
p363
aV14
p364
aVnr
p365
aV16
p366
aV13
p367
aVnr
p368
aV12
p369
aV33
p370
aV14
p371
aVnr
p372
aV15
p373
aV5
aV20
p374
aVnr
p375
aV26
p376
aV16
p377
aVnr
p378
aV20
p379
aV16
p380
aV6
aV28
p381
aV15
p382
aVnr
p383
aV23
p384
aVnr
p385
aV19
p386
aVnr
p387
aVnr
p388
aV11
p389
aVnr
p390
aVnr
p391
aV16
p392
aV16
p393
aVnr
p394
aV14
p395
aV22
p396
aVnr
p397
aV50
p398
aV22
p399
aasS'nox'
p400
(lp401
(lp402
V08-11-2016
p403
aV12
p404
aV21
p405
aV58
p406
aVnr
p407
aV30
p408
aVnr
p409
aVnr
p410
aV54
p411
aV86
p412
aVnr
p413
aV20
p414
aVnr
p415
aV85
p416
aV75
p417
aV24
p418
aV47
p419
aVnr
p420
aV63
p421
aVnr
p422
aV81
p423
aVnr
p424
aVnr
p425
aVnr
p426
aV90
p427
aV77
p428
aVnr
p429
aV37
p430
aV84
p431
aVnr
p432
aV51
p433
aVnr
p434
aV71
p435
aVnr
p436
aVnr
p437
aV32
p438
aVnr
p439
aVnr
p440
aV64
p441
aV37
p442
aVnr
p443
aV69
p444
aV47
p445
aV28
p446
aV88
p447
aasS'o3'
p448
(lp449
(lp450
V08-11-2016
p451
aV12
p452
aV38
p453
aV45
p454
aV35
p455
aV32
p456
aVnr
p457
aV37
p458
aV35
p459
aV30
p460
aVnr
p461
aV38
p462
aV36
p463
aV38
p464
aV33
p465
aV33
p466
aV35
p467
aV38
p468
aV39
p469
aV38
p470
aV36
p471
aVnr
p472
aV33
p473
aV33
p474
aV32
p475
aV31
p476
aV40
p477
aV37
p478
aV37
p479
aVnr
p480
aV41
p481
aVnr
p482
aV35
p483
aVnr
p484
aVnr
p485
aV42
p486
aVnr
p487
aVnr
p488
aV33
p489
aV35
p490
aVnr
p491
aV42
p492
aV42
p493
aV38
p494
aV39
p495
aasS'no2'
p496
(lp497
(lp498
V08-11-2016
p499
aV12
p500
aV12
p501
aV39
p502
aVnr
p503
aV19
p504
aVnr
p505
aVnr
p506
aV36
p507
aV62
p508
aVnr
p509
aV13
p510
aVnr
p511
aV54
p512
aV45
p513
aV13
p514
aV29
p515
aVnr
p516
aV39
p517
aV50
p518
aVnr
p519
aVnr
p520
aVnr
p521
aV53
p522
aV50
p523
aVnr
p524
aV25
p525
aV53
p526
aVnr
p527
aV35
p528
aVnr
p529
aV43
p530
aVnr
p531
aVnr
p532
aV23
p533
aVnr
p534
aVnr
p535
aV36
p536
aV23
p537
aVnr
p538
aV46
p539
aV31
p540
aV19
p541
aV56
p542
aas.