(dp1
S'tmp'
p2
(lp3
(lp4
V02-11-2016
p5
aV21
p6
aVnr
p7
aV14
p8
aV10
p9
aVnr
p10
aV16
p11
aVnr
p12
aVnr
p13
aVnr
p14
aV15
p15
aV14
p16
aVnr
p17
aV12
p18
aV16
p19
aVnr
p20
aVnr
p21
aV16
p22
aVnr
p23
aVnr
p24
aVnr
p25
aVnr
p26
aVnr
p27
aV16
p28
aV15
p29
aVnr
p30
aV17
p31
aV16
p32
aVnr
p33
aV19
p34
aV13
p35
aVnr
p36
aVnr
p37
aVnr
p38
aVnr
p39
aV15
p40
aVnr
p41
aV15
p42
aVnr
p43
aVnr
p44
aV17
p45
aV17
p46
aV18
p47
aV17
p48
aa(lp49
V02-11-2016
p50
aV21
p51
aVnr
p52
aV14
p53
aV10
p54
aVnr
p55
aV16
p56
aVnr
p57
aVnr
p58
aVnr
p59
aV15
p60
aV14
p61
aVnr
p62
aV12
p63
aV16
p64
aVnr
p65
aVnr
p66
aV16
p67
aVnr
p68
aVnr
p69
aVnr
p70
aVnr
p71
aVnr
p72
aV16
p73
aV15
p74
aVnr
p75
aV17
p76
aV16
p77
aVnr
p78
aV19
p79
aV13
p80
aVnr
p81
aVnr
p82
aVnr
p83
aVnr
p84
aV15
p85
aVnr
p86
aV15
p87
aVnr
p88
aVnr
p89
aV17
p90
aV17
p91
aV18
p92
aV17
p93
aa(lp94
V02-11-2016
p95
aV21
p96
aVnr
p97
aV14
p98
aV10
p99
aVnr
p100
aV16
p101
aVnr
p102
aVnr
p103
aVnr
p104
aV15
p105
aV14
p106
aVnr
p107
aV12
p108
aV16
p109
aVnr
p110
aVnr
p111
aV16
p112
aVnr
p113
aVnr
p114
aVnr
p115
aVnr
p116
aVnr
p117
aV16
p118
aV15
p119
aVnr
p120
aV17
p121
aV16
p122
aVnr
p123
aV19
p124
aV13
p125
aVnr
p126
aVnr
p127
aVnr
p128
aVnr
p129
aV15
p130
aVnr
p131
aV15
p132
aVnr
p133
aVnr
p134
aV17
p135
aV17
p136
aV18
p137
aV17
p138
aa(lp139
V02-11-2016
p140
aV21
p141
aVnr
p142
aV14
p143
aV10
p144
aVnr
p145
aV16
p146
aVnr
p147
aVnr
p148
aVnr
p149
aV15
p150
aV14
p151
aVnr
p152
aV12
p153
aV16
p154
aVnr
p155
aVnr
p156
aV16
p157
aVnr
p158
aVnr
p159
aVnr
p160
aVnr
p161
aVnr
p162
aV16
p163
aV15
p164
aVnr
p165
aV17
p166
aV16
p167
aVnr
p168
aV19
p169
aV13
p170
aVnr
p171
aVnr
p172
aVnr
p173
aVnr
p174
aV15
p175
aVnr
p176
aV15
p177
aVnr
p178
aVnr
p179
aV17
p180
aV17
p181
aV18
p182
aV17
p183
aa(lp184
V02-11-2016
p185
aV21
p186
aVnr
p187
aV14
p188
aV10
p189
aVnr
p190
aV16
p191
aVnr
p192
aVnr
p193
aVnr
p194
aV15
p195
aV14
p196
aVnr
p197
aV12
p198
aV16
p199
aVnr
p200
aVnr
p201
aV16
p202
aVnr
p203
aVnr
p204
aVnr
p205
aVnr
p206
aVnr
p207
aV16
p208
aV15
p209
aVnr
p210
aV17
p211
aV16
p212
aVnr
p213
aV19
p214
aV13
p215
aVnr
p216
aVnr
p217
aVnr
p218
aVnr
p219
aV15
p220
aVnr
p221
aV15
p222
aVnr
p223
aVnr
p224
aV17
p225
aV17
p226
aV18
p227
aV17
p228
aa(lp229
V02-11-2016
p230
aV21
p231
aVnr
p232
aV14
p233
aV10
p234
aVnr
p235
aV16
p236
aVnr
p237
aVnr
p238
aVnr
p239
aV15
p240
aV14
p241
aVnr
p242
aV12
p243
aV16
p244
aVnr
p245
aVnr
p246
aV16
p247
aVnr
p248
aVnr
p249
aVnr
p250
aVnr
p251
aVnr
p252
aV16
p253
aV15
p254
aVnr
p255
aV17
p256
aV16
p257
aVnr
p258
aV19
p259
aV13
p260
aVnr
p261
aVnr
p262
aVnr
p263
aVnr
p264
aV15
p265
aVnr
p266
aV15
p267
aVnr
p268
aVnr
p269
aV17
p270
aV17
p271
aV18
p272
aV17
p273
aa(lp274
V02-11-2016
p275
aV21
p276
aVnr
p277
aV14
p278
aV10
p279
aVnr
p280
aV16
p281
aVnr
p282
aVnr
p283
aVnr
p284
aV15
p285
aV14
p286
aVnr
p287
aV12
p288
aV16
p289
aVnr
p290
aVnr
p291
aV16
p292
aVnr
p293
aVnr
p294
aVnr
p295
aVnr
p296
aVnr
p297
aV16
p298
aV15
p299
aVnr
p300
aV17
p301
aV16
p302
aVnr
p303
aV19
p304
aV13
p305
aVnr
p306
aVnr
p307
aVnr
p308
aVnr
p309
aV15
p310
aVnr
p311
aV15
p312
aVnr
p313
aVnr
p314
aV17
p315
aV17
p316
aV18
p317
aV17
p318
aa(lp319
V02-11-2016
p320
aV21
p321
aVnr
p322
aV14
p323
aV10
p324
aVnr
p325
aV16
p326
aVnr
p327
aVnr
p328
aVnr
p329
aV15
p330
aV14
p331
aVnr
p332
aV12
p333
aV16
p334
aVnr
p335
aVnr
p336
aV16
p337
aVnr
p338
aVnr
p339
aVnr
p340
aVnr
p341
aVnr
p342
aV16
p343
aV15
p344
aVnr
p345
aV17
p346
aV16
p347
aVnr
p348
aV19
p349
aV13
p350
aVnr
p351
aVnr
p352
aVnr
p353
aVnr
p354
aV15
p355
aVnr
p356
aV15
p357
aVnr
p358
aVnr
p359
aV17
p360
aV17
p361
aV18
p362
aV17
p363
aa(lp364
V02-11-2016
p365
aV22
p366
aVnr
p367
aV15
p368
aV10
p369
aVnr
p370
aV16
p371
aVnr
p372
aVnr
p373
aVnr
p374
aV15
p375
aV14
p376
aVnr
p377
aV12
p378
aV15
p379
aVnr
p380
aVnr
p381
aV16
p382
aVnr
p383
aVnr
p384
aVnr
p385
aVnr
p386
aVnr
p387
aV16
p388
aVnr
p389
aVnr
p390
aV16
p391
aV15
p392
aVnr
p393
aV18
p394
aV13
p395
aVnr
p396
aVnr
p397
aVnr
p398
aVnr
p399
aV14
p400
aVnr
p401
aV14
p402
aVnr
p403
aVnr
p404
aV15
p405
aV15
p406
aV17
p407
aV16
p408
aa(lp409
V02-11-2016
p410
aV22
p411
aVnr
p412
aV15
p413
aV10
p414
aVnr
p415
aV16
p416
aVnr
p417
aVnr
p418
aVnr
p419
aV15
p420
aV14
p421
aVnr
p422
aV12
p423
aV15
p424
aVnr
p425
aVnr
p426
aV16
p427
aVnr
p428
aVnr
p429
aVnr
p430
aVnr
p431
aVnr
p432
aV16
p433
aVnr
p434
aVnr
p435
aV16
p436
aV15
p437
aVnr
p438
aV18
p439
aV13
p440
aVnr
p441
aVnr
p442
aVnr
p443
aVnr
p444
aV14
p445
aVnr
p446
aV14
p447
aVnr
p448
aVnr
p449
aV15
p450
aV15
p451
aV17
p452
aV16
p453
aa(lp454
V02-11-2016
p455
aV22
p456
aVnr
p457
aV15
p458
aV10
p459
aVnr
p460
aV16
p461
aVnr
p462
aVnr
p463
aVnr
p464
aV15
p465
aV14
p466
aVnr
p467
aV12
p468
aV15
p469
aVnr
p470
aVnr
p471
aV16
p472
aVnr
p473
aVnr
p474
aVnr
p475
aVnr
p476
aVnr
p477
aV16
p478
aVnr
p479
aVnr
p480
aV16
p481
aV15
p482
aVnr
p483
aV18
p484
aV13
p485
aVnr
p486
aVnr
p487
aVnr
p488
aVnr
p489
aV14
p490
aVnr
p491
aV14
p492
aVnr
p493
aVnr
p494
aV15
p495
aV15
p496
aV17
p497
aV16
p498
aa(lp499
V02-11-2016
p500
aV23
p501
aVnr
p502
aV14
p503
aV9
aVnr
p504
aV16
p505
aVnr
p506
aVnr
p507
aVnr
p508
aV15
p509
aV14
p510
aVnr
p511
aV12
p512
aV14
p513
aVnr
p514
aVnr
p515
aV16
p516
aVnr
p517
aVnr
p518
aVnr
p519
aVnr
p520
aVnr
p521
aV16
p522
aV16
p523
aVnr
p524
aV16
p525
aV15
p526
aVnr
p527
aV17
p528
aV13
p529
aVnr
p530
aVnr
p531
aVnr
p532
aVnr
p533
aV15
p534
aVnr
p535
aV14
p536
aVnr
p537
aVnr
p538
aV16
p539
aV16
p540
aV16
p541
aV15
p542
aa(lp543
V02-11-2016
p544
aV23
p545
aVnr
p546
aV14
p547
aV9
aVnr
p548
aV16
p549
aVnr
p550
aVnr
p551
aVnr
p552
aV15
p553
aV14
p554
aVnr
p555
aV12
p556
aV14
p557
aVnr
p558
aVnr
p559
aV16
p560
aVnr
p561
aVnr
p562
aVnr
p563
aVnr
p564
aVnr
p565
aV16
p566
aV16
p567
aVnr
p568
aV16
p569
aV15
p570
aVnr
p571
aV17
p572
aV13
p573
aVnr
p574
aVnr
p575
aVnr
p576
aVnr
p577
aV15
p578
aVnr
p579
aV14
p580
aVnr
p581
aVnr
p582
aV16
p583
aV16
p584
aV16
p585
aV15
p586
aa(lp587
V02-11-2016
p588
aV23
p589
aVnr
p590
aV14
p591
aV9
aVnr
p592
aV16
p593
aVnr
p594
aVnr
p595
aVnr
p596
aV15
p597
aV14
p598
aVnr
p599
aV12
p600
aV14
p601
aVnr
p602
aVnr
p603
aV16
p604
aVnr
p605
aVnr
p606
aVnr
p607
aVnr
p608
aVnr
p609
aV16
p610
aV16
p611
aVnr
p612
aV16
p613
aV15
p614
aVnr
p615
aV17
p616
aV13
p617
aVnr
p618
aVnr
p619
aVnr
p620
aVnr
p621
aV15
p622
aVnr
p623
aV14
p624
aVnr
p625
aVnr
p626
aV16
p627
aV16
p628
aV16
p629
aV15
p630
aa(lp631
V02-11-2016
p632
aV23
p633
aVnr
p634
aV14
p635
aV9
aVnr
p636
aV16
p637
aVnr
p638
aVnr
p639
aVnr
p640
aV15
p641
aV14
p642
aVnr
p643
aV12
p644
aV14
p645
aVnr
p646
aVnr
p647
aV16
p648
aVnr
p649
aVnr
p650
aVnr
p651
aVnr
p652
aVnr
p653
aV16
p654
aV16
p655
aVnr
p656
aV16
p657
aV15
p658
aVnr
p659
aV17
p660
aV13
p661
aVnr
p662
aVnr
p663
aVnr
p664
aVnr
p665
aV15
p666
aVnr
p667
aV14
p668
aVnr
p669
aVnr
p670
aV16
p671
aV16
p672
aV16
p673
aV15
p674
aa(lp675
V02-11-2016
p676
aV24
p677
aVnr
p678
aV14
p679
aV8
aVnr
p680
aV15
p681
aVnr
p682
aVnr
p683
aVnr
p684
aV14
p685
aV13
p686
aVnr
p687
aV12
p688
aV14
p689
aVnr
p690
aVnr
p691
aV16
p692
aVnr
p693
aVnr
p694
aVnr
p695
aVnr
p696
aVnr
p697
aV16
p698
aV15
p699
aVnr
p700
aV16
p701
aV14
p702
aVnr
p703
aV17
p704
aV13
p705
aVnr
p706
aVnr
p707
aVnr
p708
aVnr
p709
aV14
p710
aVnr
p711
aV15
p712
aVnr
p713
aVnr
p714
aV15
p715
aV16
p716
aV16
p717
aV16
p718
aa(lp719
V05-11-2016
p720
aV8
aVnr
p721
aV12
p722
aV8
aVnr
p723
aV14
p724
aVnr
p725
aVnr
p726
aVnr
p727
aV12
p728
aV13
p729
aVnr
p730
aV10
p731
aV13
p732
aV13
p733
aVnr
p734
aV14
p735
aVnr
p736
aVnr
p737
aVnr
p738
aVnr
p739
aVnr
p740
aV14
p741
aV14
p742
aVnr
p743
aV14
p744
aV14
p745
aVnr
p746
aV15
p747
aV11
p748
aVnr
p749
aVnr
p750
aVnr
p751
aVnr
p752
aV13
p753
aVnr
p754
aV13
p755
aVnr
p756
aVnr
p757
aV15
p758
aV14
p759
aV13
p760
aV14
p761
aa(lp762
V05-11-2016
p763
aV9
aVnr
p764
aV13
p765
aV8
aVnr
p766
aV14
p767
aVnr
p768
aVnr
p769
aVnr
p770
aV13
p771
aV14
p772
aVnr
p773
aV10
p774
aV14
p775
aV14
p776
aVnr
p777
aV14
p778
aVnr
p779
aVnr
p780
aVnr
p781
aVnr
p782
aVnr
p783
aV14
p784
aV14
p785
aVnr
p786
aV14
p787
aV14
p788
aVnr
p789
aV16
p790
aV12
p791
aVnr
p792
aVnr
p793
aVnr
p794
aVnr
p795
aV14
p796
aVnr
p797
aV14
p798
aVnr
p799
aVnr
p800
aV15
p801
aV15
p802
aV14
p803
aV15
p804
aa(lp805
V07-11-2016
p806
aV8
aVnr
p807
aV13
p808
aV6
aVnr
p809
aV14
p810
aVnr
p811
aVnr
p812
aVnr
p813
aV9
aV11
p814
aVnr
p815
aV11
p816
aV7
aV9
aVnr
p817
aV15
p818
aVnr
p819
aVnr
p820
aVnr
p821
aVnr
p822
aVnr
p823
aV13
p824
aV14
p825
aVnr
p826
aV12
p827
aV13
p828
aVnr
p829
aV13
p830
aV12
p831
aVnr
p832
aVnr
p833
aVnr
p834
aVnr
p835
aV13
p836
aVnr
p837
aV12
p838
aVnr
p839
aVnr
p840
aV14
p841
aV13
p842
aV11
p843
aV13
p844
aa(lp845
V07-11-2016
p846
aV9
aVnr
p847
aV15
p848
aV10
p849
aVnr
p850
aV15
p851
aVnr
p852
aVnr
p853
aVnr
p854
aV14
p855
aV13
p856
aVnr
p857
aV13
p858
aV12
p859
aV14
p860
aV15
p861
aV16
p862
aVnr
p863
aVnr
p864
aVnr
p865
aVnr
p866
aVnr
p867
aV15
p868
aV16
p869
aVnr
p870
aV14
p871
aV15
p872
aVnr
p873
aVnr
p874
aV14
p875
aVnr
p876
aVnr
p877
aVnr
p878
aVnr
p879
aV14
p880
aVnr
p881
aV16
p882
aVnr
p883
aVnr
p884
aV15
p885
aV15
p886
aV13
p887
aV14
p888
aa(lp889
V07-11-2016
p890
aV10
p891
aVnr
p892
aV15
p893
aV14
p894
aVnr
p895
aV17
p896
aVnr
p897
aVnr
p898
aVnr
p899
aV17
p900
aV16
p901
aVnr
p902
aV15
p903
aV16
p904
aV20
p905
aVnr
p906
aV18
p907
aVnr
p908
aVnr
p909
aVnr
p910
aVnr
p911
aVnr
p912
aV17
p913
aV18
p914
aVnr
p915
aVnr
p916
aV17
p917
aVnr
p918
aVnr
p919
aV16
p920
aVnr
p921
aVnr
p922
aVnr
p923
aVnr
p924
aV16
p925
aVnr
p926
aV17
p927
aVnr
p928
aVnr
p929
aV17
p930
aV17
p931
aV16
p932
aV17
p933
aasS'co'
p934
(lp935
(lp936
V02-11-2016
p937
aV21
p938
aV0.1
p939
aV0.2
p940
aVnr
p941
aVnr
p942
aV0.5
p943
aVnr
p944
aV0.6
p945
aVnr
p946
aV0.4
p947
aVnr
p948
aV0.8
p949
aV0.6
p950
aVnr
p951
aV0.5
p952
aVnr
p953
aVnr
p954
aVnr
p955
aVnr
p956
aVnr
p957
aV0.0
p958
aV0.7
p959
aVnr
p960
aVnr
p961
aVnr
p962
aVnr
p963
aV0.5
p964
aV0.6
p965
aV0.7
p966
aV0.5
p967
aVnr
p968
aV0.9
p969
aVnr
p970
aV0.7
p971
aVnr
p972
aVnr
p973
aV0.2
p974
aVnr
p975
aVnr
p976
aV0.6
p977
aV0.5
p978
aVnr
p979
aV0.7
p980
aV0.6
p981
aVnr
p982
aV0.4
p983
aV1.2
p984
aa(lp985
V02-11-2016
p986
aV21
p987
aV0.1
p988
aV0.2
p989
aVnr
p990
aVnr
p991
aV0.5
p992
aVnr
p993
aV0.6
p994
aVnr
p995
aV0.4
p996
aVnr
p997
aV0.8
p998
aV0.6
p999
aVnr
p1000
aV0.5
p1001
aVnr
p1002
aVnr
p1003
aVnr
p1004
aVnr
p1005
aVnr
p1006
aV0.0
p1007
aV0.7
p1008
aVnr
p1009
aVnr
p1010
aVnr
p1011
aVnr
p1012
aV0.5
p1013
aV0.6
p1014
aV0.7
p1015
aV0.5
p1016
aVnr
p1017
aV0.9
p1018
aVnr
p1019
aV0.7
p1020
aVnr
p1021
aVnr
p1022
aV0.2
p1023
aVnr
p1024
aVnr
p1025
aV0.6
p1026
aV0.5
p1027
aVnr
p1028
aV0.7
p1029
aV0.6
p1030
aVnr
p1031
aV0.4
p1032
aV1.2
p1033
aa(lp1034
V02-11-2016
p1035
aV21
p1036
aV0.1
p1037
aV0.2
p1038
aVnr
p1039
aVnr
p1040
aV0.5
p1041
aVnr
p1042
aV0.6
p1043
aVnr
p1044
aV0.4
p1045
aVnr
p1046
aV0.8
p1047
aV0.6
p1048
aVnr
p1049
aV0.5
p1050
aVnr
p1051
aVnr
p1052
aVnr
p1053
aVnr
p1054
aVnr
p1055
aV0.0
p1056
aV0.7
p1057
aVnr
p1058
aVnr
p1059
aVnr
p1060
aVnr
p1061
aV0.5
p1062
aV0.6
p1063
aV0.7
p1064
aV0.5
p1065
aVnr
p1066
aV0.9
p1067
aVnr
p1068
aV0.7
p1069
aVnr
p1070
aVnr
p1071
aV0.2
p1072
aVnr
p1073
aVnr
p1074
aV0.6
p1075
aV0.5
p1076
aVnr
p1077
aV0.7
p1078
aV0.6
p1079
aVnr
p1080
aV0.4
p1081
aV1.2
p1082
aa(lp1083
V02-11-2016
p1084
aV21
p1085
aV0.1
p1086
aV0.2
p1087
aVnr
p1088
aVnr
p1089
aV0.5
p1090
aVnr
p1091
aV0.6
p1092
aVnr
p1093
aV0.4
p1094
aVnr
p1095
aV0.8
p1096
aV0.6
p1097
aVnr
p1098
aV0.5
p1099
aVnr
p1100
aVnr
p1101
aVnr
p1102
aVnr
p1103
aVnr
p1104
aV0.0
p1105
aV0.7
p1106
aVnr
p1107
aVnr
p1108
aVnr
p1109
aVnr
p1110
aV0.5
p1111
aV0.6
p1112
aV0.7
p1113
aV0.5
p1114
aVnr
p1115
aV0.9
p1116
aVnr
p1117
aV0.7
p1118
aVnr
p1119
aVnr
p1120
aV0.2
p1121
aVnr
p1122
aVnr
p1123
aV0.6
p1124
aV0.5
p1125
aVnr
p1126
aV0.7
p1127
aV0.6
p1128
aVnr
p1129
aV0.4
p1130
aV1.2
p1131
aa(lp1132
V02-11-2016
p1133
aV21
p1134
aV0.1
p1135
aV0.2
p1136
aVnr
p1137
aVnr
p1138
aV0.5
p1139
aVnr
p1140
aV0.6
p1141
aVnr
p1142
aV0.4
p1143
aVnr
p1144
aV0.8
p1145
aV0.6
p1146
aVnr
p1147
aV0.5
p1148
aVnr
p1149
aVnr
p1150
aVnr
p1151
aVnr
p1152
aVnr
p1153
aV0.0
p1154
aV0.7
p1155
aVnr
p1156
aVnr
p1157
aVnr
p1158
aVnr
p1159
aV0.5
p1160
aV0.6
p1161
aV0.7
p1162
aV0.5
p1163
aVnr
p1164
aV0.9
p1165
aVnr
p1166
aV0.7
p1167
aVnr
p1168
aVnr
p1169
aV0.2
p1170
aVnr
p1171
aVnr
p1172
aV0.6
p1173
aV0.5
p1174
aVnr
p1175
aV0.7
p1176
aV0.6
p1177
aVnr
p1178
aV0.4
p1179
aV1.2
p1180
aa(lp1181
V02-11-2016
p1182
aV21
p1183
aV0.1
p1184
aV0.2
p1185
aVnr
p1186
aVnr
p1187
aV0.5
p1188
aVnr
p1189
aV0.6
p1190
aVnr
p1191
aV0.4
p1192
aVnr
p1193
aV0.8
p1194
aV0.6
p1195
aVnr
p1196
aV0.5
p1197
aVnr
p1198
aVnr
p1199
aVnr
p1200
aVnr
p1201
aVnr
p1202
aV0.0
p1203
aV0.7
p1204
aVnr
p1205
aVnr
p1206
aVnr
p1207
aVnr
p1208
aV0.5
p1209
aV0.6
p1210
aV0.7
p1211
aV0.5
p1212
aVnr
p1213
aV0.9
p1214
aVnr
p1215
aV0.7
p1216
aVnr
p1217
aVnr
p1218
aV0.2
p1219
aVnr
p1220
aVnr
p1221
aV0.6
p1222
aV0.5
p1223
aVnr
p1224
aV0.7
p1225
aV0.6
p1226
aVnr
p1227
aV0.4
p1228
aV1.2
p1229
aa(lp1230
V02-11-2016
p1231
aV21
p1232
aV0.1
p1233
aV0.2
p1234
aVnr
p1235
aVnr
p1236
aV0.5
p1237
aVnr
p1238
aV0.6
p1239
aVnr
p1240
aV0.4
p1241
aVnr
p1242
aV0.8
p1243
aV0.6
p1244
aVnr
p1245
aV0.5
p1246
aVnr
p1247
aVnr
p1248
aVnr
p1249
aVnr
p1250
aVnr
p1251
aV0.0
p1252
aV0.7
p1253
aVnr
p1254
aVnr
p1255
aVnr
p1256
aVnr
p1257
aV0.5
p1258
aV0.6
p1259
aV0.7
p1260
aV0.5
p1261
aVnr
p1262
aV0.9
p1263
aVnr
p1264
aV0.7
p1265
aVnr
p1266
aVnr
p1267
aV0.2
p1268
aVnr
p1269
aVnr
p1270
aV0.6
p1271
aV0.5
p1272
aVnr
p1273
aV0.7
p1274
aV0.6
p1275
aVnr
p1276
aV0.4
p1277
aV1.2
p1278
aa(lp1279
V02-11-2016
p1280
aV21
p1281
aV0.1
p1282
aV0.2
p1283
aVnr
p1284
aVnr
p1285
aV0.5
p1286
aVnr
p1287
aV0.6
p1288
aVnr
p1289
aV0.4
p1290
aVnr
p1291
aV0.8
p1292
aV0.6
p1293
aVnr
p1294
aV0.5
p1295
aVnr
p1296
aVnr
p1297
aVnr
p1298
aVnr
p1299
aVnr
p1300
aV0.0
p1301
aV0.7
p1302
aVnr
p1303
aVnr
p1304
aVnr
p1305
aVnr
p1306
aV0.5
p1307
aV0.6
p1308
aV0.7
p1309
aV0.5
p1310
aVnr
p1311
aV0.9
p1312
aVnr
p1313
aV0.7
p1314
aVnr
p1315
aVnr
p1316
aV0.2
p1317
aVnr
p1318
aVnr
p1319
aV0.6
p1320
aV0.5
p1321
aVnr
p1322
aV0.7
p1323
aV0.6
p1324
aVnr
p1325
aV0.4
p1326
aV1.2
p1327
aa(lp1328
V02-11-2016
p1329
aV22
p1330
aV0.3
p1331
aV0.2
p1332
aVnr
p1333
aVnr
p1334
aV0.6
p1335
aVnr
p1336
aV0.7
p1337
aVnr
p1338
aV0.6
p1339
aVnr
p1340
aV0.9
p1341
aV0.6
p1342
aVnr
p1343
aV0.5
p1344
aVnr
p1345
aVnr
p1346
aVnr
p1347
aVnr
p1348
aVnr
p1349
aV0.1
p1350
aV0.8
p1351
aVnr
p1352
aVnr
p1353
aV0.8
p1354
aVnr
p1355
aVnr
p1356
aV0.5
p1357
aV0.5
p1358
aV0.5
p1359
aVnr
p1360
aV0.9
p1361
aVnr
p1362
aVnr
p1363
aVnr
p1364
aVnr
p1365
aV0.2
p1366
aVnr
p1367
aVnr
p1368
aV0.6
p1369
aV0.4
p1370
aVnr
p1371
aV0.5
p1372
aV0.6
p1373
aVnr
p1374
aV0.5
p1375
aV1.0
p1376
aa(lp1377
V02-11-2016
p1378
aV22
p1379
aV0.3
p1380
aV0.2
p1381
aVnr
p1382
aVnr
p1383
aV0.6
p1384
aVnr
p1385
aV0.7
p1386
aVnr
p1387
aV0.6
p1388
aVnr
p1389
aV0.9
p1390
aV0.6
p1391
aVnr
p1392
aV0.5
p1393
aVnr
p1394
aVnr
p1395
aVnr
p1396
aVnr
p1397
aVnr
p1398
aV0.1
p1399
aV0.8
p1400
aVnr
p1401
aVnr
p1402
aV0.8
p1403
aVnr
p1404
aVnr
p1405
aV0.5
p1406
aV0.5
p1407
aV0.5
p1408
aVnr
p1409
aV0.9
p1410
aVnr
p1411
aVnr
p1412
aVnr
p1413
aVnr
p1414
aV0.2
p1415
aVnr
p1416
aVnr
p1417
aV0.6
p1418
aV0.4
p1419
aVnr
p1420
aV0.5
p1421
aV0.6
p1422
aVnr
p1423
aV0.5
p1424
aV1.0
p1425
aa(lp1426
V02-11-2016
p1427
aV22
p1428
aV0.3
p1429
aV0.2
p1430
aVnr
p1431
aVnr
p1432
aV0.6
p1433
aVnr
p1434
aV0.7
p1435
aVnr
p1436
aV0.6
p1437
aVnr
p1438
aV0.9
p1439
aV0.6
p1440
aVnr
p1441
aV0.5
p1442
aVnr
p1443
aVnr
p1444
aVnr
p1445
aVnr
p1446
aVnr
p1447
aV0.1
p1448
aV0.8
p1449
aVnr
p1450
aVnr
p1451
aV0.8
p1452
aVnr
p1453
aVnr
p1454
aV0.5
p1455
aV0.5
p1456
aV0.5
p1457
aVnr
p1458
aV0.9
p1459
aVnr
p1460
aVnr
p1461
aVnr
p1462
aVnr
p1463
aV0.2
p1464
aVnr
p1465
aVnr
p1466
aV0.6
p1467
aV0.4
p1468
aVnr
p1469
aV0.5
p1470
aV0.6
p1471
aVnr
p1472
aV0.5
p1473
aV1.0
p1474
aa(lp1475
V02-11-2016
p1476
aV23
p1477
aV0.5
p1478
aV0.2
p1479
aVnr
p1480
aVnr
p1481
aV0.7
p1482
aVnr
p1483
aV0.9
p1484
aVnr
p1485
aV0.6
p1486
aVnr
p1487
aV0.8
p1488
aV1.0
p1489
aVnr
p1490
aV0.6
p1491
aVnr
p1492
aVnr
p1493
aVnr
p1494
aVnr
p1495
aVnr
p1496
aV0.1
p1497
aV1.0
p1498
aVnr
p1499
aVnr
p1500
aV0.7
p1501
aVnr
p1502
aV0.7
p1503
aV0.2
p1504
aV0.6
p1505
aV0.4
p1506
aVnr
p1507
aV0.9
p1508
aVnr
p1509
aV0.7
p1510
aVnr
p1511
aVnr
p1512
aV0.3
p1513
aVnr
p1514
aVnr
p1515
aV0.6
p1516
aV0.4
p1517
aVnr
p1518
aV0.8
p1519
aV0.8
p1520
aVnr
p1521
aV0.5
p1522
aV1.1
p1523
aa(lp1524
V02-11-2016
p1525
aV23
p1526
aV0.5
p1527
aV0.2
p1528
aVnr
p1529
aVnr
p1530
aV0.7
p1531
aVnr
p1532
aV0.9
p1533
aVnr
p1534
aV0.6
p1535
aVnr
p1536
aV0.8
p1537
aV1.0
p1538
aVnr
p1539
aV0.6
p1540
aVnr
p1541
aVnr
p1542
aVnr
p1543
aVnr
p1544
aVnr
p1545
aV0.1
p1546
aV1.0
p1547
aVnr
p1548
aVnr
p1549
aV0.7
p1550
aVnr
p1551
aV0.7
p1552
aV0.2
p1553
aV0.6
p1554
aV0.4
p1555
aVnr
p1556
aV0.9
p1557
aVnr
p1558
aV0.7
p1559
aVnr
p1560
aVnr
p1561
aV0.3
p1562
aVnr
p1563
aVnr
p1564
aV0.6
p1565
aV0.4
p1566
aVnr
p1567
aV0.8
p1568
aV0.8
p1569
aVnr
p1570
aV0.5
p1571
aV1.1
p1572
aa(lp1573
V02-11-2016
p1574
aV23
p1575
aV0.5
p1576
aV0.2
p1577
aVnr
p1578
aVnr
p1579
aV0.7
p1580
aVnr
p1581
aV0.9
p1582
aVnr
p1583
aV0.6
p1584
aVnr
p1585
aV0.8
p1586
aV1.0
p1587
aVnr
p1588
aV0.6
p1589
aVnr
p1590
aVnr
p1591
aVnr
p1592
aVnr
p1593
aVnr
p1594
aV0.1
p1595
aV1.0
p1596
aVnr
p1597
aVnr
p1598
aV0.7
p1599
aVnr
p1600
aV0.7
p1601
aV0.2
p1602
aV0.6
p1603
aV0.4
p1604
aVnr
p1605
aV0.9
p1606
aVnr
p1607
aV0.7
p1608
aVnr
p1609
aVnr
p1610
aV0.3
p1611
aVnr
p1612
aVnr
p1613
aV0.6
p1614
aV0.4
p1615
aVnr
p1616
aV0.8
p1617
aV0.8
p1618
aVnr
p1619
aV0.5
p1620
aV1.1
p1621
aa(lp1622
V02-11-2016
p1623
aV23
p1624
aV0.5
p1625
aV0.2
p1626
aVnr
p1627
aVnr
p1628
aV0.7
p1629
aVnr
p1630
aV0.9
p1631
aVnr
p1632
aV0.6
p1633
aVnr
p1634
aV0.8
p1635
aV1.0
p1636
aVnr
p1637
aV0.6
p1638
aVnr
p1639
aVnr
p1640
aVnr
p1641
aVnr
p1642
aVnr
p1643
aV0.1
p1644
aV1.0
p1645
aVnr
p1646
aVnr
p1647
aV0.7
p1648
aVnr
p1649
aV0.7
p1650
aV0.2
p1651
aV0.6
p1652
aV0.4
p1653
aVnr
p1654
aV0.9
p1655
aVnr
p1656
aV0.7
p1657
aVnr
p1658
aVnr
p1659
aV0.3
p1660
aVnr
p1661
aVnr
p1662
aV0.6
p1663
aV0.4
p1664
aVnr
p1665
aV0.8
p1666
aV0.8
p1667
aVnr
p1668
aV0.5
p1669
aV1.1
p1670
aa(lp1671
V02-11-2016
p1672
aV24
p1673
aV0.5
p1674
aV0.3
p1675
aVnr
p1676
aVnr
p1677
aV0.4
p1678
aVnr
p1679
aV1.0
p1680
aVnr
p1681
aV0.6
p1682
aVnr
p1683
aV0.7
p1684
aV0.9
p1685
aVnr
p1686
aV0.6
p1687
aVnr
p1688
aVnr
p1689
aVnr
p1690
aVnr
p1691
aVnr
p1692
aV0.1
p1693
aV1.3
p1694
aVnr
p1695
aVnr
p1696
aV0.7
p1697
aVnr
p1698
aV0.7
p1699
aV0.3
p1700
aV0.6
p1701
aV0.5
p1702
aVnr
p1703
aV0.9
p1704
aVnr
p1705
aV0.8
p1706
aVnr
p1707
aVnr
p1708
aV0.5
p1709
aVnr
p1710
aVnr
p1711
aV0.9
p1712
aV0.3
p1713
aVnr
p1714
aV0.8
p1715
aV0.9
p1716
aVnr
p1717
aV0.6
p1718
aV1.2
p1719
aa(lp1720
V05-11-2016
p1721
aV8
aVnr
p1722
aV0.4
p1723
aVnr
p1724
aVnr
p1725
aV0.4
p1726
aVnr
p1727
aV0.6
p1728
aV0.7
p1729
aV0.5
p1730
aVnr
p1731
aV0.4
p1732
aV0.7
p1733
aVnr
p1734
aV0.4
p1735
aVnr
p1736
aV0.3
p1737
aVnr
p1738
aV0.2
p1739
aVnr
p1740
aV0.0
p1741
aV0.7
p1742
aVnr
p1743
aVnr
p1744
aVnr
p1745
aV1.2
p1746
aV0.6
p1747
aV0.3
p1748
aV0.4
p1749
aV0.5
p1750
aVnr
p1751
aV0.6
p1752
aVnr
p1753
aV0.6
p1754
aVnr
p1755
aVnr
p1756
aV0.4
p1757
aVnr
p1758
aVnr
p1759
aV0.7
p1760
aV0.0
p1761
aVnr
p1762
aV0.3
p1763
aV0.6
p1764
aVnr
p1765
aV0.3
p1766
aV0.5
p1767
aa(lp1768
V05-11-2016
p1769
aV9
aVnr
p1770
aV0.3
p1771
aVnr
p1772
aVnr
p1773
aV0.2
p1774
aVnr
p1775
aV0.5
p1776
aV0.6
p1777
aV0.4
p1778
aVnr
p1779
aV0.3
p1780
aV0.5
p1781
aVnr
p1782
aV0.4
p1783
aVnr
p1784
aV0.2
p1785
aVnr
p1786
aV0.2
p1787
aVnr
p1788
aV0.0
p1789
aV0.7
p1790
aVnr
p1791
aVnr
p1792
aV0.5
p1793
aV1.0
p1794
aV0.5
p1795
aV0.3
p1796
aV0.3
p1797
aV0.4
p1798
aVnr
p1799
aV0.7
p1800
aVnr
p1801
aV0.6
p1802
aVnr
p1803
aVnr
p1804
aV0.4
p1805
aVnr
p1806
aVnr
p1807
aV0.7
p1808
aV0.1
p1809
aVnr
p1810
aV0.3
p1811
aV0.6
p1812
aVnr
p1813
aV0.3
p1814
aV0.6
p1815
aa(lp1816
V07-11-2016
p1817
aV8
aV0.7
p1818
aV0.6
p1819
aVnr
p1820
aVnr
p1821
aV1.9
p1822
aVnr
p1823
aV1.7
p1824
aV2.5
p1825
aV1.4
p1826
aVnr
p1827
aV2.1
p1828
aV2.3
p1829
aVnr
p1830
aV1.4
p1831
aVnr
p1832
aV3.1
p1833
aVnr
p1834
aV1.6
p1835
aVnr
p1836
aV0.0
p1837
aV2.3
p1838
aVnr
p1839
aVnr
p1840
aV2.3
p1841
aV2.2
p1842
aV2.0
p1843
aV0.5
p1844
aV1.1
p1845
aV1.2
p1846
aVnr
p1847
aV2.0
p1848
aVnr
p1849
aV2.5
p1850
aVnr
p1851
aVnr
p1852
aV1.1
p1853
aVnr
p1854
aVnr
p1855
aV2.3
p1856
aV1.8
p1857
aVnr
p1858
aV1.3
p1859
aV1.2
p1860
aVnr
p1861
aV1.2
p1862
aV3.4
p1863
aa(lp1864
V07-11-2016
p1865
aV9
aV0.6
p1866
aV0.8
p1867
aVnr
p1868
aVnr
p1869
aV1.1
p1870
aVnr
p1871
aV1.8
p1872
aV1.9
p1873
aV1.8
p1874
aVnr
p1875
aV1.4
p1876
aV1.5
p1877
aVnr
p1878
aV1.0
p1879
aVnr
p1880
aV1.9
p1881
aVnr
p1882
aV1.6
p1883
aVnr
p1884
aV0.1
p1885
aV2.2
p1886
aVnr
p1887
aVnr
p1888
aV2.1
p1889
aV2.3
p1890
aV2.2
p1891
aV0.4
p1892
aV0.9
p1893
aV1.0
p1894
aVnr
p1895
aVnr
p1896
aVnr
p1897
aV2.1
p1898
aVnr
p1899
aVnr
p1900
aV1.3
p1901
aVnr
p1902
aVnr
p1903
aV1.7
p1904
aV1.6
p1905
aVnr
p1906
aV1.2
p1907
aV1.4
p1908
aVnr
p1909
aV1.0
p1910
aV3.0
p1911
aa(lp1912
V07-11-2016
p1913
aV10
p1914
aV0.4
p1915
aV0.9
p1916
aVnr
p1917
aVnr
p1918
aV1.0
p1919
aVnr
p1920
aV1.5
p1921
aVnr
p1922
aV1.4
p1923
aVnr
p1924
aV0.7
p1925
aV0.7
p1926
aVnr
p1927
aV0.8
p1928
aVnr
p1929
aV2.0
p1930
aVnr
p1931
aV1.2
p1932
aVnr
p1933
aV0.1
p1934
aV1.8
p1935
aVnr
p1936
aVnr
p1937
aVnr
p1938
aV1.4
p1939
aV1.7
p1940
aV0.4
p1941
aVnr
p1942
aV1.1
p1943
aVnr
p1944
aVnr
p1945
aVnr
p1946
aV1.0
p1947
aVnr
p1948
aVnr
p1949
aV0.7
p1950
aVnr
p1951
aVnr
p1952
aV1.3
p1953
aV1.2
p1954
aVnr
p1955
aV0.8
p1956
aV1.2
p1957
aVnr
p1958
aV0.9
p1959
aV2.1
p1960
aasS'pm2'
p1961
(lp1962
(lp1963
V02-11-2016
p1964
aV21
p1965
aVnr
p1966
aV9
aV3
aVnr
p1967
aV17
p1968
aVnr
p1969
aV11
p1970
aVnr
p1971
aVnr
p1972
aV23
p1973
aVnr
p1974
aVnr
p1975
aVnr
p1976
aVnr
p1977
aV21
p1978
aV14
p1979
aVnr
p1980
aVnr
p1981
aVnr
p1982
aVnr
p1983
aV13
p1984
aV28
p1985
aVnr
p1986
aVnr
p1987
aV12
p1988
aVnr
p1989
aVnr
p1990
aVnr
p1991
aVnr
p1992
aVnr
p1993
aV13
p1994
aVnr
p1995
aVnr
p1996
aV22
p1997
aVnr
p1998
aVnr
p1999
aV7
aa(lp2000
V02-11-2016
p2001
aV21
p2002
aVnr
p2003
aV9
aV3
aVnr
p2004
aV17
p2005
aVnr
p2006
aV11
p2007
aVnr
p2008
aVnr
p2009
aV23
p2010
aVnr
p2011
aVnr
p2012
aVnr
p2013
aVnr
p2014
aV21
p2015
aV14
p2016
aVnr
p2017
aVnr
p2018
aVnr
p2019
aVnr
p2020
aV13
p2021
aV28
p2022
aVnr
p2023
aVnr
p2024
aV12
p2025
aVnr
p2026
aVnr
p2027
aVnr
p2028
aVnr
p2029
aVnr
p2030
aV13
p2031
aVnr
p2032
aVnr
p2033
aV22
p2034
aVnr
p2035
aVnr
p2036
aV7
aa(lp2037
V02-11-2016
p2038
aV21
p2039
aVnr
p2040
aV9
aV3
aVnr
p2041
aV17
p2042
aVnr
p2043
aV11
p2044
aVnr
p2045
aVnr
p2046
aV23
p2047
aVnr
p2048
aVnr
p2049
aVnr
p2050
aVnr
p2051
aV21
p2052
aV14
p2053
aVnr
p2054
aVnr
p2055
aVnr
p2056
aVnr
p2057
aV13
p2058
aV28
p2059
aVnr
p2060
aVnr
p2061
aV12
p2062
aVnr
p2063
aVnr
p2064
aVnr
p2065
aVnr
p2066
aVnr
p2067
aV13
p2068
aVnr
p2069
aVnr
p2070
aV22
p2071
aVnr
p2072
aVnr
p2073
aV7
aa(lp2074
V02-11-2016
p2075
aV21
p2076
aVnr
p2077
aV9
aV3
aVnr
p2078
aV17
p2079
aVnr
p2080
aV11
p2081
aVnr
p2082
aVnr
p2083
aV23
p2084
aVnr
p2085
aVnr
p2086
aVnr
p2087
aVnr
p2088
aV21
p2089
aV14
p2090
aVnr
p2091
aVnr
p2092
aVnr
p2093
aVnr
p2094
aV13
p2095
aV28
p2096
aVnr
p2097
aVnr
p2098
aV12
p2099
aVnr
p2100
aVnr
p2101
aVnr
p2102
aVnr
p2103
aVnr
p2104
aV13
p2105
aVnr
p2106
aVnr
p2107
aV22
p2108
aVnr
p2109
aVnr
p2110
aV7
aa(lp2111
V02-11-2016
p2112
aV21
p2113
aVnr
p2114
aV9
aV3
aVnr
p2115
aV17
p2116
aVnr
p2117
aV11
p2118
aVnr
p2119
aVnr
p2120
aV23
p2121
aVnr
p2122
aVnr
p2123
aVnr
p2124
aVnr
p2125
aV21
p2126
aV14
p2127
aVnr
p2128
aVnr
p2129
aVnr
p2130
aVnr
p2131
aV13
p2132
aV28
p2133
aVnr
p2134
aVnr
p2135
aV12
p2136
aVnr
p2137
aVnr
p2138
aVnr
p2139
aVnr
p2140
aVnr
p2141
aV13
p2142
aVnr
p2143
aVnr
p2144
aV22
p2145
aVnr
p2146
aVnr
p2147
aV7
aa(lp2148
V02-11-2016
p2149
aV21
p2150
aVnr
p2151
aV9
aV3
aVnr
p2152
aV17
p2153
aVnr
p2154
aV11
p2155
aVnr
p2156
aVnr
p2157
aV23
p2158
aVnr
p2159
aVnr
p2160
aVnr
p2161
aVnr
p2162
aV21
p2163
aV14
p2164
aVnr
p2165
aVnr
p2166
aVnr
p2167
aVnr
p2168
aV13
p2169
aV28
p2170
aVnr
p2171
aVnr
p2172
aV12
p2173
aVnr
p2174
aVnr
p2175
aVnr
p2176
aVnr
p2177
aVnr
p2178
aV13
p2179
aVnr
p2180
aVnr
p2181
aV22
p2182
aVnr
p2183
aVnr
p2184
aV7
aa(lp2185
V02-11-2016
p2186
aV21
p2187
aVnr
p2188
aV9
aV3
aVnr
p2189
aV17
p2190
aVnr
p2191
aV11
p2192
aVnr
p2193
aVnr
p2194
aV23
p2195
aVnr
p2196
aVnr
p2197
aVnr
p2198
aVnr
p2199
aV21
p2200
aV14
p2201
aVnr
p2202
aVnr
p2203
aVnr
p2204
aVnr
p2205
aV13
p2206
aV28
p2207
aVnr
p2208
aVnr
p2209
aV12
p2210
aVnr
p2211
aVnr
p2212
aVnr
p2213
aVnr
p2214
aVnr
p2215
aV13
p2216
aVnr
p2217
aVnr
p2218
aV22
p2219
aVnr
p2220
aVnr
p2221
aV7
aa(lp2222
V02-11-2016
p2223
aV21
p2224
aVnr
p2225
aV9
aV3
aVnr
p2226
aV17
p2227
aVnr
p2228
aV11
p2229
aVnr
p2230
aVnr
p2231
aV23
p2232
aVnr
p2233
aVnr
p2234
aVnr
p2235
aVnr
p2236
aV21
p2237
aV14
p2238
aVnr
p2239
aVnr
p2240
aVnr
p2241
aVnr
p2242
aV13
p2243
aV28
p2244
aVnr
p2245
aVnr
p2246
aV12
p2247
aVnr
p2248
aVnr
p2249
aVnr
p2250
aVnr
p2251
aVnr
p2252
aV13
p2253
aVnr
p2254
aVnr
p2255
aV22
p2256
aVnr
p2257
aVnr
p2258
aV7
aa(lp2259
V02-11-2016
p2260
aV22
p2261
aVnr
p2262
aV5
aV6
aVnr
p2263
aV15
p2264
aVnr
p2265
aV6
aVnr
p2266
aVnr
p2267
aV20
p2268
aVnr
p2269
aVnr
p2270
aVnr
p2271
aVnr
p2272
aV21
p2273
aV7
aVnr
p2274
aVnr
p2275
aVnr
p2276
aVnr
p2277
aVnr
p2278
aV39
p2279
aVnr
p2280
aVnr
p2281
aV15
p2282
aVnr
p2283
aVnr
p2284
aVnr
p2285
aVnr
p2286
aVnr
p2287
aV15
p2288
aVnr
p2289
aVnr
p2290
aV18
p2291
aVnr
p2292
aVnr
p2293
aV20
p2294
aa(lp2295
V02-11-2016
p2296
aV22
p2297
aVnr
p2298
aV5
aV6
aVnr
p2299
aV15
p2300
aVnr
p2301
aV6
aVnr
p2302
aVnr
p2303
aV20
p2304
aVnr
p2305
aVnr
p2306
aVnr
p2307
aVnr
p2308
aV21
p2309
aV7
aVnr
p2310
aVnr
p2311
aVnr
p2312
aVnr
p2313
aVnr
p2314
aV39
p2315
aVnr
p2316
aVnr
p2317
aV15
p2318
aVnr
p2319
aVnr
p2320
aVnr
p2321
aVnr
p2322
aVnr
p2323
aV15
p2324
aVnr
p2325
aVnr
p2326
aV18
p2327
aVnr
p2328
aVnr
p2329
aV20
p2330
aa(lp2331
V02-11-2016
p2332
aV22
p2333
aVnr
p2334
aV5
aV6
aVnr
p2335
aV15
p2336
aVnr
p2337
aV6
aVnr
p2338
aVnr
p2339
aV20
p2340
aVnr
p2341
aVnr
p2342
aVnr
p2343
aVnr
p2344
aV21
p2345
aV7
aVnr
p2346
aVnr
p2347
aVnr
p2348
aVnr
p2349
aVnr
p2350
aV39
p2351
aVnr
p2352
aVnr
p2353
aV15
p2354
aVnr
p2355
aVnr
p2356
aVnr
p2357
aVnr
p2358
aVnr
p2359
aV15
p2360
aVnr
p2361
aVnr
p2362
aV18
p2363
aVnr
p2364
aVnr
p2365
aV20
p2366
aa(lp2367
V02-11-2016
p2368
aV23
p2369
aVnr
p2370
aV2
aV4
aVnr
p2371
aV12
p2372
aVnr
p2373
aV8
aVnr
p2374
aVnr
p2375
aV17
p2376
aVnr
p2377
aVnr
p2378
aVnr
p2379
aVnr
p2380
aV17
p2381
aV7
aVnr
p2382
aVnr
p2383
aVnr
p2384
aVnr
p2385
aV9
aV30
p2386
aVnr
p2387
aVnr
p2388
aV20
p2389
aVnr
p2390
aVnr
p2391
aVnr
p2392
aVnr
p2393
aVnr
p2394
aV14
p2395
aVnr
p2396
aVnr
p2397
aV21
p2398
aVnr
p2399
aVnr
p2400
aV21
p2401
aa(lp2402
V02-11-2016
p2403
aV23
p2404
aVnr
p2405
aV2
aV4
aVnr
p2406
aV12
p2407
aVnr
p2408
aV8
aVnr
p2409
aVnr
p2410
aV17
p2411
aVnr
p2412
aVnr
p2413
aVnr
p2414
aVnr
p2415
aV17
p2416
aV7
aVnr
p2417
aVnr
p2418
aVnr
p2419
aVnr
p2420
aV9
aV30
p2421
aVnr
p2422
aVnr
p2423
aV20
p2424
aVnr
p2425
aVnr
p2426
aVnr
p2427
aVnr
p2428
aVnr
p2429
aV14
p2430
aVnr
p2431
aVnr
p2432
aV21
p2433
aVnr
p2434
aVnr
p2435
aV21
p2436
aa(lp2437
V02-11-2016
p2438
aV23
p2439
aVnr
p2440
aV2
aV4
aVnr
p2441
aV12
p2442
aVnr
p2443
aV8
aVnr
p2444
aVnr
p2445
aV17
p2446
aVnr
p2447
aVnr
p2448
aVnr
p2449
aVnr
p2450
aV17
p2451
aV7
aVnr
p2452
aVnr
p2453
aVnr
p2454
aVnr
p2455
aV9
aV30
p2456
aVnr
p2457
aVnr
p2458
aV20
p2459
aVnr
p2460
aVnr
p2461
aVnr
p2462
aVnr
p2463
aVnr
p2464
aV14
p2465
aVnr
p2466
aVnr
p2467
aV21
p2468
aVnr
p2469
aVnr
p2470
aV21
p2471
aa(lp2472
V02-11-2016
p2473
aV23
p2474
aVnr
p2475
aV2
aV4
aVnr
p2476
aV12
p2477
aVnr
p2478
aV8
aVnr
p2479
aVnr
p2480
aV17
p2481
aVnr
p2482
aVnr
p2483
aVnr
p2484
aVnr
p2485
aV17
p2486
aV7
aVnr
p2487
aVnr
p2488
aVnr
p2489
aVnr
p2490
aV9
aV30
p2491
aVnr
p2492
aVnr
p2493
aV20
p2494
aVnr
p2495
aVnr
p2496
aVnr
p2497
aVnr
p2498
aVnr
p2499
aV14
p2500
aVnr
p2501
aVnr
p2502
aV21
p2503
aVnr
p2504
aVnr
p2505
aV21
p2506
aa(lp2507
V02-11-2016
p2508
aV24
p2509
aVnr
p2510
aV6
aV1
aVnr
p2511
aV11
p2512
aVnr
p2513
aV10
p2514
aVnr
p2515
aVnr
p2516
aV16
p2517
aVnr
p2518
aVnr
p2519
aVnr
p2520
aVnr
p2521
aV16
p2522
aV8
aVnr
p2523
aVnr
p2524
aVnr
p2525
aVnr
p2526
aV7
aV9
aVnr
p2527
aVnr
p2528
aV20
p2529
aVnr
p2530
aVnr
p2531
aVnr
p2532
aVnr
p2533
aVnr
p2534
aV17
p2535
aVnr
p2536
aVnr
p2537
aV5
aVnr
p2538
aVnr
p2539
aV14
p2540
aa(lp2541
V05-11-2016
p2542
aV8
aVnr
p2543
aV7
aV6
aVnr
p2544
aV7
aV17
p2545
aV9
aVnr
p2546
aVnr
p2547
aV7
aVnr
p2548
aVnr
p2549
aVnr
p2550
aVnr
p2551
aV14
p2552
aV4
aVnr
p2553
aVnr
p2554
aVnr
p2555
aV7
aV12
p2556
aV7
aV3
aVnr
p2557
aV5
aVnr
p2558
aVnr
p2559
aVnr
p2560
aVnr
p2561
aVnr
p2562
aV5
aVnr
p2563
aVnr
p2564
aV3
aVnr
p2565
aVnr
p2566
aV6
aa(lp2567
V05-11-2016
p2568
aV9
aVnr
p2569
aV8
aV4
aVnr
p2570
aV11
p2571
aV13
p2572
aV8
aVnr
p2573
aVnr
p2574
aV13
p2575
aVnr
p2576
aVnr
p2577
aVnr
p2578
aVnr
p2579
aV15
p2580
aV2
aVnr
p2581
aVnr
p2582
aVnr
p2583
aV30
p2584
aV8
aV8
aV7
aVnr
p2585
aV6
aVnr
p2586
aVnr
p2587
aVnr
p2588
aVnr
p2589
aVnr
p2590
aVnr
p2591
aVnr
p2592
aVnr
p2593
aV7
aVnr
p2594
aVnr
p2595
aV9
aa(lp2596
V07-11-2016
p2597
aV8
aVnr
p2598
aV7
aV8
aVnr
p2599
aV16
p2600
aVnr
p2601
aV10
p2602
aVnr
p2603
aVnr
p2604
aV18
p2605
aVnr
p2606
aVnr
p2607
aVnr
p2608
aVnr
p2609
aV24
p2610
aV18
p2611
aVnr
p2612
aVnr
p2613
aVnr
p2614
aV7
aV33
p2615
aV14
p2616
aV17
p2617
aVnr
p2618
aV24
p2619
aVnr
p2620
aVnr
p2621
aVnr
p2622
aVnr
p2623
aVnr
p2624
aV10
p2625
aVnr
p2626
aVnr
p2627
aV20
p2628
aVnr
p2629
aVnr
p2630
aV33
p2631
aa(lp2632
V07-11-2016
p2633
aV9
aVnr
p2634
aV18
p2635
aV10
p2636
aVnr
p2637
aV19
p2638
aV25
p2639
aV10
p2640
aVnr
p2641
aVnr
p2642
aV22
p2643
aVnr
p2644
aVnr
p2645
aVnr
p2646
aV0
aV24
p2647
aV13
p2648
aVnr
p2649
aVnr
p2650
aVnr
p2651
aV31
p2652
aV27
p2653
aV13
p2654
aV16
p2655
aVnr
p2656
aVnr
p2657
aVnr
p2658
aVnr
p2659
aVnr
p2660
aVnr
p2661
aVnr
p2662
aV11
p2663
aVnr
p2664
aVnr
p2665
aV19
p2666
aVnr
p2667
aVnr
p2668
aV51
p2669
aa(lp2670
V07-11-2016
p2671
aV10
p2672
aVnr
p2673
aV19
p2674
aV7
aVnr
p2675
aV27
p2676
aVnr
p2677
aV18
p2678
aVnr
p2679
aVnr
p2680
aV25
p2681
aVnr
p2682
aVnr
p2683
aVnr
p2684
aVnr
p2685
aV31
p2686
aV11
p2687
aVnr
p2688
aVnr
p2689
aVnr
p2690
aV30
p2691
aV28
p2692
aV17
p2693
aVnr
p2694
aVnr
p2695
aVnr
p2696
aVnr
p2697
aVnr
p2698
aVnr
p2699
aVnr
p2700
aVnr
p2701
aV10
p2702
aVnr
p2703
aVnr
p2704
aV13
p2705
aVnr
p2706
aVnr
p2707
aV54
p2708
aasS'pm10'
p2709
(lp2710
(lp2711
V02-11-2016
p2712
aV21
p2713
aV27
p2714
aV12
p2715
aVnr
p2716
aV24
p2717
aV22
p2718
aVnr
p2719
aVnr
p2720
aVnr
p2721
aVnr
p2722
aV46
p2723
aVnr
p2724
aV17
p2725
aV41
p2726
aVnr
p2727
aVnr
p2728
aV26
p2729
aV16
p2730
aV29
p2731
aVnr
p2732
aVnr
p2733
aVnr
p2734
aVnr
p2735
aV17
p2736
aV33
p2737
aVnr
p2738
aVnr
p2739
aVnr
p2740
aV27
p2741
aVnr
p2742
aVnr
p2743
aVnr
p2744
aVnr
p2745
aVnr
p2746
aVnr
p2747
aV21
p2748
aV33
p2749
aVnr
p2750
aVnr
p2751
aVnr
p2752
aV41
p2753
aV32
p2754
aa(lp2755
V02-11-2016
p2756
aV21
p2757
aV27
p2758
aV12
p2759
aVnr
p2760
aV24
p2761
aV22
p2762
aVnr
p2763
aVnr
p2764
aVnr
p2765
aVnr
p2766
aV46
p2767
aVnr
p2768
aV17
p2769
aV41
p2770
aVnr
p2771
aVnr
p2772
aV26
p2773
aV16
p2774
aV29
p2775
aVnr
p2776
aVnr
p2777
aVnr
p2778
aVnr
p2779
aV17
p2780
aV33
p2781
aVnr
p2782
aVnr
p2783
aVnr
p2784
aV27
p2785
aVnr
p2786
aVnr
p2787
aVnr
p2788
aVnr
p2789
aVnr
p2790
aVnr
p2791
aV21
p2792
aV33
p2793
aVnr
p2794
aVnr
p2795
aVnr
p2796
aV41
p2797
aV32
p2798
aa(lp2799
V02-11-2016
p2800
aV21
p2801
aV27
p2802
aV12
p2803
aVnr
p2804
aV24
p2805
aV22
p2806
aVnr
p2807
aVnr
p2808
aVnr
p2809
aVnr
p2810
aV46
p2811
aVnr
p2812
aV17
p2813
aV41
p2814
aVnr
p2815
aVnr
p2816
aV26
p2817
aV16
p2818
aV29
p2819
aVnr
p2820
aVnr
p2821
aVnr
p2822
aVnr
p2823
aV17
p2824
aV33
p2825
aVnr
p2826
aVnr
p2827
aVnr
p2828
aV27
p2829
aVnr
p2830
aVnr
p2831
aVnr
p2832
aVnr
p2833
aVnr
p2834
aVnr
p2835
aV21
p2836
aV33
p2837
aVnr
p2838
aVnr
p2839
aVnr
p2840
aV41
p2841
aV32
p2842
aa(lp2843
V02-11-2016
p2844
aV21
p2845
aV27
p2846
aV12
p2847
aVnr
p2848
aV24
p2849
aV22
p2850
aVnr
p2851
aVnr
p2852
aVnr
p2853
aVnr
p2854
aV46
p2855
aVnr
p2856
aV17
p2857
aV41
p2858
aVnr
p2859
aVnr
p2860
aV26
p2861
aV16
p2862
aV29
p2863
aVnr
p2864
aVnr
p2865
aVnr
p2866
aVnr
p2867
aV17
p2868
aV33
p2869
aVnr
p2870
aVnr
p2871
aVnr
p2872
aV27
p2873
aVnr
p2874
aVnr
p2875
aVnr
p2876
aVnr
p2877
aVnr
p2878
aVnr
p2879
aV21
p2880
aV33
p2881
aVnr
p2882
aVnr
p2883
aVnr
p2884
aV41
p2885
aV32
p2886
aa(lp2887
V02-11-2016
p2888
aV21
p2889
aV27
p2890
aV12
p2891
aVnr
p2892
aV24
p2893
aV22
p2894
aVnr
p2895
aVnr
p2896
aVnr
p2897
aVnr
p2898
aV46
p2899
aVnr
p2900
aV17
p2901
aV41
p2902
aVnr
p2903
aVnr
p2904
aV26
p2905
aV16
p2906
aV29
p2907
aVnr
p2908
aVnr
p2909
aVnr
p2910
aVnr
p2911
aV17
p2912
aV33
p2913
aVnr
p2914
aVnr
p2915
aVnr
p2916
aV27
p2917
aVnr
p2918
aVnr
p2919
aVnr
p2920
aVnr
p2921
aVnr
p2922
aVnr
p2923
aV21
p2924
aV33
p2925
aVnr
p2926
aVnr
p2927
aVnr
p2928
aV41
p2929
aV32
p2930
aa(lp2931
V02-11-2016
p2932
aV21
p2933
aV27
p2934
aV12
p2935
aVnr
p2936
aV24
p2937
aV22
p2938
aVnr
p2939
aVnr
p2940
aVnr
p2941
aVnr
p2942
aV46
p2943
aVnr
p2944
aV17
p2945
aV41
p2946
aVnr
p2947
aVnr
p2948
aV26
p2949
aV16
p2950
aV29
p2951
aVnr
p2952
aVnr
p2953
aVnr
p2954
aVnr
p2955
aV17
p2956
aV33
p2957
aVnr
p2958
aVnr
p2959
aVnr
p2960
aV27
p2961
aVnr
p2962
aVnr
p2963
aVnr
p2964
aVnr
p2965
aVnr
p2966
aVnr
p2967
aV21
p2968
aV33
p2969
aVnr
p2970
aVnr
p2971
aVnr
p2972
aV41
p2973
aV32
p2974
aa(lp2975
V02-11-2016
p2976
aV21
p2977
aV27
p2978
aV12
p2979
aVnr
p2980
aV24
p2981
aV22
p2982
aVnr
p2983
aVnr
p2984
aVnr
p2985
aVnr
p2986
aV46
p2987
aVnr
p2988
aV17
p2989
aV41
p2990
aVnr
p2991
aVnr
p2992
aV26
p2993
aV16
p2994
aV29
p2995
aVnr
p2996
aVnr
p2997
aVnr
p2998
aVnr
p2999
aV17
p3000
aV33
p3001
aVnr
p3002
aVnr
p3003
aVnr
p3004
aV27
p3005
aVnr
p3006
aVnr
p3007
aVnr
p3008
aVnr
p3009
aVnr
p3010
aVnr
p3011
aV21
p3012
aV33
p3013
aVnr
p3014
aVnr
p3015
aVnr
p3016
aV41
p3017
aV32
p3018
aa(lp3019
V02-11-2016
p3020
aV21
p3021
aV27
p3022
aV12
p3023
aVnr
p3024
aV24
p3025
aV22
p3026
aVnr
p3027
aVnr
p3028
aVnr
p3029
aVnr
p3030
aV46
p3031
aVnr
p3032
aV17
p3033
aV41
p3034
aVnr
p3035
aVnr
p3036
aV26
p3037
aV16
p3038
aV29
p3039
aVnr
p3040
aVnr
p3041
aVnr
p3042
aVnr
p3043
aV17
p3044
aV33
p3045
aVnr
p3046
aVnr
p3047
aVnr
p3048
aV27
p3049
aVnr
p3050
aVnr
p3051
aVnr
p3052
aVnr
p3053
aVnr
p3054
aVnr
p3055
aV21
p3056
aV33
p3057
aVnr
p3058
aVnr
p3059
aVnr
p3060
aV41
p3061
aV32
p3062
aa(lp3063
V02-11-2016
p3064
aV22
p3065
aV23
p3066
aV8
aVnr
p3067
aV31
p3068
aV19
p3069
aVnr
p3070
aVnr
p3071
aVnr
p3072
aVnr
p3073
aV11
p3074
aVnr
p3075
aV11
p3076
aV40
p3077
aVnr
p3078
aVnr
p3079
aV22
p3080
aV9
aV12
p3081
aVnr
p3082
aVnr
p3083
aVnr
p3084
aVnr
p3085
aVnr
p3086
aV43
p3087
aVnr
p3088
aVnr
p3089
aVnr
p3090
aV31
p3091
aVnr
p3092
aVnr
p3093
aVnr
p3094
aV36
p3095
aVnr
p3096
aVnr
p3097
aV21
p3098
aV32
p3099
aVnr
p3100
aVnr
p3101
aVnr
p3102
aV44
p3103
aV51
p3104
aa(lp3105
V02-11-2016
p3106
aV22
p3107
aV23
p3108
aV8
aVnr
p3109
aV31
p3110
aV19
p3111
aVnr
p3112
aVnr
p3113
aVnr
p3114
aVnr
p3115
aV11
p3116
aVnr
p3117
aV11
p3118
aV40
p3119
aVnr
p3120
aVnr
p3121
aV22
p3122
aV9
aV12
p3123
aVnr
p3124
aVnr
p3125
aVnr
p3126
aVnr
p3127
aVnr
p3128
aV43
p3129
aVnr
p3130
aVnr
p3131
aVnr
p3132
aV31
p3133
aVnr
p3134
aVnr
p3135
aVnr
p3136
aV36
p3137
aVnr
p3138
aVnr
p3139
aV21
p3140
aV32
p3141
aVnr
p3142
aVnr
p3143
aVnr
p3144
aV44
p3145
aV51
p3146
aa(lp3147
V02-11-2016
p3148
aV22
p3149
aV23
p3150
aV8
aVnr
p3151
aV31
p3152
aV19
p3153
aVnr
p3154
aVnr
p3155
aVnr
p3156
aVnr
p3157
aV11
p3158
aVnr
p3159
aV11
p3160
aV40
p3161
aVnr
p3162
aVnr
p3163
aV22
p3164
aV9
aV12
p3165
aVnr
p3166
aVnr
p3167
aVnr
p3168
aVnr
p3169
aVnr
p3170
aV43
p3171
aVnr
p3172
aVnr
p3173
aVnr
p3174
aV31
p3175
aVnr
p3176
aVnr
p3177
aVnr
p3178
aV36
p3179
aVnr
p3180
aVnr
p3181
aV21
p3182
aV32
p3183
aVnr
p3184
aVnr
p3185
aVnr
p3186
aV44
p3187
aV51
p3188
aa(lp3189
V02-11-2016
p3190
aV23
p3191
aV22
p3192
aV5
aVnr
p3193
aV33
p3194
aV17
p3195
aVnr
p3196
aVnr
p3197
aVnr
p3198
aVnr
p3199
aV9
aVnr
p3200
aV5
aV36
p3201
aVnr
p3202
aVnr
p3203
aV25
p3204
aV9
aV17
p3205
aVnr
p3206
aVnr
p3207
aVnr
p3208
aVnr
p3209
aV14
p3210
aV34
p3211
aVnr
p3212
aVnr
p3213
aVnr
p3214
aV34
p3215
aVnr
p3216
aVnr
p3217
aVnr
p3218
aVnr
p3219
aVnr
p3220
aVnr
p3221
aV22
p3222
aV32
p3223
aVnr
p3224
aVnr
p3225
aVnr
p3226
aV38
p3227
aV39
p3228
aa(lp3229
V02-11-2016
p3230
aV23
p3231
aV22
p3232
aV5
aVnr
p3233
aV33
p3234
aV17
p3235
aVnr
p3236
aVnr
p3237
aVnr
p3238
aVnr
p3239
aV9
aVnr
p3240
aV5
aV36
p3241
aVnr
p3242
aVnr
p3243
aV25
p3244
aV9
aV17
p3245
aVnr
p3246
aVnr
p3247
aVnr
p3248
aVnr
p3249
aV14
p3250
aV34
p3251
aVnr
p3252
aVnr
p3253
aVnr
p3254
aV34
p3255
aVnr
p3256
aVnr
p3257
aVnr
p3258
aVnr
p3259
aVnr
p3260
aVnr
p3261
aV22
p3262
aV32
p3263
aVnr
p3264
aVnr
p3265
aVnr
p3266
aV38
p3267
aV39
p3268
aa(lp3269
V02-11-2016
p3270
aV23
p3271
aV22
p3272
aV5
aVnr
p3273
aV33
p3274
aV17
p3275
aVnr
p3276
aVnr
p3277
aVnr
p3278
aVnr
p3279
aV9
aVnr
p3280
aV5
aV36
p3281
aVnr
p3282
aVnr
p3283
aV25
p3284
aV9
aV17
p3285
aVnr
p3286
aVnr
p3287
aVnr
p3288
aVnr
p3289
aV14
p3290
aV34
p3291
aVnr
p3292
aVnr
p3293
aVnr
p3294
aV34
p3295
aVnr
p3296
aVnr
p3297
aVnr
p3298
aVnr
p3299
aVnr
p3300
aVnr
p3301
aV22
p3302
aV32
p3303
aVnr
p3304
aVnr
p3305
aVnr
p3306
aV38
p3307
aV39
p3308
aa(lp3309
V02-11-2016
p3310
aV23
p3311
aV22
p3312
aV5
aVnr
p3313
aV33
p3314
aV17
p3315
aVnr
p3316
aVnr
p3317
aVnr
p3318
aVnr
p3319
aV9
aVnr
p3320
aV5
aV36
p3321
aVnr
p3322
aVnr
p3323
aV25
p3324
aV9
aV17
p3325
aVnr
p3326
aVnr
p3327
aVnr
p3328
aVnr
p3329
aV14
p3330
aV34
p3331
aVnr
p3332
aVnr
p3333
aVnr
p3334
aV34
p3335
aVnr
p3336
aVnr
p3337
aVnr
p3338
aVnr
p3339
aVnr
p3340
aVnr
p3341
aV22
p3342
aV32
p3343
aVnr
p3344
aVnr
p3345
aVnr
p3346
aV38
p3347
aV39
p3348
aa(lp3349
V02-11-2016
p3350
aV24
p3351
aV26
p3352
aV9
aVnr
p3353
aV22
p3354
aV16
p3355
aVnr
p3356
aVnr
p3357
aVnr
p3358
aVnr
p3359
aV22
p3360
aVnr
p3361
aV21
p3362
aV19
p3363
aVnr
p3364
aVnr
p3365
aV22
p3366
aV10
p3367
aV20
p3368
aVnr
p3369
aVnr
p3370
aVnr
p3371
aVnr
p3372
aV11
p3373
aV11
p3374
aVnr
p3375
aVnr
p3376
aVnr
p3377
aV33
p3378
aVnr
p3379
aVnr
p3380
aVnr
p3381
aV26
p3382
aVnr
p3383
aVnr
p3384
aV22
p3385
aV22
p3386
aVnr
p3387
aVnr
p3388
aVnr
p3389
aV27
p3390
aV31
p3391
aa(lp3392
V05-11-2016
p3393
aV8
aVnr
p3394
aV13
p3395
aVnr
p3396
aV20
p3397
aV13
p3398
aV31
p3399
aVnr
p3400
aVnr
p3401
aVnr
p3402
aV36
p3403
aVnr
p3404
aV10
p3405
aV33
p3406
aV8
aVnr
p3407
aV22
p3408
aV5
aV11
p3409
aVnr
p3410
aVnr
p3411
aVnr
p3412
aV19
p3413
aV18
p3414
aV13
p3415
aVnr
p3416
aVnr
p3417
aVnr
p3418
aV12
p3419
aVnr
p3420
aVnr
p3421
aVnr
p3422
aV9
aVnr
p3423
aVnr
p3424
aV13
p3425
aV27
p3426
aVnr
p3427
aVnr
p3428
aVnr
p3429
aV24
p3430
aV14
p3431
aa(lp3432
V05-11-2016
p3433
aV9
aVnr
p3434
aV13
p3435
aVnr
p3436
aV21
p3437
aV19
p3438
aV31
p3439
aVnr
p3440
aVnr
p3441
aVnr
p3442
aV37
p3443
aVnr
p3444
aV14
p3445
aV47
p3446
aV5
aVnr
p3447
aV24
p3448
aV3
aV19
p3449
aVnr
p3450
aVnr
p3451
aVnr
p3452
aV48
p3453
aV14
p3454
aV14
p3455
aVnr
p3456
aVnr
p3457
aVnr
p3458
aV16
p3459
aVnr
p3460
aVnr
p3461
aVnr
p3462
aV10
p3463
aVnr
p3464
aVnr
p3465
aV11
p3466
aV29
p3467
aVnr
p3468
aVnr
p3469
aVnr
p3470
aV30
p3471
aV21
p3472
aa(lp3473
V07-11-2016
p3474
aV8
aV33
p3475
aV16
p3476
aVnr
p3477
aV40
p3478
aV31
p3479
aVnr
p3480
aVnr
p3481
aVnr
p3482
aVnr
p3483
aV66
p3484
aVnr
p3485
aV33
p3486
aV75
p3487
aV33
p3488
aVnr
p3489
aV42
p3490
aV21
p3491
aV26
p3492
aVnr
p3493
aVnr
p3494
aVnr
p3495
aV29
p3496
aV48
p3497
aV19
p3498
aVnr
p3499
aVnr
p3500
aVnr
p3501
aV52
p3502
aVnr
p3503
aVnr
p3504
aVnr
p3505
aV38
p3506
aVnr
p3507
aVnr
p3508
aV36
p3509
aV46
p3510
aVnr
p3511
aVnr
p3512
aVnr
p3513
aV60
p3514
aV124
p3515
aa(lp3516
V07-11-2016
p3517
aV9
aV37
p3518
aV29
p3519
aVnr
p3520
aV62
p3521
aV44
p3522
aV64
p3523
aVnr
p3524
aVnr
p3525
aVnr
p3526
aV85
p3527
aVnr
p3528
aV41
p3529
aV179
p3530
aV80
p3531
aVnr
p3532
aV51
p3533
aV15
p3534
aV33
p3535
aVnr
p3536
aVnr
p3537
aVnr
p3538
aV70
p3539
aV45
p3540
aV24
p3541
aVnr
p3542
aVnr
p3543
aVnr
p3544
aVnr
p3545
aVnr
p3546
aVnr
p3547
aVnr
p3548
aV52
p3549
aVnr
p3550
aVnr
p3551
aV44
p3552
aV104
p3553
aVnr
p3554
aVnr
p3555
aVnr
p3556
aV90
p3557
aV182
p3558
aa(lp3559
V07-11-2016
p3560
aV10
p3561
aV42
p3562
aV33
p3563
aVnr
p3564
aV47
p3565
aV55
p3566
aV56
p3567
aVnr
p3568
aVnr
p3569
aVnr
p3570
aV75
p3571
aVnr
p3572
aV41
p3573
aV39
p3574
aV53
p3575
aVnr
p3576
aV60
p3577
aV16
p3578
aV32
p3579
aVnr
p3580
aVnr
p3581
aVnr
p3582
aV67
p3583
aV50
p3584
aV27
p3585
aVnr
p3586
aVnr
p3587
aVnr
p3588
aVnr
p3589
aVnr
p3590
aVnr
p3591
aVnr
p3592
aV67
p3593
aVnr
p3594
aVnr
p3595
aV38
p3596
aV98
p3597
aVnr
p3598
aVnr
p3599
aVnr
p3600
aV90
p3601
aV153
p3602
aasS'no'
p3603
(lp3604
(lp3605
V02-11-2016
p3606
aV21
p3607
aV4
aV0
aVnr
p3608
aV13
p3609
aVnr
p3610
aVnr
p3611
aVnr
p3612
aV0
aVnr
p3613
aV16
p3614
aVnr
p3615
aV15
p3616
aV2
aV4
aVnr
p3617
aVnr
p3618
aV3
aVnr
p3619
aV3
aVnr
p3620
aVnr
p3621
aVnr
p3622
aVnr
p3623
aV4
aVnr
p3624
aV13
p3625
aV3
aVnr
p3626
aV19
p3627
aVnr
p3628
aV6
aVnr
p3629
aVnr
p3630
aV1
aVnr
p3631
aVnr
p3632
aV7
aV40
p3633
aVnr
p3634
aV5
aV3
aV5
aV55
p3635
aa(lp3636
V02-11-2016
p3637
aV21
p3638
aV4
aV0
aVnr
p3639
aV13
p3640
aVnr
p3641
aVnr
p3642
aVnr
p3643
aV0
aVnr
p3644
aV16
p3645
aVnr
p3646
aV15
p3647
aV2
aV4
aVnr
p3648
aVnr
p3649
aV3
aVnr
p3650
aV3
aVnr
p3651
aVnr
p3652
aVnr
p3653
aVnr
p3654
aV4
aVnr
p3655
aV13
p3656
aV3
aVnr
p3657
aV19
p3658
aVnr
p3659
aV6
aVnr
p3660
aVnr
p3661
aV1
aVnr
p3662
aVnr
p3663
aV7
aV40
p3664
aVnr
p3665
aV5
aV3
aV5
aV55
p3666
aa(lp3667
V02-11-2016
p3668
aV21
p3669
aV4
aV0
aVnr
p3670
aV13
p3671
aVnr
p3672
aVnr
p3673
aVnr
p3674
aV0
aVnr
p3675
aV16
p3676
aVnr
p3677
aV15
p3678
aV2
aV4
aVnr
p3679
aVnr
p3680
aV3
aVnr
p3681
aV3
aVnr
p3682
aVnr
p3683
aVnr
p3684
aVnr
p3685
aV4
aVnr
p3686
aV13
p3687
aV3
aVnr
p3688
aV19
p3689
aVnr
p3690
aV6
aVnr
p3691
aVnr
p3692
aV1
aVnr
p3693
aVnr
p3694
aV7
aV40
p3695
aVnr
p3696
aV5
aV3
aV5
aV55
p3697
aa(lp3698
V02-11-2016
p3699
aV21
p3700
aV4
aV0
aVnr
p3701
aV13
p3702
aVnr
p3703
aVnr
p3704
aVnr
p3705
aV0
aVnr
p3706
aV16
p3707
aVnr
p3708
aV15
p3709
aV2
aV4
aVnr
p3710
aVnr
p3711
aV3
aVnr
p3712
aV3
aVnr
p3713
aVnr
p3714
aVnr
p3715
aVnr
p3716
aV4
aVnr
p3717
aV13
p3718
aV3
aVnr
p3719
aV19
p3720
aVnr
p3721
aV6
aVnr
p3722
aVnr
p3723
aV1
aVnr
p3724
aVnr
p3725
aV7
aV40
p3726
aVnr
p3727
aV5
aV3
aV5
aV55
p3728
aa(lp3729
V02-11-2016
p3730
aV21
p3731
aV4
aV0
aVnr
p3732
aV13
p3733
aVnr
p3734
aVnr
p3735
aVnr
p3736
aV0
aVnr
p3737
aV16
p3738
aVnr
p3739
aV15
p3740
aV2
aV4
aVnr
p3741
aVnr
p3742
aV3
aVnr
p3743
aV3
aVnr
p3744
aVnr
p3745
aVnr
p3746
aVnr
p3747
aV4
aVnr
p3748
aV13
p3749
aV3
aVnr
p3750
aV19
p3751
aVnr
p3752
aV6
aVnr
p3753
aVnr
p3754
aV1
aVnr
p3755
aVnr
p3756
aV7
aV40
p3757
aVnr
p3758
aV5
aV3
aV5
aV55
p3759
aa(lp3760
V02-11-2016
p3761
aV21
p3762
aV4
aV0
aVnr
p3763
aV13
p3764
aVnr
p3765
aVnr
p3766
aVnr
p3767
aV0
aVnr
p3768
aV16
p3769
aVnr
p3770
aV15
p3771
aV2
aV4
aVnr
p3772
aVnr
p3773
aV3
aVnr
p3774
aV3
aVnr
p3775
aVnr
p3776
aVnr
p3777
aVnr
p3778
aV4
aVnr
p3779
aV13
p3780
aV3
aVnr
p3781
aV19
p3782
aVnr
p3783
aV6
aVnr
p3784
aVnr
p3785
aV1
aVnr
p3786
aVnr
p3787
aV7
aV40
p3788
aVnr
p3789
aV5
aV3
aV5
aV55
p3790
aa(lp3791
V02-11-2016
p3792
aV21
p3793
aV4
aV0
aVnr
p3794
aV13
p3795
aVnr
p3796
aVnr
p3797
aVnr
p3798
aV0
aVnr
p3799
aV16
p3800
aVnr
p3801
aV15
p3802
aV2
aV4
aVnr
p3803
aVnr
p3804
aV3
aVnr
p3805
aV3
aVnr
p3806
aVnr
p3807
aVnr
p3808
aVnr
p3809
aV4
aVnr
p3810
aV13
p3811
aV3
aVnr
p3812
aV19
p3813
aVnr
p3814
aV6
aVnr
p3815
aVnr
p3816
aV1
aVnr
p3817
aVnr
p3818
aV7
aV40
p3819
aVnr
p3820
aV5
aV3
aV5
aV55
p3821
aa(lp3822
V02-11-2016
p3823
aV21
p3824
aV4
aV0
aVnr
p3825
aV13
p3826
aVnr
p3827
aVnr
p3828
aVnr
p3829
aV0
aVnr
p3830
aV16
p3831
aVnr
p3832
aV15
p3833
aV2
aV4
aVnr
p3834
aVnr
p3835
aV3
aVnr
p3836
aV3
aVnr
p3837
aVnr
p3838
aVnr
p3839
aVnr
p3840
aV4
aVnr
p3841
aV13
p3842
aV3
aVnr
p3843
aV19
p3844
aVnr
p3845
aV6
aVnr
p3846
aVnr
p3847
aV1
aVnr
p3848
aVnr
p3849
aV7
aV40
p3850
aVnr
p3851
aV5
aV3
aV5
aV55
p3852
aa(lp3853
V02-11-2016
p3854
aV22
p3855
aV7
aV1
aVnr
p3856
aV22
p3857
aVnr
p3858
aVnr
p3859
aVnr
p3860
aV4
aVnr
p3861
aV17
p3862
aVnr
p3863
aV12
p3864
aV4
aV2
aVnr
p3865
aVnr
p3866
aV6
aVnr
p3867
aV6
aVnr
p3868
aVnr
p3869
aVnr
p3870
aVnr
p3871
aVnr
p3872
aVnr
p3873
aV9
aV4
aVnr
p3874
aV17
p3875
aVnr
p3876
aV9
aVnr
p3877
aVnr
p3878
aV1
aVnr
p3879
aVnr
p3880
aV11
p3881
aV28
p3882
aVnr
p3883
aV2
aV4
aV7
aV37
p3884
aa(lp3885
V02-11-2016
p3886
aV22
p3887
aV7
aV1
aVnr
p3888
aV22
p3889
aVnr
p3890
aVnr
p3891
aVnr
p3892
aV4
aVnr
p3893
aV17
p3894
aVnr
p3895
aV12
p3896
aV4
aV2
aVnr
p3897
aVnr
p3898
aV6
aVnr
p3899
aV6
aVnr
p3900
aVnr
p3901
aVnr
p3902
aVnr
p3903
aVnr
p3904
aVnr
p3905
aV9
aV4
aVnr
p3906
aV17
p3907
aVnr
p3908
aV9
aVnr
p3909
aVnr
p3910
aV1
aVnr
p3911
aVnr
p3912
aV11
p3913
aV28
p3914
aVnr
p3915
aV2
aV4
aV7
aV37
p3916
aa(lp3917
V02-11-2016
p3918
aV22
p3919
aV7
aV1
aVnr
p3920
aV22
p3921
aVnr
p3922
aVnr
p3923
aVnr
p3924
aV4
aVnr
p3925
aV17
p3926
aVnr
p3927
aV12
p3928
aV4
aV2
aVnr
p3929
aVnr
p3930
aV6
aVnr
p3931
aV6
aVnr
p3932
aVnr
p3933
aVnr
p3934
aVnr
p3935
aVnr
p3936
aVnr
p3937
aV9
aV4
aVnr
p3938
aV17
p3939
aVnr
p3940
aV9
aVnr
p3941
aVnr
p3942
aV1
aVnr
p3943
aVnr
p3944
aV11
p3945
aV28
p3946
aVnr
p3947
aV2
aV4
aV7
aV37
p3948
aa(lp3949
V02-11-2016
p3950
aV23
p3951
aV18
p3952
aV0
aVnr
p3953
aV33
p3954
aVnr
p3955
aVnr
p3956
aVnr
p3957
aV4
aVnr
p3958
aV15
p3959
aVnr
p3960
aV14
p3961
aV12
p3962
aV2
aVnr
p3963
aVnr
p3964
aV20
p3965
aVnr
p3966
aV19
p3967
aVnr
p3968
aVnr
p3969
aVnr
p3970
aVnr
p3971
aV11
p3972
aVnr
p3973
aV11
p3974
aV3
aVnr
p3975
aV21
p3976
aVnr
p3977
aV6
aVnr
p3978
aVnr
p3979
aV2
aVnr
p3980
aVnr
p3981
aV12
p3982
aV36
p3983
aVnr
p3984
aV9
aV10
p3985
aV8
aV42
p3986
aa(lp3987
V02-11-2016
p3988
aV23
p3989
aV18
p3990
aV0
aVnr
p3991
aV33
p3992
aVnr
p3993
aVnr
p3994
aVnr
p3995
aV4
aVnr
p3996
aV15
p3997
aVnr
p3998
aV14
p3999
aV12
p4000
aV2
aVnr
p4001
aVnr
p4002
aV20
p4003
aVnr
p4004
aV19
p4005
aVnr
p4006
aVnr
p4007
aVnr
p4008
aVnr
p4009
aV11
p4010
aVnr
p4011
aV11
p4012
aV3
aVnr
p4013
aV21
p4014
aVnr
p4015
aV6
aVnr
p4016
aVnr
p4017
aV2
aVnr
p4018
aVnr
p4019
aV12
p4020
aV36
p4021
aVnr
p4022
aV9
aV10
p4023
aV8
aV42
p4024
aa(lp4025
V02-11-2016
p4026
aV23
p4027
aV18
p4028
aV0
aVnr
p4029
aV33
p4030
aVnr
p4031
aVnr
p4032
aVnr
p4033
aV4
aVnr
p4034
aV15
p4035
aVnr
p4036
aV14
p4037
aV12
p4038
aV2
aVnr
p4039
aVnr
p4040
aV20
p4041
aVnr
p4042
aV19
p4043
aVnr
p4044
aVnr
p4045
aVnr
p4046
aVnr
p4047
aV11
p4048
aVnr
p4049
aV11
p4050
aV3
aVnr
p4051
aV21
p4052
aVnr
p4053
aV6
aVnr
p4054
aVnr
p4055
aV2
aVnr
p4056
aVnr
p4057
aV12
p4058
aV36
p4059
aVnr
p4060
aV9
aV10
p4061
aV8
aV42
p4062
aa(lp4063
V02-11-2016
p4064
aV23
p4065
aV18
p4066
aV0
aVnr
p4067
aV33
p4068
aVnr
p4069
aVnr
p4070
aVnr
p4071
aV4
aVnr
p4072
aV15
p4073
aVnr
p4074
aV14
p4075
aV12
p4076
aV2
aVnr
p4077
aVnr
p4078
aV20
p4079
aVnr
p4080
aV19
p4081
aVnr
p4082
aVnr
p4083
aVnr
p4084
aVnr
p4085
aV11
p4086
aVnr
p4087
aV11
p4088
aV3
aVnr
p4089
aV21
p4090
aVnr
p4091
aV6
aVnr
p4092
aVnr
p4093
aV2
aVnr
p4094
aVnr
p4095
aV12
p4096
aV36
p4097
aVnr
p4098
aV9
aV10
p4099
aV8
aV42
p4100
aa(lp4101
V02-11-2016
p4102
aV24
p4103
aV10
p4104
aV3
aVnr
p4105
aV8
aVnr
p4106
aVnr
p4107
aVnr
p4108
aV4
aVnr
p4109
aV11
p4110
aVnr
p4111
aV44
p4112
aV9
aV6
aVnr
p4113
aVnr
p4114
aV10
p4115
aVnr
p4116
aV38
p4117
aVnr
p4118
aVnr
p4119
aVnr
p4120
aVnr
p4121
aV12
p4122
aVnr
p4123
aV15
p4124
aV4
aVnr
p4125
aV26
p4126
aVnr
p4127
aV12
p4128
aVnr
p4129
aVnr
p4130
aV4
aVnr
p4131
aVnr
p4132
aV30
p4133
aV16
p4134
aVnr
p4135
aV17
p4136
aV19
p4137
aV14
p4138
aV57
p4139
aa(lp4140
V05-11-2016
p4141
aV8
aVnr
p4142
aV6
aVnr
p4143
aV15
p4144
aVnr
p4145
aVnr
p4146
aV22
p4147
aV8
aVnr
p4148
aV17
p4149
aVnr
p4150
aV20
p4151
aV3
aV24
p4152
aV3
aVnr
p4153
aV25
p4154
aVnr
p4155
aV19
p4156
aVnr
p4157
aVnr
p4158
aVnr
p4159
aV49
p4160
aV19
p4161
aVnr
p4162
aV18
p4163
aV11
p4164
aVnr
p4165
aV10
p4166
aVnr
p4167
aV15
p4168
aVnr
p4169
aVnr
p4170
aV4
aVnr
p4171
aVnr
p4172
aV21
p4173
aV9
aVnr
p4174
aV8
aV31
p4175
aV6
aV17
p4176
aa(lp4177
V05-11-2016
p4178
aV9
aVnr
p4179
aV3
aVnr
p4180
aV8
aVnr
p4181
aVnr
p4182
aV17
p4183
aV4
aVnr
p4184
aV8
aVnr
p4185
aV14
p4186
aV14
p4187
aV16
p4188
aV3
aVnr
p4189
aV28
p4190
aVnr
p4191
aV14
p4192
aVnr
p4193
aVnr
p4194
aVnr
p4195
aV36
p4196
aV14
p4197
aVnr
p4198
aV10
p4199
aV7
aVnr
p4200
aV19
p4201
aVnr
p4202
aV10
p4203
aVnr
p4204
aVnr
p4205
aV11
p4206
aVnr
p4207
aVnr
p4208
aV27
p4209
aV18
p4210
aVnr
p4211
aV9
aV31
p4212
aV9
aV22
p4213
aa(lp4214
V07-11-2016
p4215
aV8
aV50
p4216
aV21
p4217
aVnr
p4218
aVnr
p4219
aVnr
p4220
aVnr
p4221
aV162
p4222
aV119
p4223
aVnr
p4224
aV178
p4225
aVnr
p4226
aV130
p4227
aV121
p4228
aV137
p4229
aV179
p4230
aVnr
p4231
aV136
p4232
aVnr
p4233
aV130
p4234
aVnr
p4235
aVnr
p4236
aVnr
p4237
aV169
p4238
aV173
p4239
aVnr
p4240
aV55
p4241
aV62
p4242
aVnr
p4243
aV115
p4244
aVnr
p4245
aV190
p4246
aVnr
p4247
aVnr
p4248
aV35
p4249
aVnr
p4250
aVnr
p4251
aV183
p4252
aV159
p4253
aVnr
p4254
aV89
p4255
aV62
p4256
aV74
p4257
aV264
p4258
aa(lp4259
V07-11-2016
p4260
aV9
aV51
p4261
aV29
p4262
aVnr
p4263
aVnr
p4264
aVnr
p4265
aVnr
p4266
aV95
p4267
aV91
p4268
aVnr
p4269
aV79
p4270
aVnr
p4271
aV84
p4272
aV50
p4273
aVnr
p4274
aV98
p4275
aVnr
p4276
aV111
p4277
aVnr
p4278
aV112
p4279
aVnr
p4280
aVnr
p4281
aVnr
p4282
aV156
p4283
aV127
p4284
aVnr
p4285
aV37
p4286
aV41
p4287
aVnr
p4288
aVnr
p4289
aVnr
p4290
aV139
p4291
aVnr
p4292
aVnr
p4293
aV53
p4294
aVnr
p4295
aVnr
p4296
aV107
p4297
aV86
p4298
aVnr
p4299
aV67
p4300
aV65
p4301
aV71
p4302
aV169
p4303
aa(lp4304
V07-11-2016
p4305
aV10
p4306
aV15
p4307
aV31
p4308
aVnr
p4309
aVnr
p4310
aVnr
p4311
aVnr
p4312
aVnr
p4313
aV38
p4314
aVnr
p4315
aV17
p4316
aVnr
p4317
aV48
p4318
aV25
p4319
aVnr
p4320
aV76
p4321
aVnr
p4322
aV61
p4323
aVnr
p4324
aV55
p4325
aVnr
p4326
aVnr
p4327
aVnr
p4328
aV66
p4329
aV59
p4330
aVnr
p4331
aVnr
p4332
aV35
p4333
aVnr
p4334
aVnr
p4335
aVnr
p4336
aV48
p4337
aVnr
p4338
aVnr
p4339
aV15
p4340
aVnr
p4341
aVnr
p4342
aV59
p4343
aV61
p4344
aVnr
p4345
aV28
p4346
aV36
p4347
aV38
p4348
aV95
p4349
aasS'o3'
p4350
(lp4351
(lp4352
V02-11-2016
p4353
aV21
p4354
aV15
p4355
aV24
p4356
aV15
p4357
aV5
aVnr
p4358
aV13
p4359
aVnr
p4360
aV16
p4361
aVnr
p4362
aV4
aV17
p4363
aV12
p4364
aV21
p4365
aV15
p4366
aVnr
p4367
aVnr
p4368
aV17
p4369
aV24
p4370
aV12
p4371
aVnr
p4372
aV3
aVnr
p4373
aVnr
p4374
aV21
p4375
aV27
p4376
aV5
aV15
p4377
aVnr
p4378
aV4
aVnr
p4379
aV8
aVnr
p4380
aVnr
p4381
aV28
p4382
aVnr
p4383
aVnr
p4384
aV15
p4385
aV1
aVnr
p4386
aV7
aV16
p4387
aV10
p4388
aV4
aa(lp4389
V02-11-2016
p4390
aV21
p4391
aV15
p4392
aV24
p4393
aV15
p4394
aV5
aVnr
p4395
aV13
p4396
aVnr
p4397
aV16
p4398
aVnr
p4399
aV4
aV17
p4400
aV12
p4401
aV21
p4402
aV15
p4403
aVnr
p4404
aVnr
p4405
aV17
p4406
aV24
p4407
aV12
p4408
aVnr
p4409
aV3
aVnr
p4410
aVnr
p4411
aV21
p4412
aV27
p4413
aV5
aV15
p4414
aVnr
p4415
aV4
aVnr
p4416
aV8
aVnr
p4417
aVnr
p4418
aV28
p4419
aVnr
p4420
aVnr
p4421
aV15
p4422
aV1
aVnr
p4423
aV7
aV16
p4424
aV10
p4425
aV4
aa(lp4426
V02-11-2016
p4427
aV21
p4428
aV15
p4429
aV24
p4430
aV15
p4431
aV5
aVnr
p4432
aV13
p4433
aVnr
p4434
aV16
p4435
aVnr
p4436
aV4
aV17
p4437
aV12
p4438
aV21
p4439
aV15
p4440
aVnr
p4441
aVnr
p4442
aV17
p4443
aV24
p4444
aV12
p4445
aVnr
p4446
aV3
aVnr
p4447
aVnr
p4448
aV21
p4449
aV27
p4450
aV5
aV15
p4451
aVnr
p4452
aV4
aVnr
p4453
aV8
aVnr
p4454
aVnr
p4455
aV28
p4456
aVnr
p4457
aVnr
p4458
aV15
p4459
aV1
aVnr
p4460
aV7
aV16
p4461
aV10
p4462
aV4
aa(lp4463
V02-11-2016
p4464
aV21
p4465
aV15
p4466
aV24
p4467
aV15
p4468
aV5
aVnr
p4469
aV13
p4470
aVnr
p4471
aV16
p4472
aVnr
p4473
aV4
aV17
p4474
aV12
p4475
aV21
p4476
aV15
p4477
aVnr
p4478
aVnr
p4479
aV17
p4480
aV24
p4481
aV12
p4482
aVnr
p4483
aV3
aVnr
p4484
aVnr
p4485
aV21
p4486
aV27
p4487
aV5
aV15
p4488
aVnr
p4489
aV4
aVnr
p4490
aV8
aVnr
p4491
aVnr
p4492
aV28
p4493
aVnr
p4494
aVnr
p4495
aV15
p4496
aV1
aVnr
p4497
aV7
aV16
p4498
aV10
p4499
aV4
aa(lp4500
V02-11-2016
p4501
aV21
p4502
aV15
p4503
aV24
p4504
aV15
p4505
aV5
aVnr
p4506
aV13
p4507
aVnr
p4508
aV16
p4509
aVnr
p4510
aV4
aV17
p4511
aV12
p4512
aV21
p4513
aV15
p4514
aVnr
p4515
aVnr
p4516
aV17
p4517
aV24
p4518
aV12
p4519
aVnr
p4520
aV3
aVnr
p4521
aVnr
p4522
aV21
p4523
aV27
p4524
aV5
aV15
p4525
aVnr
p4526
aV4
aVnr
p4527
aV8
aVnr
p4528
aVnr
p4529
aV28
p4530
aVnr
p4531
aVnr
p4532
aV15
p4533
aV1
aVnr
p4534
aV7
aV16
p4535
aV10
p4536
aV4
aa(lp4537
V02-11-2016
p4538
aV21
p4539
aV15
p4540
aV24
p4541
aV15
p4542
aV5
aVnr
p4543
aV13
p4544
aVnr
p4545
aV16
p4546
aVnr
p4547
aV4
aV17
p4548
aV12
p4549
aV21
p4550
aV15
p4551
aVnr
p4552
aVnr
p4553
aV17
p4554
aV24
p4555
aV12
p4556
aVnr
p4557
aV3
aVnr
p4558
aVnr
p4559
aV21
p4560
aV27
p4561
aV5
aV15
p4562
aVnr
p4563
aV4
aVnr
p4564
aV8
aVnr
p4565
aVnr
p4566
aV28
p4567
aVnr
p4568
aVnr
p4569
aV15
p4570
aV1
aVnr
p4571
aV7
aV16
p4572
aV10
p4573
aV4
aa(lp4574
V02-11-2016
p4575
aV21
p4576
aV15
p4577
aV24
p4578
aV15
p4579
aV5
aVnr
p4580
aV13
p4581
aVnr
p4582
aV16
p4583
aVnr
p4584
aV4
aV17
p4585
aV12
p4586
aV21
p4587
aV15
p4588
aVnr
p4589
aVnr
p4590
aV17
p4591
aV24
p4592
aV12
p4593
aVnr
p4594
aV3
aVnr
p4595
aVnr
p4596
aV21
p4597
aV27
p4598
aV5
aV15
p4599
aVnr
p4600
aV4
aVnr
p4601
aV8
aVnr
p4602
aVnr
p4603
aV28
p4604
aVnr
p4605
aVnr
p4606
aV15
p4607
aV1
aVnr
p4608
aV7
aV16
p4609
aV10
p4610
aV4
aa(lp4611
V02-11-2016
p4612
aV21
p4613
aV15
p4614
aV24
p4615
aV15
p4616
aV5
aVnr
p4617
aV13
p4618
aVnr
p4619
aV16
p4620
aVnr
p4621
aV4
aV17
p4622
aV12
p4623
aV21
p4624
aV15
p4625
aVnr
p4626
aVnr
p4627
aV17
p4628
aV24
p4629
aV12
p4630
aVnr
p4631
aV3
aVnr
p4632
aVnr
p4633
aV21
p4634
aV27
p4635
aV5
aV15
p4636
aVnr
p4637
aV4
aVnr
p4638
aV8
aVnr
p4639
aVnr
p4640
aV28
p4641
aVnr
p4642
aVnr
p4643
aV15
p4644
aV1
aVnr
p4645
aV7
aV16
p4646
aV10
p4647
aV4
aa(lp4648
V02-11-2016
p4649
aV22
p4650
aV5
aV20
p4651
aV10
p4652
aV4
aVnr
p4653
aV6
aVnr
p4654
aV6
aVnr
p4655
aV3
aV12
p4656
aV7
aV13
p4657
aV17
p4658
aVnr
p4659
aVnr
p4660
aV9
aV19
p4661
aV8
aVnr
p4662
aV2
aV1
aVnr
p4663
aVnr
p4664
aV26
p4665
aV7
aV7
aVnr
p4666
aV1
aVnr
p4667
aVnr
p4668
aVnr
p4669
aVnr
p4670
aV26
p4671
aVnr
p4672
aVnr
p4673
aV10
p4674
aV1
aVnr
p4675
aV10
p4676
aV13
p4677
aV5
aV4
aa(lp4678
V02-11-2016
p4679
aV22
p4680
aV5
aV20
p4681
aV10
p4682
aV4
aVnr
p4683
aV6
aVnr
p4684
aV6
aVnr
p4685
aV3
aV12
p4686
aV7
aV13
p4687
aV17
p4688
aVnr
p4689
aVnr
p4690
aV9
aV19
p4691
aV8
aVnr
p4692
aV2
aV1
aVnr
p4693
aVnr
p4694
aV26
p4695
aV7
aV7
aVnr
p4696
aV1
aVnr
p4697
aVnr
p4698
aVnr
p4699
aVnr
p4700
aV26
p4701
aVnr
p4702
aVnr
p4703
aV10
p4704
aV1
aVnr
p4705
aV10
p4706
aV13
p4707
aV5
aV4
aa(lp4708
V02-11-2016
p4709
aV22
p4710
aV5
aV20
p4711
aV10
p4712
aV4
aVnr
p4713
aV6
aVnr
p4714
aV6
aVnr
p4715
aV3
aV12
p4716
aV7
aV13
p4717
aV17
p4718
aVnr
p4719
aVnr
p4720
aV9
aV19
p4721
aV8
aVnr
p4722
aV2
aV1
aVnr
p4723
aVnr
p4724
aV26
p4725
aV7
aV7
aVnr
p4726
aV1
aVnr
p4727
aVnr
p4728
aVnr
p4729
aVnr
p4730
aV26
p4731
aVnr
p4732
aVnr
p4733
aV10
p4734
aV1
aVnr
p4735
aV10
p4736
aV13
p4737
aV5
aV4
aa(lp4738
V02-11-2016
p4739
aV23
p4740
aV3
aV27
p4741
aV16
p4742
aV2
aVnr
p4743
aV2
aVnr
p4744
aV6
aVnr
p4745
aV2
aV4
aV3
aV5
aV13
p4746
aVnr
p4747
aVnr
p4748
aV3
aV16
p4749
aV2
aVnr
p4750
aV1
aV1
aVnr
p4751
aV4
aV23
p4752
aV4
aV10
p4753
aVnr
p4754
aV1
aVnr
p4755
aV5
aVnr
p4756
aVnr
p4757
aV19
p4758
aVnr
p4759
aVnr
p4760
aV7
aV0
aVnr
p4761
aV1
aV6
aV4
aV3
aa(lp4762
V02-11-2016
p4763
aV23
p4764
aV3
aV27
p4765
aV16
p4766
aV2
aVnr
p4767
aV2
aVnr
p4768
aV6
aVnr
p4769
aV2
aV4
aV3
aV5
aV13
p4770
aVnr
p4771
aVnr
p4772
aV3
aV16
p4773
aV2
aVnr
p4774
aV1
aV1
aVnr
p4775
aV4
aV23
p4776
aV4
aV10
p4777
aVnr
p4778
aV1
aVnr
p4779
aV5
aVnr
p4780
aVnr
p4781
aV19
p4782
aVnr
p4783
aVnr
p4784
aV7
aV0
aVnr
p4785
aV1
aV6
aV4
aV3
aa(lp4786
V02-11-2016
p4787
aV23
p4788
aV3
aV27
p4789
aV16
p4790
aV2
aVnr
p4791
aV2
aVnr
p4792
aV6
aVnr
p4793
aV2
aV4
aV3
aV5
aV13
p4794
aVnr
p4795
aVnr
p4796
aV3
aV16
p4797
aV2
aVnr
p4798
aV1
aV1
aVnr
p4799
aV4
aV23
p4800
aV4
aV10
p4801
aVnr
p4802
aV1
aVnr
p4803
aV5
aVnr
p4804
aVnr
p4805
aV19
p4806
aVnr
p4807
aVnr
p4808
aV7
aV0
aVnr
p4809
aV1
aV6
aV4
aV3
aa(lp4810
V02-11-2016
p4811
aV23
p4812
aV3
aV27
p4813
aV16
p4814
aV2
aVnr
p4815
aV2
aVnr
p4816
aV6
aVnr
p4817
aV2
aV4
aV3
aV5
aV13
p4818
aVnr
p4819
aVnr
p4820
aV3
aV16
p4821
aV2
aVnr
p4822
aV1
aV1
aVnr
p4823
aV4
aV23
p4824
aV4
aV10
p4825
aVnr
p4826
aV1
aVnr
p4827
aV5
aVnr
p4828
aVnr
p4829
aV19
p4830
aVnr
p4831
aVnr
p4832
aV7
aV0
aVnr
p4833
aV1
aV6
aV4
aV3
aa(lp4834
V02-11-2016
p4835
aV24
p4836
aV3
aV17
p4837
aV7
aV4
aVnr
p4838
aV1
aVnr
p4839
aV5
aVnr
p4840
aV3
aV4
aV3
aV8
aV8
aVnr
p4841
aVnr
p4842
aV5
aV18
p4843
aV1
aVnr
p4844
aV1
aV1
aVnr
p4845
aV3
aV17
p4846
aV3
aV5
aVnr
p4847
aV1
aVnr
p4848
aV3
aVnr
p4849
aVnr
p4850
aV7
aVnr
p4851
aVnr
p4852
aV3
aV2
aVnr
p4853
aV0
aV6
aV2
aV3
aa(lp4854
V05-11-2016
p4855
aV8
aVnr
p4856
aV12
p4857
aV10
p4858
aV6
aVnr
p4859
aV5
aV5
aV5
aVnr
p4860
aV7
aV7
aV6
aV14
p4861
aV3
aV11
p4862
aV9
aV8
aV20
p4863
aV4
aVnr
p4864
aV6
aVnr
p4865
aV3
aV7
aV10
p4866
aV7
aV6
aVnr
p4867
aV9
aVnr
p4868
aV6
aVnr
p4869
aVnr
p4870
aV12
p4871
aVnr
p4872
aVnr
p4873
aV8
aV6
aVnr
p4874
aV6
aV6
aV10
p4875
aV19
p4876
aa(lp4877
V05-11-2016
p4878
aV9
aVnr
p4879
aV25
p4880
aV20
p4881
aV16
p4882
aVnr
p4883
aV12
p4884
aV12
p4885
aV15
p4886
aVnr
p4887
aV16
p4888
aV18
p4889
aV12
p4890
aV13
p4891
aV11
p4892
aV22
p4893
aV21
p4894
aV14
p4895
aV23
p4896
aV9
aVnr
p4897
aV9
aV18
p4898
aV7
aV15
p4899
aV16
p4900
aV14
p4901
aV15
p4902
aVnr
p4903
aV12
p4904
aVnr
p4905
aV15
p4906
aVnr
p4907
aVnr
p4908
aV11
p4909
aVnr
p4910
aVnr
p4911
aV12
p4912
aV9
aVnr
p4913
aV8
aV8
aV12
p4914
aV21
p4915
aa(lp4916
V07-11-2016
p4917
aV8
aV5
aV11
p4918
aV2
aV3
aVnr
p4919
aV3
aV2
aV2
aVnr
p4920
aV3
aV5
aV3
aV2
aV2
aV0
aV4
aV4
aV13
p4921
aV2
aVnr
p4922
aV2
aV3
aV2
aV2
aV14
p4923
aV4
aV4
aVnr
p4924
aV2
aVnr
p4925
aV3
aVnr
p4926
aVnr
p4927
aV4
aVnr
p4928
aVnr
p4929
aV4
aV1
aVnr
p4930
aV2
aV4
aV3
aV7
aa(lp4931
V07-11-2016
p4932
aV9
aV9
aV16
p4933
aV16
p4934
aV9
aVnr
p4935
aV7
aV6
aV5
aVnr
p4936
aV9
aV9
aV8
aV12
p4937
aV7
aV4
aV7
aV8
aV19
p4938
aV6
aVnr
p4939
aV5
aV5
aV5
aV6
aV21
p4940
aV11
p4941
aV12
p4942
aVnr
p4943
aVnr
p4944
aVnr
p4945
aV5
aVnr
p4946
aVnr
p4947
aV9
aVnr
p4948
aVnr
p4949
aV8
aV5
aVnr
p4950
aV7
aV9
aV7
aV8
aa(lp4951
V07-11-2016
p4952
aV10
p4953
aV24
p4954
aV24
p4955
aV32
p4956
aV19
p4957
aVnr
p4958
aV19
p4959
aV13
p4960
aV15
p4961
aVnr
p4962
aV24
p4963
aV27
p4964
aV20
p4965
aV21
p4966
aV13
p4967
aV15
p4968
aV17
p4969
aV18
p4970
aV34
p4971
aV18
p4972
aVnr
p4973
aV16
p4974
aVnr
p4975
aV16
p4976
aV17
p4977
aV32
p4978
aVnr
p4979
aV21
p4980
aVnr
p4981
aVnr
p4982
aVnr
p4983
aV17
p4984
aVnr
p4985
aVnr
p4986
aV26
p4987
aVnr
p4988
aVnr
p4989
aV17
p4990
aV15
p4991
aVnr
p4992
aV21
p4993
aV21
p4994
aV17
p4995
aV16
p4996
aasS'wsp'
p4997
(lp4998
(lp4999
V02-11-2016
p5000
aV21
p5001
aVnr
p5002
aV7
aV3
aVnr
p5003
aV4
aVnr
p5004
aVnr
p5005
aV5
aV2
aVnr
p5006
aV5
aV4
aVnr
p5007
aVnr
p5008
aV4
aVnr
p5009
aVnr
p5010
aVnr
p5011
aVnr
p5012
aVnr
p5013
aV5
aV7
aVnr
p5014
aV6
aV5
aVnr
p5015
aV1
aV7
aVnr
p5016
aVnr
p5017
aVnr
p5018
aVnr
p5019
aV8
aVnr
p5020
aV4
aVnr
p5021
aVnr
p5022
aV4
aV6
aV4
aV6
aa(lp5023
V02-11-2016
p5024
aV21
p5025
aVnr
p5026
aV7
aV3
aVnr
p5027
aV4
aVnr
p5028
aVnr
p5029
aV5
aV2
aVnr
p5030
aV5
aV4
aVnr
p5031
aVnr
p5032
aV4
aVnr
p5033
aVnr
p5034
aVnr
p5035
aVnr
p5036
aVnr
p5037
aV5
aV7
aVnr
p5038
aV6
aV5
aVnr
p5039
aV1
aV7
aVnr
p5040
aVnr
p5041
aVnr
p5042
aVnr
p5043
aV8
aVnr
p5044
aV4
aVnr
p5045
aVnr
p5046
aV4
aV6
aV4
aV6
aa(lp5047
V02-11-2016
p5048
aV21
p5049
aVnr
p5050
aV7
aV3
aVnr
p5051
aV4
aVnr
p5052
aVnr
p5053
aV5
aV2
aVnr
p5054
aV5
aV4
aVnr
p5055
aVnr
p5056
aV4
aVnr
p5057
aVnr
p5058
aVnr
p5059
aVnr
p5060
aVnr
p5061
aV5
aV7
aVnr
p5062
aV6
aV5
aVnr
p5063
aV1
aV7
aVnr
p5064
aVnr
p5065
aVnr
p5066
aVnr
p5067
aV8
aVnr
p5068
aV4
aVnr
p5069
aVnr
p5070
aV4
aV6
aV4
aV6
aa(lp5071
V02-11-2016
p5072
aV21
p5073
aVnr
p5074
aV7
aV3
aVnr
p5075
aV4
aVnr
p5076
aVnr
p5077
aV5
aV2
aVnr
p5078
aV5
aV4
aVnr
p5079
aVnr
p5080
aV4
aVnr
p5081
aVnr
p5082
aVnr
p5083
aVnr
p5084
aVnr
p5085
aV5
aV7
aVnr
p5086
aV6
aV5
aVnr
p5087
aV1
aV7
aVnr
p5088
aVnr
p5089
aVnr
p5090
aVnr
p5091
aV8
aVnr
p5092
aV4
aVnr
p5093
aVnr
p5094
aV4
aV6
aV4
aV6
aa(lp5095
V02-11-2016
p5096
aV21
p5097
aVnr
p5098
aV7
aV3
aVnr
p5099
aV4
aVnr
p5100
aVnr
p5101
aV5
aV2
aVnr
p5102
aV5
aV4
aVnr
p5103
aVnr
p5104
aV4
aVnr
p5105
aVnr
p5106
aVnr
p5107
aVnr
p5108
aVnr
p5109
aV5
aV7
aVnr
p5110
aV6
aV5
aVnr
p5111
aV1
aV7
aVnr
p5112
aVnr
p5113
aVnr
p5114
aVnr
p5115
aV8
aVnr
p5116
aV4
aVnr
p5117
aVnr
p5118
aV4
aV6
aV4
aV6
aa(lp5119
V02-11-2016
p5120
aV21
p5121
aVnr
p5122
aV7
aV3
aVnr
p5123
aV4
aVnr
p5124
aVnr
p5125
aV5
aV2
aVnr
p5126
aV5
aV4
aVnr
p5127
aVnr
p5128
aV4
aVnr
p5129
aVnr
p5130
aVnr
p5131
aVnr
p5132
aVnr
p5133
aV5
aV7
aVnr
p5134
aV6
aV5
aVnr
p5135
aV1
aV7
aVnr
p5136
aVnr
p5137
aVnr
p5138
aVnr
p5139
aV8
aVnr
p5140
aV4
aVnr
p5141
aVnr
p5142
aV4
aV6
aV4
aV6
aa(lp5143
V02-11-2016
p5144
aV21
p5145
aVnr
p5146
aV7
aV3
aVnr
p5147
aV4
aVnr
p5148
aVnr
p5149
aV5
aV2
aVnr
p5150
aV5
aV4
aVnr
p5151
aVnr
p5152
aV4
aVnr
p5153
aVnr
p5154
aVnr
p5155
aVnr
p5156
aVnr
p5157
aV5
aV7
aVnr
p5158
aV6
aV5
aVnr
p5159
aV1
aV7
aVnr
p5160
aVnr
p5161
aVnr
p5162
aVnr
p5163
aV8
aVnr
p5164
aV4
aVnr
p5165
aVnr
p5166
aV4
aV6
aV4
aV6
aa(lp5167
V02-11-2016
p5168
aV21
p5169
aVnr
p5170
aV7
aV3
aVnr
p5171
aV4
aVnr
p5172
aVnr
p5173
aV5
aV2
aVnr
p5174
aV5
aV4
aVnr
p5175
aVnr
p5176
aV4
aVnr
p5177
aVnr
p5178
aVnr
p5179
aVnr
p5180
aVnr
p5181
aV5
aV7
aVnr
p5182
aV6
aV5
aVnr
p5183
aV1
aV7
aVnr
p5184
aVnr
p5185
aVnr
p5186
aVnr
p5187
aV8
aVnr
p5188
aV4
aVnr
p5189
aVnr
p5190
aV4
aV6
aV4
aV6
aa(lp5191
V02-11-2016
p5192
aV22
p5193
aVnr
p5194
aV5
aV3
aVnr
p5195
aV4
aVnr
p5196
aVnr
p5197
aV4
aV1
aVnr
p5198
aV4
aV2
aVnr
p5199
aVnr
p5200
aV2
aVnr
p5201
aVnr
p5202
aVnr
p5203
aVnr
p5204
aVnr
p5205
aV5
aVnr
p5206
aVnr
p5207
aV7
aV4
aVnr
p5208
aV3
aV7
aVnr
p5209
aVnr
p5210
aVnr
p5211
aVnr
p5212
aV6
aVnr
p5213
aV4
aVnr
p5214
aVnr
p5215
aV3
aV5
aV3
aV8
aa(lp5216
V02-11-2016
p5217
aV22
p5218
aVnr
p5219
aV5
aV3
aVnr
p5220
aV4
aVnr
p5221
aVnr
p5222
aV4
aV1
aVnr
p5223
aV4
aV2
aVnr
p5224
aVnr
p5225
aV2
aVnr
p5226
aVnr
p5227
aVnr
p5228
aVnr
p5229
aVnr
p5230
aV5
aVnr
p5231
aVnr
p5232
aV7
aV4
aVnr
p5233
aV3
aV7
aVnr
p5234
aVnr
p5235
aVnr
p5236
aVnr
p5237
aV6
aVnr
p5238
aV4
aVnr
p5239
aVnr
p5240
aV3
aV5
aV3
aV8
aa(lp5241
V02-11-2016
p5242
aV22
p5243
aVnr
p5244
aV5
aV3
aVnr
p5245
aV4
aVnr
p5246
aVnr
p5247
aV4
aV1
aVnr
p5248
aV4
aV2
aVnr
p5249
aVnr
p5250
aV2
aVnr
p5251
aVnr
p5252
aVnr
p5253
aVnr
p5254
aVnr
p5255
aV5
aVnr
p5256
aVnr
p5257
aV7
aV4
aVnr
p5258
aV3
aV7
aVnr
p5259
aVnr
p5260
aVnr
p5261
aVnr
p5262
aV6
aVnr
p5263
aV4
aVnr
p5264
aVnr
p5265
aV3
aV5
aV3
aV8
aa(lp5266
V02-11-2016
p5267
aV23
p5268
aVnr
p5269
aV8
aVnr
p5270
aVnr
p5271
aV4
aVnr
p5272
aVnr
p5273
aV3
aV2
aVnr
p5274
aV4
aV1
aVnr
p5275
aVnr
p5276
aV2
aVnr
p5277
aVnr
p5278
aVnr
p5279
aVnr
p5280
aVnr
p5281
aV4
aV5
aVnr
p5282
aV3
aV6
aVnr
p5283
aV2
aV6
aVnr
p5284
aVnr
p5285
aVnr
p5286
aVnr
p5287
aV3
aVnr
p5288
aV3
aVnr
p5289
aVnr
p5290
aV4
aV3
aV4
aV4
aa(lp5291
V02-11-2016
p5292
aV23
p5293
aVnr
p5294
aV8
aVnr
p5295
aVnr
p5296
aV4
aVnr
p5297
aVnr
p5298
aV3
aV2
aVnr
p5299
aV4
aV1
aVnr
p5300
aVnr
p5301
aV2
aVnr
p5302
aVnr
p5303
aVnr
p5304
aVnr
p5305
aVnr
p5306
aV4
aV5
aVnr
p5307
aV3
aV6
aVnr
p5308
aV2
aV6
aVnr
p5309
aVnr
p5310
aVnr
p5311
aVnr
p5312
aV3
aVnr
p5313
aV3
aVnr
p5314
aVnr
p5315
aV4
aV3
aV4
aV4
aa(lp5316
V02-11-2016
p5317
aV23
p5318
aVnr
p5319
aV8
aVnr
p5320
aVnr
p5321
aV4
aVnr
p5322
aVnr
p5323
aV3
aV2
aVnr
p5324
aV4
aV1
aVnr
p5325
aVnr
p5326
aV2
aVnr
p5327
aVnr
p5328
aVnr
p5329
aVnr
p5330
aVnr
p5331
aV4
aV5
aVnr
p5332
aV3
aV6
aVnr
p5333
aV2
aV6
aVnr
p5334
aVnr
p5335
aVnr
p5336
aVnr
p5337
aV3
aVnr
p5338
aV3
aVnr
p5339
aVnr
p5340
aV4
aV3
aV4
aV4
aa(lp5341
V02-11-2016
p5342
aV23
p5343
aVnr
p5344
aV8
aVnr
p5345
aVnr
p5346
aV4
aVnr
p5347
aVnr
p5348
aV3
aV2
aVnr
p5349
aV4
aV1
aVnr
p5350
aVnr
p5351
aV2
aVnr
p5352
aVnr
p5353
aVnr
p5354
aVnr
p5355
aVnr
p5356
aV4
aV5
aVnr
p5357
aV3
aV6
aVnr
p5358
aV2
aV6
aVnr
p5359
aVnr
p5360
aVnr
p5361
aVnr
p5362
aV3
aVnr
p5363
aV3
aVnr
p5364
aVnr
p5365
aV4
aV3
aV4
aV4
aa(lp5366
V02-11-2016
p5367
aV24
p5368
aVnr
p5369
aV4
aV4
aVnr
p5370
aV3
aVnr
p5371
aVnr
p5372
aV2
aV2
aVnr
p5373
aV4
aV2
aVnr
p5374
aVnr
p5375
aV2
aVnr
p5376
aVnr
p5377
aVnr
p5378
aVnr
p5379
aVnr
p5380
aV3
aV3
aVnr
p5381
aV2
aV3
aVnr
p5382
aV2
aV5
aVnr
p5383
aVnr
p5384
aVnr
p5385
aVnr
p5386
aV4
aVnr
p5387
aV2
aVnr
p5388
aVnr
p5389
aV3
aV2
aV2
aV5
aa(lp5390
V05-11-2016
p5391
aV8
aVnr
p5392
aV6
aV5
aVnr
p5393
aV4
aVnr
p5394
aVnr
p5395
aV4
aV4
aVnr
p5396
aV3
aV2
aV3
aVnr
p5397
aV6
aVnr
p5398
aVnr
p5399
aVnr
p5400
aVnr
p5401
aVnr
p5402
aV6
aV4
aVnr
p5403
aV5
aV4
aVnr
p5404
aV4
aV4
aVnr
p5405
aV5
aVnr
p5406
aVnr
p5407
aV4
aVnr
p5408
aV4
aVnr
p5409
aVnr
p5410
aV4
aV6
aV3
aV4
aa(lp5411
V05-11-2016
p5412
aV9
aVnr
p5413
aV7
aVnr
p5414
aVnr
p5415
aVnr
p5416
aVnr
p5417
aVnr
p5418
aV4
aV6
aVnr
p5419
aV3
aV3
aV3
aVnr
p5420
aV6
aVnr
p5421
aVnr
p5422
aVnr
p5423
aVnr
p5424
aVnr
p5425
aV7
aV5
aVnr
p5426
aV5
aV4
aVnr
p5427
aV5
aV4
aVnr
p5428
aV7
aVnr
p5429
aVnr
p5430
aV6
aVnr
p5431
aV5
aVnr
p5432
aVnr
p5433
aV6
aV5
aV3
aV8
aa(lp5434
V07-11-2016
p5435
aV8
aVnr
p5436
aV1
aV4
aVnr
p5437
aV3
aVnr
p5438
aVnr
p5439
aV1
aVnr
p5440
aVnr
p5441
aV2
aV1
aV0
aVnr
p5442
aV2
aVnr
p5443
aVnr
p5444
aVnr
p5445
aVnr
p5446
aVnr
p5447
aV2
aV0
aVnr
p5448
aV2
aV2
aVnr
p5449
aV3
aV3
aVnr
p5450
aVnr
p5451
aVnr
p5452
aVnr
p5453
aV3
aVnr
p5454
aV2
aVnr
p5455
aVnr
p5456
aV2
aV3
aV1
aV2
aa(lp5457
V07-11-2016
p5458
aV9
aV2
aV3
aV3
aVnr
p5459
aV3
aVnr
p5460
aVnr
p5461
aV3
aV2
aVnr
p5462
aV2
aVnr
p5463
aV0
aV3
aV2
aVnr
p5464
aVnr
p5465
aVnr
p5466
aVnr
p5467
aVnr
p5468
aV2
aV3
aV3
aV3
aV2
aVnr
p5469
aVnr
p5470
aV3
aVnr
p5471
aVnr
p5472
aVnr
p5473
aVnr
p5474
aV3
aVnr
p5475
aV1
aVnr
p5476
aVnr
p5477
aV3
aV3
aV2
aV3
aa(lp5478
V07-11-2016
p5479
aV10
p5480
aV4
aV5
aV4
aVnr
p5481
aV4
aVnr
p5482
aVnr
p5483
aV3
aV1
aVnr
p5484
aV4
aV3
aV0
aVnr
p5485
aV3
aVnr
p5486
aV4
aVnr
p5487
aVnr
p5488
aVnr
p5489
aV4
aV4
aV3
aVnr
p5490
aV3
aVnr
p5491
aVnr
p5492
aV4
aVnr
p5493
aV3
aVnr
p5494
aVnr
p5495
aVnr
p5496
aVnr
p5497
aV3
aVnr
p5498
aVnr
p5499
aV3
aV3
aV3
aV4
aasS'wdr'
p5500
(lp5501
(lp5502
V02-11-2016
p5503
aV21
p5504
aVnr
p5505
aV223
p5506
aV89
p5507
aVnr
p5508
aV265
p5509
aVnr
p5510
aVnr
p5511
aVnr
p5512
aV165
p5513
aV210
p5514
aVnr
p5515
aV263
p5516
aV355
p5517
aVnr
p5518
aVnr
p5519
aV219
p5520
aVnr
p5521
aVnr
p5522
aVnr
p5523
aVnr
p5524
aVnr
p5525
aV214
p5526
aV259
p5527
aVnr
p5528
aV216
p5529
aV239
p5530
aVnr
p5531
aV121
p5532
aV233
p5533
aVnr
p5534
aVnr
p5535
aVnr
p5536
aVnr
p5537
aV252
p5538
aVnr
p5539
aV258
p5540
aVnr
p5541
aVnr
p5542
aV154
p5543
aV237
p5544
aV336
p5545
aV243
p5546
aa(lp5547
V02-11-2016
p5548
aV21
p5549
aVnr
p5550
aV223
p5551
aV89
p5552
aVnr
p5553
aV265
p5554
aVnr
p5555
aVnr
p5556
aVnr
p5557
aV165
p5558
aV210
p5559
aVnr
p5560
aV263
p5561
aV355
p5562
aVnr
p5563
aVnr
p5564
aV219
p5565
aVnr
p5566
aVnr
p5567
aVnr
p5568
aVnr
p5569
aVnr
p5570
aV214
p5571
aV259
p5572
aVnr
p5573
aV216
p5574
aV239
p5575
aVnr
p5576
aV121
p5577
aV233
p5578
aVnr
p5579
aVnr
p5580
aVnr
p5581
aVnr
p5582
aV252
p5583
aVnr
p5584
aV258
p5585
aVnr
p5586
aVnr
p5587
aV154
p5588
aV237
p5589
aV336
p5590
aV243
p5591
aa(lp5592
V02-11-2016
p5593
aV21
p5594
aVnr
p5595
aV223
p5596
aV89
p5597
aVnr
p5598
aV265
p5599
aVnr
p5600
aVnr
p5601
aVnr
p5602
aV165
p5603
aV210
p5604
aVnr
p5605
aV263
p5606
aV355
p5607
aVnr
p5608
aVnr
p5609
aV219
p5610
aVnr
p5611
aVnr
p5612
aVnr
p5613
aVnr
p5614
aVnr
p5615
aV214
p5616
aV259
p5617
aVnr
p5618
aV216
p5619
aV239
p5620
aVnr
p5621
aV121
p5622
aV233
p5623
aVnr
p5624
aVnr
p5625
aVnr
p5626
aVnr
p5627
aV252
p5628
aVnr
p5629
aV258
p5630
aVnr
p5631
aVnr
p5632
aV154
p5633
aV237
p5634
aV336
p5635
aV243
p5636
aa(lp5637
V02-11-2016
p5638
aV21
p5639
aVnr
p5640
aV223
p5641
aV89
p5642
aVnr
p5643
aV265
p5644
aVnr
p5645
aVnr
p5646
aVnr
p5647
aV165
p5648
aV210
p5649
aVnr
p5650
aV263
p5651
aV355
p5652
aVnr
p5653
aVnr
p5654
aV219
p5655
aVnr
p5656
aVnr
p5657
aVnr
p5658
aVnr
p5659
aVnr
p5660
aV214
p5661
aV259
p5662
aVnr
p5663
aV216
p5664
aV239
p5665
aVnr
p5666
aV121
p5667
aV233
p5668
aVnr
p5669
aVnr
p5670
aVnr
p5671
aVnr
p5672
aV252
p5673
aVnr
p5674
aV258
p5675
aVnr
p5676
aVnr
p5677
aV154
p5678
aV237
p5679
aV336
p5680
aV243
p5681
aa(lp5682
V02-11-2016
p5683
aV21
p5684
aVnr
p5685
aV223
p5686
aV89
p5687
aVnr
p5688
aV265
p5689
aVnr
p5690
aVnr
p5691
aVnr
p5692
aV165
p5693
aV210
p5694
aVnr
p5695
aV263
p5696
aV355
p5697
aVnr
p5698
aVnr
p5699
aV219
p5700
aVnr
p5701
aVnr
p5702
aVnr
p5703
aVnr
p5704
aVnr
p5705
aV214
p5706
aV259
p5707
aVnr
p5708
aV216
p5709
aV239
p5710
aVnr
p5711
aV121
p5712
aV233
p5713
aVnr
p5714
aVnr
p5715
aVnr
p5716
aVnr
p5717
aV252
p5718
aVnr
p5719
aV258
p5720
aVnr
p5721
aVnr
p5722
aV154
p5723
aV237
p5724
aV336
p5725
aV243
p5726
aa(lp5727
V02-11-2016
p5728
aV21
p5729
aVnr
p5730
aV223
p5731
aV89
p5732
aVnr
p5733
aV265
p5734
aVnr
p5735
aVnr
p5736
aVnr
p5737
aV165
p5738
aV210
p5739
aVnr
p5740
aV263
p5741
aV355
p5742
aVnr
p5743
aVnr
p5744
aV219
p5745
aVnr
p5746
aVnr
p5747
aVnr
p5748
aVnr
p5749
aVnr
p5750
aV214
p5751
aV259
p5752
aVnr
p5753
aV216
p5754
aV239
p5755
aVnr
p5756
aV121
p5757
aV233
p5758
aVnr
p5759
aVnr
p5760
aVnr
p5761
aVnr
p5762
aV252
p5763
aVnr
p5764
aV258
p5765
aVnr
p5766
aVnr
p5767
aV154
p5768
aV237
p5769
aV336
p5770
aV243
p5771
aa(lp5772
V02-11-2016
p5773
aV21
p5774
aVnr
p5775
aV223
p5776
aV89
p5777
aVnr
p5778
aV265
p5779
aVnr
p5780
aVnr
p5781
aVnr
p5782
aV165
p5783
aV210
p5784
aVnr
p5785
aV263
p5786
aV355
p5787
aVnr
p5788
aVnr
p5789
aV219
p5790
aVnr
p5791
aVnr
p5792
aVnr
p5793
aVnr
p5794
aVnr
p5795
aV214
p5796
aV259
p5797
aVnr
p5798
aV216
p5799
aV239
p5800
aVnr
p5801
aV121
p5802
aV233
p5803
aVnr
p5804
aVnr
p5805
aVnr
p5806
aVnr
p5807
aV252
p5808
aVnr
p5809
aV258
p5810
aVnr
p5811
aVnr
p5812
aV154
p5813
aV237
p5814
aV336
p5815
aV243
p5816
aa(lp5817
V02-11-2016
p5818
aV21
p5819
aVnr
p5820
aV223
p5821
aV89
p5822
aVnr
p5823
aV265
p5824
aVnr
p5825
aVnr
p5826
aVnr
p5827
aV165
p5828
aV210
p5829
aVnr
p5830
aV263
p5831
aV355
p5832
aVnr
p5833
aVnr
p5834
aV219
p5835
aVnr
p5836
aVnr
p5837
aVnr
p5838
aVnr
p5839
aVnr
p5840
aV214
p5841
aV259
p5842
aVnr
p5843
aV216
p5844
aV239
p5845
aVnr
p5846
aV121
p5847
aV233
p5848
aVnr
p5849
aVnr
p5850
aVnr
p5851
aVnr
p5852
aV252
p5853
aVnr
p5854
aV258
p5855
aVnr
p5856
aVnr
p5857
aV154
p5858
aV237
p5859
aV336
p5860
aV243
p5861
aa(lp5862
V02-11-2016
p5863
aV22
p5864
aVnr
p5865
aV207
p5866
aV292
p5867
aVnr
p5868
aV198
p5869
aVnr
p5870
aVnr
p5871
aVnr
p5872
aV156
p5873
aV338
p5874
aVnr
p5875
aV237
p5876
aV320
p5877
aVnr
p5878
aVnr
p5879
aV221
p5880
aVnr
p5881
aVnr
p5882
aVnr
p5883
aVnr
p5884
aVnr
p5885
aV227
p5886
aVnr
p5887
aVnr
p5888
aV219
p5889
aV184
p5890
aVnr
p5891
aV219
p5892
aV225
p5893
aVnr
p5894
aVnr
p5895
aVnr
p5896
aVnr
p5897
aV233
p5898
aVnr
p5899
aV235
p5900
aVnr
p5901
aVnr
p5902
aV234
p5903
aV229
p5904
aV261
p5905
aV236
p5906
aa(lp5907
V02-11-2016
p5908
aV22
p5909
aVnr
p5910
aV207
p5911
aV292
p5912
aVnr
p5913
aV198
p5914
aVnr
p5915
aVnr
p5916
aVnr
p5917
aV156
p5918
aV338
p5919
aVnr
p5920
aV237
p5921
aV320
p5922
aVnr
p5923
aVnr
p5924
aV221
p5925
aVnr
p5926
aVnr
p5927
aVnr
p5928
aVnr
p5929
aVnr
p5930
aV227
p5931
aVnr
p5932
aVnr
p5933
aV219
p5934
aV184
p5935
aVnr
p5936
aV219
p5937
aV225
p5938
aVnr
p5939
aVnr
p5940
aVnr
p5941
aVnr
p5942
aV233
p5943
aVnr
p5944
aV235
p5945
aVnr
p5946
aVnr
p5947
aV234
p5948
aV229
p5949
aV261
p5950
aV236
p5951
aa(lp5952
V02-11-2016
p5953
aV22
p5954
aVnr
p5955
aV207
p5956
aV292
p5957
aVnr
p5958
aV198
p5959
aVnr
p5960
aVnr
p5961
aVnr
p5962
aV156
p5963
aV338
p5964
aVnr
p5965
aV237
p5966
aV320
p5967
aVnr
p5968
aVnr
p5969
aV221
p5970
aVnr
p5971
aVnr
p5972
aVnr
p5973
aVnr
p5974
aVnr
p5975
aV227
p5976
aVnr
p5977
aVnr
p5978
aV219
p5979
aV184
p5980
aVnr
p5981
aV219
p5982
aV225
p5983
aVnr
p5984
aVnr
p5985
aVnr
p5986
aVnr
p5987
aV233
p5988
aVnr
p5989
aV235
p5990
aVnr
p5991
aVnr
p5992
aV234
p5993
aV229
p5994
aV261
p5995
aV236
p5996
aa(lp5997
V02-11-2016
p5998
aV23
p5999
aVnr
p6000
aV212
p6001
aV221
p6002
aVnr
p6003
aV266
p6004
aVnr
p6005
aVnr
p6006
aVnr
p6007
aV138
p6008
aV33
p6009
aVnr
p6010
aV235
p6011
aV300
p6012
aVnr
p6013
aVnr
p6014
aV289
p6015
aVnr
p6016
aVnr
p6017
aVnr
p6018
aVnr
p6019
aVnr
p6020
aV298
p6021
aV266
p6022
aVnr
p6023
aV279
p6024
aV230
p6025
aVnr
p6026
aV229
p6027
aV227
p6028
aVnr
p6029
aVnr
p6030
aVnr
p6031
aVnr
p6032
aV216
p6033
aVnr
p6034
aV252
p6035
aVnr
p6036
aVnr
p6037
aV206
p6038
aV8
aV246
p6039
aV231
p6040
aa(lp6041
V02-11-2016
p6042
aV23
p6043
aVnr
p6044
aV212
p6045
aV221
p6046
aVnr
p6047
aV266
p6048
aVnr
p6049
aVnr
p6050
aVnr
p6051
aV138
p6052
aV33
p6053
aVnr
p6054
aV235
p6055
aV300
p6056
aVnr
p6057
aVnr
p6058
aV289
p6059
aVnr
p6060
aVnr
p6061
aVnr
p6062
aVnr
p6063
aVnr
p6064
aV298
p6065
aV266
p6066
aVnr
p6067
aV279
p6068
aV230
p6069
aVnr
p6070
aV229
p6071
aV227
p6072
aVnr
p6073
aVnr
p6074
aVnr
p6075
aVnr
p6076
aV216
p6077
aVnr
p6078
aV252
p6079
aVnr
p6080
aVnr
p6081
aV206
p6082
aV8
aV246
p6083
aV231
p6084
aa(lp6085
V02-11-2016
p6086
aV23
p6087
aVnr
p6088
aV212
p6089
aV221
p6090
aVnr
p6091
aV266
p6092
aVnr
p6093
aVnr
p6094
aVnr
p6095
aV138
p6096
aV33
p6097
aVnr
p6098
aV235
p6099
aV300
p6100
aVnr
p6101
aVnr
p6102
aV289
p6103
aVnr
p6104
aVnr
p6105
aVnr
p6106
aVnr
p6107
aVnr
p6108
aV298
p6109
aV266
p6110
aVnr
p6111
aV279
p6112
aV230
p6113
aVnr
p6114
aV229
p6115
aV227
p6116
aVnr
p6117
aVnr
p6118
aVnr
p6119
aVnr
p6120
aV216
p6121
aVnr
p6122
aV252
p6123
aVnr
p6124
aVnr
p6125
aV206
p6126
aV8
aV246
p6127
aV231
p6128
aa(lp6129
V02-11-2016
p6130
aV23
p6131
aVnr
p6132
aV212
p6133
aV221
p6134
aVnr
p6135
aV266
p6136
aVnr
p6137
aVnr
p6138
aVnr
p6139
aV138
p6140
aV33
p6141
aVnr
p6142
aV235
p6143
aV300
p6144
aVnr
p6145
aVnr
p6146
aV289
p6147
aVnr
p6148
aVnr
p6149
aVnr
p6150
aVnr
p6151
aVnr
p6152
aV298
p6153
aV266
p6154
aVnr
p6155
aV279
p6156
aV230
p6157
aVnr
p6158
aV229
p6159
aV227
p6160
aVnr
p6161
aVnr
p6162
aVnr
p6163
aVnr
p6164
aV216
p6165
aVnr
p6166
aV252
p6167
aVnr
p6168
aVnr
p6169
aV206
p6170
aV8
aV246
p6171
aV231
p6172
aa(lp6173
V02-11-2016
p6174
aV24
p6175
aVnr
p6176
aV164
p6177
aV200
p6178
aVnr
p6179
aV31
p6180
aVnr
p6181
aVnr
p6182
aVnr
p6183
aV87
p6184
aV117
p6185
aVnr
p6186
aV210
p6187
aV318
p6188
aVnr
p6189
aVnr
p6190
aV253
p6191
aVnr
p6192
aVnr
p6193
aVnr
p6194
aVnr
p6195
aVnr
p6196
aV302
p6197
aV334
p6198
aVnr
p6199
aV155
p6200
aV155
p6201
aVnr
p6202
aV92
p6203
aV216
p6204
aVnr
p6205
aVnr
p6206
aVnr
p6207
aVnr
p6208
aV152
p6209
aVnr
p6210
aV284
p6211
aVnr
p6212
aVnr
p6213
aV111
p6214
aV90
p6215
aV266
p6216
aV47
p6217
aa(lp6218
V05-11-2016
p6219
aV8
aVnr
p6220
aV316
p6221
aV5
aVnr
p6222
aV313
p6223
aVnr
p6224
aVnr
p6225
aVnr
p6226
aV332
p6227
aV317
p6228
aVnr
p6229
aV22
p6230
aV339
p6231
aV289
p6232
aVnr
p6233
aV260
p6234
aVnr
p6235
aVnr
p6236
aVnr
p6237
aVnr
p6238
aVnr
p6239
aV304
p6240
aV325
p6241
aVnr
p6242
aV307
p6243
aV301
p6244
aVnr
p6245
aV16
p6246
aV322
p6247
aVnr
p6248
aV311
p6249
aVnr
p6250
aVnr
p6251
aV273
p6252
aVnr
p6253
aV307
p6254
aVnr
p6255
aVnr
p6256
aV302
p6257
aV312
p6258
aV301
p6259
aV344
p6260
aa(lp6261
V05-11-2016
p6262
aV9
aVnr
p6263
aV296
p6264
aV355
p6265
aVnr
p6266
aV311
p6267
aVnr
p6268
aVnr
p6269
aVnr
p6270
aV331
p6271
aV313
p6272
aVnr
p6273
aV327
p6274
aV1
aV271
p6275
aVnr
p6276
aV268
p6277
aVnr
p6278
aVnr
p6279
aVnr
p6280
aVnr
p6281
aVnr
p6282
aV300
p6283
aV327
p6284
aVnr
p6285
aV340
p6286
aV290
p6287
aVnr
p6288
aV357
p6289
aV315
p6290
aVnr
p6291
aV307
p6292
aVnr
p6293
aVnr
p6294
aV278
p6295
aVnr
p6296
aV294
p6297
aVnr
p6298
aVnr
p6299
aV310
p6300
aV326
p6301
aV323
p6302
aV13
p6303
aa(lp6304
V07-11-2016
p6305
aV8
aVnr
p6306
aV213
p6307
aV186
p6308
aVnr
p6309
aV103
p6310
aVnr
p6311
aVnr
p6312
aVnr
p6313
aV179
p6314
aV98
p6315
aVnr
p6316
aV189
p6317
aV263
p6318
aV249
p6319
aVnr
p6320
aV47
p6321
aVnr
p6322
aVnr
p6323
aVnr
p6324
aVnr
p6325
aVnr
p6326
aV100
p6327
aV51
p6328
aVnr
p6329
aV25
p6330
aV175
p6331
aVnr
p6332
aV29
p6333
aV210
p6334
aVnr
p6335
aVnr
p6336
aVnr
p6337
aVnr
p6338
aV295
p6339
aVnr
p6340
aV257
p6341
aVnr
p6342
aVnr
p6343
aV59
p6344
aV47
p6345
aV315
p6346
aV95
p6347
aa(lp6348
V07-11-2016
p6349
aV9
aV73
p6350
aV47
p6351
aV162
p6352
aVnr
p6353
aV186
p6354
aVnr
p6355
aVnr
p6356
aVnr
p6357
aV176
p6358
aV107
p6359
aVnr
p6360
aV37
p6361
aV313
p6362
aV333
p6363
aV144
p6364
aV64
p6365
aVnr
p6366
aV124
p6367
aVnr
p6368
aVnr
p6369
aVnr
p6370
aV99
p6371
aV136
p6372
aV36
p6373
aV53
p6374
aV101
p6375
aVnr
p6376
aVnr
p6377
aV136
p6378
aVnr
p6379
aVnr
p6380
aVnr
p6381
aVnr
p6382
aV57
p6383
aVnr
p6384
aV185
p6385
aVnr
p6386
aVnr
p6387
aV117
p6388
aV64
p6389
aV295
p6390
aV119
p6391
aa(lp6392
V07-11-2016
p6393
aV10
p6394
aV194
p6395
aV54
p6396
aV31
p6397
aVnr
p6398
aV154
p6399
aVnr
p6400
aVnr
p6401
aVnr
p6402
aV253
p6403
aV309
p6404
aVnr
p6405
aV73
p6406
aV177
p6407
aV67
p6408
aVnr
p6409
aV71
p6410
aVnr
p6411
aV23
p6412
aVnr
p6413
aVnr
p6414
aVnr
p6415
aV89
p6416
aV131
p6417
aV349
p6418
aVnr
p6419
aV92
p6420
aVnr
p6421
aVnr
p6422
aV81
p6423
aVnr
p6424
aV119
p6425
aVnr
p6426
aVnr
p6427
aV94
p6428
aVnr
p6429
aV134
p6430
aVnr
p6431
aVnr
p6432
aV89
p6433
aV114
p6434
aV65
p6435
aV110
p6436
aasS'so2'
p6437
(lp6438
(lp6439
V02-11-2016
p6440
aV21
p6441
aV1
aV1
aVnr
p6442
aVnr
p6443
aV1
aVnr
p6444
aV4
aVnr
p6445
aV2
aVnr
p6446
aV2
aV1
aVnr
p6447
aV3
aV2
aVnr
p6448
aVnr
p6449
aV3
aV1
aV4
aVnr
p6450
aV3
aVnr
p6451
aVnr
p6452
aVnr
p6453
aV2
aV2
aV3
aV2
aVnr
p6454
aV3
aVnr
p6455
aV5
aVnr
p6456
aVnr
p6457
aV2
aVnr
p6458
aVnr
p6459
aV4
aV3
aVnr
p6460
aVnr
p6461
aV4
aVnr
p6462
aV1
aV4
aa(lp6463
V02-11-2016
p6464
aV21
p6465
aV1
aV1
aVnr
p6466
aVnr
p6467
aV1
aVnr
p6468
aV4
aVnr
p6469
aV2
aVnr
p6470
aV2
aV1
aVnr
p6471
aV3
aV2
aVnr
p6472
aVnr
p6473
aV3
aV1
aV4
aVnr
p6474
aV3
aVnr
p6475
aVnr
p6476
aVnr
p6477
aV2
aV2
aV3
aV2
aVnr
p6478
aV3
aVnr
p6479
aV5
aVnr
p6480
aVnr
p6481
aV2
aVnr
p6482
aVnr
p6483
aV4
aV3
aVnr
p6484
aVnr
p6485
aV4
aVnr
p6486
aV1
aV4
aa(lp6487
V02-11-2016
p6488
aV21
p6489
aV1
aV1
aVnr
p6490
aVnr
p6491
aV1
aVnr
p6492
aV4
aVnr
p6493
aV2
aVnr
p6494
aV2
aV1
aVnr
p6495
aV3
aV2
aVnr
p6496
aVnr
p6497
aV3
aV1
aV4
aVnr
p6498
aV3
aVnr
p6499
aVnr
p6500
aVnr
p6501
aV2
aV2
aV3
aV2
aVnr
p6502
aV3
aVnr
p6503
aV5
aVnr
p6504
aVnr
p6505
aV2
aVnr
p6506
aVnr
p6507
aV4
aV3
aVnr
p6508
aVnr
p6509
aV4
aVnr
p6510
aV1
aV4
aa(lp6511
V02-11-2016
p6512
aV21
p6513
aV1
aV1
aVnr
p6514
aVnr
p6515
aV1
aVnr
p6516
aV4
aVnr
p6517
aV2
aVnr
p6518
aV2
aV1
aVnr
p6519
aV3
aV2
aVnr
p6520
aVnr
p6521
aV3
aV1
aV4
aVnr
p6522
aV3
aVnr
p6523
aVnr
p6524
aVnr
p6525
aV2
aV2
aV3
aV2
aVnr
p6526
aV3
aVnr
p6527
aV5
aVnr
p6528
aVnr
p6529
aV2
aVnr
p6530
aVnr
p6531
aV4
aV3
aVnr
p6532
aVnr
p6533
aV4
aVnr
p6534
aV1
aV4
aa(lp6535
V02-11-2016
p6536
aV21
p6537
aV1
aV1
aVnr
p6538
aVnr
p6539
aV1
aVnr
p6540
aV4
aVnr
p6541
aV2
aVnr
p6542
aV2
aV1
aVnr
p6543
aV3
aV2
aVnr
p6544
aVnr
p6545
aV3
aV1
aV4
aVnr
p6546
aV3
aVnr
p6547
aVnr
p6548
aVnr
p6549
aV2
aV2
aV3
aV2
aVnr
p6550
aV3
aVnr
p6551
aV5
aVnr
p6552
aVnr
p6553
aV2
aVnr
p6554
aVnr
p6555
aV4
aV3
aVnr
p6556
aVnr
p6557
aV4
aVnr
p6558
aV1
aV4
aa(lp6559
V02-11-2016
p6560
aV21
p6561
aV1
aV1
aVnr
p6562
aVnr
p6563
aV1
aVnr
p6564
aV4
aVnr
p6565
aV2
aVnr
p6566
aV2
aV1
aVnr
p6567
aV3
aV2
aVnr
p6568
aVnr
p6569
aV3
aV1
aV4
aVnr
p6570
aV3
aVnr
p6571
aVnr
p6572
aVnr
p6573
aV2
aV2
aV3
aV2
aVnr
p6574
aV3
aVnr
p6575
aV5
aVnr
p6576
aVnr
p6577
aV2
aVnr
p6578
aVnr
p6579
aV4
aV3
aVnr
p6580
aVnr
p6581
aV4
aVnr
p6582
aV1
aV4
aa(lp6583
V02-11-2016
p6584
aV21
p6585
aV1
aV1
aVnr
p6586
aVnr
p6587
aV1
aVnr
p6588
aV4
aVnr
p6589
aV2
aVnr
p6590
aV2
aV1
aVnr
p6591
aV3
aV2
aVnr
p6592
aVnr
p6593
aV3
aV1
aV4
aVnr
p6594
aV3
aVnr
p6595
aVnr
p6596
aVnr
p6597
aV2
aV2
aV3
aV2
aVnr
p6598
aV3
aVnr
p6599
aV5
aVnr
p6600
aVnr
p6601
aV2
aVnr
p6602
aVnr
p6603
aV4
aV3
aVnr
p6604
aVnr
p6605
aV4
aVnr
p6606
aV1
aV4
aa(lp6607
V02-11-2016
p6608
aV21
p6609
aV1
aV1
aVnr
p6610
aVnr
p6611
aV1
aVnr
p6612
aV4
aVnr
p6613
aV2
aVnr
p6614
aV2
aV1
aVnr
p6615
aV3
aV2
aVnr
p6616
aVnr
p6617
aV3
aV1
aV4
aVnr
p6618
aV3
aVnr
p6619
aVnr
p6620
aVnr
p6621
aV2
aV2
aV3
aV2
aVnr
p6622
aV3
aVnr
p6623
aV5
aVnr
p6624
aVnr
p6625
aV2
aVnr
p6626
aVnr
p6627
aV4
aV3
aVnr
p6628
aVnr
p6629
aV4
aVnr
p6630
aV1
aV4
aa(lp6631
V02-11-2016
p6632
aV22
p6633
aV1
aV2
aVnr
p6634
aVnr
p6635
aV1
aVnr
p6636
aV2
aVnr
p6637
aV1
aVnr
p6638
aV2
aV1
aVnr
p6639
aV3
aV1
aVnr
p6640
aVnr
p6641
aV2
aV1
aV2
aVnr
p6642
aV2
aV3
aVnr
p6643
aVnr
p6644
aVnr
p6645
aV2
aV2
aV2
aVnr
p6646
aV5
aVnr
p6647
aV4
aVnr
p6648
aVnr
p6649
aV3
aVnr
p6650
aVnr
p6651
aV4
aV3
aVnr
p6652
aVnr
p6653
aV2
aVnr
p6654
aV1
aV5
aa(lp6655
V02-11-2016
p6656
aV22
p6657
aV1
aV2
aVnr
p6658
aVnr
p6659
aV1
aVnr
p6660
aV2
aVnr
p6661
aV1
aVnr
p6662
aV2
aV1
aVnr
p6663
aV3
aV1
aVnr
p6664
aVnr
p6665
aV2
aV1
aV2
aVnr
p6666
aV2
aV3
aVnr
p6667
aVnr
p6668
aVnr
p6669
aV2
aV2
aV2
aVnr
p6670
aV5
aVnr
p6671
aV4
aVnr
p6672
aVnr
p6673
aV3
aVnr
p6674
aVnr
p6675
aV4
aV3
aVnr
p6676
aVnr
p6677
aV2
aVnr
p6678
aV1
aV5
aa(lp6679
V02-11-2016
p6680
aV22
p6681
aV1
aV2
aVnr
p6682
aVnr
p6683
aV1
aVnr
p6684
aV2
aVnr
p6685
aV1
aVnr
p6686
aV2
aV1
aVnr
p6687
aV3
aV1
aVnr
p6688
aVnr
p6689
aV2
aV1
aV2
aVnr
p6690
aV2
aV3
aVnr
p6691
aVnr
p6692
aVnr
p6693
aV2
aV2
aV2
aVnr
p6694
aV5
aVnr
p6695
aV4
aVnr
p6696
aVnr
p6697
aV3
aVnr
p6698
aVnr
p6699
aV4
aV3
aVnr
p6700
aVnr
p6701
aV2
aVnr
p6702
aV1
aV5
aa(lp6703
V02-11-2016
p6704
aV22
p6705
aV1
aV2
aVnr
p6706
aVnr
p6707
aV1
aVnr
p6708
aV2
aVnr
p6709
aV1
aVnr
p6710
aV2
aV1
aVnr
p6711
aV3
aV1
aVnr
p6712
aVnr
p6713
aV2
aV1
aV2
aVnr
p6714
aV2
aV3
aVnr
p6715
aVnr
p6716
aVnr
p6717
aV2
aV2
aV2
aVnr
p6718
aV5
aVnr
p6719
aV4
aVnr
p6720
aVnr
p6721
aV3
aVnr
p6722
aVnr
p6723
aV4
aV3
aVnr
p6724
aVnr
p6725
aV2
aVnr
p6726
aV1
aV5
aa(lp6727
V02-11-2016
p6728
aV23
p6729
aV2
aV4
aVnr
p6730
aVnr
p6731
aV1
aVnr
p6732
aV2
aVnr
p6733
aV1
aVnr
p6734
aV2
aV2
aVnr
p6735
aV3
aV1
aVnr
p6736
aVnr
p6737
aV2
aV1
aV2
aVnr
p6738
aV3
aV3
aVnr
p6739
aVnr
p6740
aV2
aV2
aV2
aV2
aVnr
p6741
aV6
aVnr
p6742
aV3
aVnr
p6743
aVnr
p6744
aV3
aVnr
p6745
aVnr
p6746
aV3
aV3
aVnr
p6747
aVnr
p6748
aV2
aVnr
p6749
aV1
aV5
aa(lp6750
V02-11-2016
p6751
aV23
p6752
aV2
aV4
aVnr
p6753
aVnr
p6754
aV1
aVnr
p6755
aV2
aVnr
p6756
aV1
aVnr
p6757
aV2
aV2
aVnr
p6758
aV3
aV1
aVnr
p6759
aVnr
p6760
aV2
aV1
aV2
aVnr
p6761
aV3
aV3
aVnr
p6762
aVnr
p6763
aV2
aV2
aV2
aV2
aVnr
p6764
aV6
aVnr
p6765
aV3
aVnr
p6766
aVnr
p6767
aV3
aVnr
p6768
aVnr
p6769
aV3
aV3
aVnr
p6770
aVnr
p6771
aV2
aVnr
p6772
aV1
aV5
aa(lp6773
V02-11-2016
p6774
aV23
p6775
aV2
aV4
aVnr
p6776
aVnr
p6777
aV1
aVnr
p6778
aV2
aVnr
p6779
aV1
aVnr
p6780
aV2
aV2
aVnr
p6781
aV3
aV1
aVnr
p6782
aVnr
p6783
aV2
aV1
aV2
aVnr
p6784
aV3
aV3
aVnr
p6785
aVnr
p6786
aV2
aV2
aV2
aV2
aVnr
p6787
aV6
aVnr
p6788
aV3
aVnr
p6789
aVnr
p6790
aV3
aVnr
p6791
aVnr
p6792
aV3
aV3
aVnr
p6793
aVnr
p6794
aV2
aVnr
p6795
aV1
aV5
aa(lp6796
V02-11-2016
p6797
aV24
p6798
aV2
aV10
p6799
aVnr
p6800
aVnr
p6801
aV0
aVnr
p6802
aV2
aVnr
p6803
aV1
aVnr
p6804
aV2
aV2
aVnr
p6805
aV4
aV1
aVnr
p6806
aVnr
p6807
aV2
aV2
aV2
aVnr
p6808
aV3
aV3
aVnr
p6809
aVnr
p6810
aV2
aV2
aV2
aV2
aVnr
p6811
aV5
aVnr
p6812
aV4
aVnr
p6813
aVnr
p6814
aV2
aVnr
p6815
aVnr
p6816
aV3
aV3
aVnr
p6817
aVnr
p6818
aV2
aVnr
p6819
aV2
aV4
aa(lp6820
V05-11-2016
p6821
aV8
aVnr
p6822
aV1
aVnr
p6823
aVnr
p6824
aV0
aVnr
p6825
aV3
aV3
aV2
aVnr
p6826
aV1
aV2
aVnr
p6827
aV2
aV1
aV1
aVnr
p6828
aV4
aV1
aV2
aVnr
p6829
aV2
aVnr
p6830
aVnr
p6831
aV4
aV2
aV1
aV1
aV2
aVnr
p6832
aV2
aVnr
p6833
aV2
aVnr
p6834
aVnr
p6835
aV2
aVnr
p6836
aVnr
p6837
aV3
aV2
aVnr
p6838
aV2
aV2
aVnr
p6839
aV0
aV2
aa(lp6840
V05-11-2016
p6841
aV9
aVnr
p6842
aV1
aVnr
p6843
aVnr
p6844
aV0
aVnr
p6845
aV2
aV3
aV1
aVnr
p6846
aV1
aV1
aVnr
p6847
aV2
aV1
aV0
aVnr
p6848
aV4
aV1
aV2
aVnr
p6849
aV2
aV1
aVnr
p6850
aV4
aV2
aV1
aV1
aV2
aVnr
p6851
aV3
aVnr
p6852
aV2
aVnr
p6853
aVnr
p6854
aV2
aVnr
p6855
aVnr
p6856
aV2
aV2
aVnr
p6857
aV1
aV2
aVnr
p6858
aV1
aV2
aa(lp6859
V07-11-2016
p6860
aV8
aV2
aV2
aVnr
p6861
aVnr
p6862
aV1
aVnr
p6863
aV6
aV6
aV4
aVnr
p6864
aV2
aV2
aVnr
p6865
aV5
aV2
aV4
aVnr
p6866
aV4
aV1
aV6
aVnr
p6867
aV6
aV4
aVnr
p6868
aV7
aV4
aV2
aV1
aV4
aVnr
p6869
aV6
aVnr
p6870
aV5
aVnr
p6871
aVnr
p6872
aV3
aVnr
p6873
aVnr
p6874
aV6
aV6
aVnr
p6875
aV4
aV5
aVnr
p6876
aV3
aV13
p6877
aa(lp6878
V07-11-2016
p6879
aV9
aV2
aV2
aVnr
p6880
aVnr
p6881
aV1
aVnr
p6882
aV7
aV5
aV5
aVnr
p6883
aV3
aV2
aVnr
p6884
aV4
aV2
aV4
aVnr
p6885
aV5
aV1
aV7
aVnr
p6886
aV11
p6887
aV7
aVnr
p6888
aV9
aV4
aV2
aV4
aV5
aVnr
p6889
aVnr
p6890
aVnr
p6891
aV5
aVnr
p6892
aVnr
p6893
aV4
aVnr
p6894
aVnr
p6895
aV6
aV7
aVnr
p6896
aV5
aV6
aVnr
p6897
aV5
aV12
p6898
aa(lp6899
V07-11-2016
p6900
aV10
p6901
aV4
aV2
aVnr
p6902
aVnr
p6903
aV2
aVnr
p6904
aV5
aVnr
p6905
aV4
aVnr
p6906
aV5
aV2
aVnr
p6907
aV3
aV6
aV4
aVnr
p6908
aV5
aV1
aV5
aVnr
p6909
aV9
aVnr
p6910
aVnr
p6911
aV8
aV4
aV2
aVnr
p6912
aV4
aVnr
p6913
aVnr
p6914
aVnr
p6915
aV6
aVnr
p6916
aVnr
p6917
aV4
aVnr
p6918
aVnr
p6919
aV6
aV8
aVnr
p6920
aV4
aV5
aVnr
p6921
aV8
aV10
p6922
aasS'nox'
p6923
(lp6924
(lp6925
V02-11-2016
p6926
aV21
p6927
aV19
p6928
aV6
aVnr
p6929
aV39
p6930
aVnr
p6931
aVnr
p6932
aVnr
p6933
aV14
p6934
aVnr
p6935
aV38
p6936
aVnr
p6937
aV41
p6938
aV16
p6939
aV17
p6940
aVnr
p6941
aVnr
p6942
aV24
p6943
aVnr
p6944
aV29
p6945
aVnr
p6946
aVnr
p6947
aVnr
p6948
aVnr
p6949
aV18
p6950
aVnr
p6951
aV48
p6952
aV20
p6953
aVnr
p6954
aV46
p6955
aVnr
p6956
aV39
p6957
aVnr
p6958
aVnr
p6959
aV9
aVnr
p6960
aVnr
p6961
aV29
p6962
aV74
p6963
aVnr
p6964
aV31
p6965
aV32
p6966
aV22
p6967
aV91
p6968
aa(lp6969
V02-11-2016
p6970
aV21
p6971
aV19
p6972
aV6
aVnr
p6973
aV39
p6974
aVnr
p6975
aVnr
p6976
aVnr
p6977
aV14
p6978
aVnr
p6979
aV38
p6980
aVnr
p6981
aV41
p6982
aV16
p6983
aV17
p6984
aVnr
p6985
aVnr
p6986
aV24
p6987
aVnr
p6988
aV29
p6989
aVnr
p6990
aVnr
p6991
aVnr
p6992
aVnr
p6993
aV18
p6994
aVnr
p6995
aV48
p6996
aV20
p6997
aVnr
p6998
aV46
p6999
aVnr
p7000
aV39
p7001
aVnr
p7002
aVnr
p7003
aV9
aVnr
p7004
aVnr
p7005
aV29
p7006
aV74
p7007
aVnr
p7008
aV31
p7009
aV32
p7010
aV22
p7011
aV91
p7012
aa(lp7013
V02-11-2016
p7014
aV21
p7015
aV19
p7016
aV6
aVnr
p7017
aV39
p7018
aVnr
p7019
aVnr
p7020
aVnr
p7021
aV14
p7022
aVnr
p7023
aV38
p7024
aVnr
p7025
aV41
p7026
aV16
p7027
aV17
p7028
aVnr
p7029
aVnr
p7030
aV24
p7031
aVnr
p7032
aV29
p7033
aVnr
p7034
aVnr
p7035
aVnr
p7036
aVnr
p7037
aV18
p7038
aVnr
p7039
aV48
p7040
aV20
p7041
aVnr
p7042
aV46
p7043
aVnr
p7044
aV39
p7045
aVnr
p7046
aVnr
p7047
aV9
aVnr
p7048
aVnr
p7049
aV29
p7050
aV74
p7051
aVnr
p7052
aV31
p7053
aV32
p7054
aV22
p7055
aV91
p7056
aa(lp7057
V02-11-2016
p7058
aV21
p7059
aV19
p7060
aV6
aVnr
p7061
aV39
p7062
aVnr
p7063
aVnr
p7064
aVnr
p7065
aV14
p7066
aVnr
p7067
aV38
p7068
aVnr
p7069
aV41
p7070
aV16
p7071
aV17
p7072
aVnr
p7073
aVnr
p7074
aV24
p7075
aVnr
p7076
aV29
p7077
aVnr
p7078
aVnr
p7079
aVnr
p7080
aVnr
p7081
aV18
p7082
aVnr
p7083
aV48
p7084
aV20
p7085
aVnr
p7086
aV46
p7087
aVnr
p7088
aV39
p7089
aVnr
p7090
aVnr
p7091
aV9
aVnr
p7092
aVnr
p7093
aV29
p7094
aV74
p7095
aVnr
p7096
aV31
p7097
aV32
p7098
aV22
p7099
aV91
p7100
aa(lp7101
V02-11-2016
p7102
aV21
p7103
aV19
p7104
aV6
aVnr
p7105
aV39
p7106
aVnr
p7107
aVnr
p7108
aVnr
p7109
aV14
p7110
aVnr
p7111
aV38
p7112
aVnr
p7113
aV41
p7114
aV16
p7115
aV17
p7116
aVnr
p7117
aVnr
p7118
aV24
p7119
aVnr
p7120
aV29
p7121
aVnr
p7122
aVnr
p7123
aVnr
p7124
aVnr
p7125
aV18
p7126
aVnr
p7127
aV48
p7128
aV20
p7129
aVnr
p7130
aV46
p7131
aVnr
p7132
aV39
p7133
aVnr
p7134
aVnr
p7135
aV9
aVnr
p7136
aVnr
p7137
aV29
p7138
aV74
p7139
aVnr
p7140
aV31
p7141
aV32
p7142
aV22
p7143
aV91
p7144
aa(lp7145
V02-11-2016
p7146
aV21
p7147
aV19
p7148
aV6
aVnr
p7149
aV39
p7150
aVnr
p7151
aVnr
p7152
aVnr
p7153
aV14
p7154
aVnr
p7155
aV38
p7156
aVnr
p7157
aV41
p7158
aV16
p7159
aV17
p7160
aVnr
p7161
aVnr
p7162
aV24
p7163
aVnr
p7164
aV29
p7165
aVnr
p7166
aVnr
p7167
aVnr
p7168
aVnr
p7169
aV18
p7170
aVnr
p7171
aV48
p7172
aV20
p7173
aVnr
p7174
aV46
p7175
aVnr
p7176
aV39
p7177
aVnr
p7178
aVnr
p7179
aV9
aVnr
p7180
aVnr
p7181
aV29
p7182
aV74
p7183
aVnr
p7184
aV31
p7185
aV32
p7186
aV22
p7187
aV91
p7188
aa(lp7189
V02-11-2016
p7190
aV21
p7191
aV19
p7192
aV6
aVnr
p7193
aV39
p7194
aVnr
p7195
aVnr
p7196
aVnr
p7197
aV14
p7198
aVnr
p7199
aV38
p7200
aVnr
p7201
aV41
p7202
aV16
p7203
aV17
p7204
aVnr
p7205
aVnr
p7206
aV24
p7207
aVnr
p7208
aV29
p7209
aVnr
p7210
aVnr
p7211
aVnr
p7212
aVnr
p7213
aV18
p7214
aVnr
p7215
aV48
p7216
aV20
p7217
aVnr
p7218
aV46
p7219
aVnr
p7220
aV39
p7221
aVnr
p7222
aVnr
p7223
aV9
aVnr
p7224
aVnr
p7225
aV29
p7226
aV74
p7227
aVnr
p7228
aV31
p7229
aV32
p7230
aV22
p7231
aV91
p7232
aa(lp7233
V02-11-2016
p7234
aV21
p7235
aV19
p7236
aV6
aVnr
p7237
aV39
p7238
aVnr
p7239
aVnr
p7240
aVnr
p7241
aV14
p7242
aVnr
p7243
aV38
p7244
aVnr
p7245
aV41
p7246
aV16
p7247
aV17
p7248
aVnr
p7249
aVnr
p7250
aV24
p7251
aVnr
p7252
aV29
p7253
aVnr
p7254
aVnr
p7255
aVnr
p7256
aVnr
p7257
aV18
p7258
aVnr
p7259
aV48
p7260
aV20
p7261
aVnr
p7262
aV46
p7263
aVnr
p7264
aV39
p7265
aVnr
p7266
aVnr
p7267
aV9
aVnr
p7268
aVnr
p7269
aV29
p7270
aV74
p7271
aVnr
p7272
aV31
p7273
aV32
p7274
aV22
p7275
aV91
p7276
aa(lp7277
V02-11-2016
p7278
aV22
p7279
aV28
p7280
aV9
aVnr
p7281
aV47
p7282
aVnr
p7283
aVnr
p7284
aVnr
p7285
aV25
p7286
aVnr
p7287
aV44
p7288
aVnr
p7289
aV38
p7290
aV24
p7291
aV11
p7292
aVnr
p7293
aVnr
p7294
aV33
p7295
aVnr
p7296
aV33
p7297
aVnr
p7298
aVnr
p7299
aVnr
p7300
aVnr
p7301
aVnr
p7302
aVnr
p7303
aV40
p7304
aV24
p7305
aVnr
p7306
aV53
p7307
aVnr
p7308
aV42
p7309
aVnr
p7310
aVnr
p7311
aV9
aVnr
p7312
aVnr
p7313
aV36
p7314
aV60
p7315
aVnr
p7316
aV17
p7317
aV29
p7318
aV28
p7319
aV72
p7320
aa(lp7321
V02-11-2016
p7322
aV22
p7323
aV28
p7324
aV9
aVnr
p7325
aV47
p7326
aVnr
p7327
aVnr
p7328
aVnr
p7329
aV25
p7330
aVnr
p7331
aV44
p7332
aVnr
p7333
aV38
p7334
aV24
p7335
aV11
p7336
aVnr
p7337
aVnr
p7338
aV33
p7339
aVnr
p7340
aV33
p7341
aVnr
p7342
aVnr
p7343
aVnr
p7344
aVnr
p7345
aVnr
p7346
aVnr
p7347
aV40
p7348
aV24
p7349
aVnr
p7350
aV53
p7351
aVnr
p7352
aV42
p7353
aVnr
p7354
aVnr
p7355
aV9
aVnr
p7356
aVnr
p7357
aV36
p7358
aV60
p7359
aVnr
p7360
aV17
p7361
aV29
p7362
aV28
p7363
aV72
p7364
aa(lp7365
V02-11-2016
p7366
aV22
p7367
aV28
p7368
aV9
aVnr
p7369
aV47
p7370
aVnr
p7371
aVnr
p7372
aVnr
p7373
aV25
p7374
aVnr
p7375
aV44
p7376
aVnr
p7377
aV38
p7378
aV24
p7379
aV11
p7380
aVnr
p7381
aVnr
p7382
aV33
p7383
aVnr
p7384
aV33
p7385
aVnr
p7386
aVnr
p7387
aVnr
p7388
aVnr
p7389
aVnr
p7390
aVnr
p7391
aV40
p7392
aV24
p7393
aVnr
p7394
aV53
p7395
aVnr
p7396
aV42
p7397
aVnr
p7398
aVnr
p7399
aV9
aVnr
p7400
aVnr
p7401
aV36
p7402
aV60
p7403
aVnr
p7404
aV17
p7405
aV29
p7406
aV28
p7407
aV72
p7408
aa(lp7409
V02-11-2016
p7410
aV23
p7411
aV44
p7412
aV6
aVnr
p7413
aV55
p7414
aVnr
p7415
aVnr
p7416
aVnr
p7417
aV22
p7418
aVnr
p7419
aV42
p7420
aVnr
p7421
aV39
p7422
aV37
p7423
aV9
aVnr
p7424
aVnr
p7425
aV49
p7426
aVnr
p7427
aV48
p7428
aVnr
p7429
aVnr
p7430
aVnr
p7431
aVnr
p7432
aV34
p7433
aVnr
p7434
aV43
p7435
aV18
p7436
aVnr
p7437
aV55
p7438
aVnr
p7439
aV37
p7440
aVnr
p7441
aVnr
p7442
aV15
p7443
aVnr
p7444
aVnr
p7445
aV38
p7446
aV67
p7447
aVnr
p7448
aV33
p7449
aV38
p7450
aV30
p7451
aV75
p7452
aa(lp7453
V02-11-2016
p7454
aV23
p7455
aV44
p7456
aV6
aVnr
p7457
aV55
p7458
aVnr
p7459
aVnr
p7460
aVnr
p7461
aV22
p7462
aVnr
p7463
aV42
p7464
aVnr
p7465
aV39
p7466
aV37
p7467
aV9
aVnr
p7468
aVnr
p7469
aV49
p7470
aVnr
p7471
aV48
p7472
aVnr
p7473
aVnr
p7474
aVnr
p7475
aVnr
p7476
aV34
p7477
aVnr
p7478
aV43
p7479
aV18
p7480
aVnr
p7481
aV55
p7482
aVnr
p7483
aV37
p7484
aVnr
p7485
aVnr
p7486
aV15
p7487
aVnr
p7488
aVnr
p7489
aV38
p7490
aV67
p7491
aVnr
p7492
aV33
p7493
aV38
p7494
aV30
p7495
aV75
p7496
aa(lp7497
V02-11-2016
p7498
aV23
p7499
aV44
p7500
aV6
aVnr
p7501
aV55
p7502
aVnr
p7503
aVnr
p7504
aVnr
p7505
aV22
p7506
aVnr
p7507
aV42
p7508
aVnr
p7509
aV39
p7510
aV37
p7511
aV9
aVnr
p7512
aVnr
p7513
aV49
p7514
aVnr
p7515
aV48
p7516
aVnr
p7517
aVnr
p7518
aVnr
p7519
aVnr
p7520
aV34
p7521
aVnr
p7522
aV43
p7523
aV18
p7524
aVnr
p7525
aV55
p7526
aVnr
p7527
aV37
p7528
aVnr
p7529
aVnr
p7530
aV15
p7531
aVnr
p7532
aVnr
p7533
aV38
p7534
aV67
p7535
aVnr
p7536
aV33
p7537
aV38
p7538
aV30
p7539
aV75
p7540
aa(lp7541
V02-11-2016
p7542
aV23
p7543
aV44
p7544
aV6
aVnr
p7545
aV55
p7546
aVnr
p7547
aVnr
p7548
aVnr
p7549
aV22
p7550
aVnr
p7551
aV42
p7552
aVnr
p7553
aV39
p7554
aV37
p7555
aV9
aVnr
p7556
aVnr
p7557
aV49
p7558
aVnr
p7559
aV48
p7560
aVnr
p7561
aVnr
p7562
aVnr
p7563
aVnr
p7564
aV34
p7565
aVnr
p7566
aV43
p7567
aV18
p7568
aVnr
p7569
aV55
p7570
aVnr
p7571
aV37
p7572
aVnr
p7573
aVnr
p7574
aV15
p7575
aVnr
p7576
aVnr
p7577
aV38
p7578
aV67
p7579
aVnr
p7580
aV33
p7581
aV38
p7582
aV30
p7583
aV75
p7584
aa(lp7585
V02-11-2016
p7586
aV24
p7587
aV37
p7588
aV18
p7589
aVnr
p7590
aV25
p7591
aVnr
p7592
aVnr
p7593
aVnr
p7594
aV21
p7595
aVnr
p7596
aV33
p7597
aVnr
p7598
aV69
p7599
aV30
p7600
aV18
p7601
aVnr
p7602
aVnr
p7603
aV38
p7604
aVnr
p7605
aV67
p7606
aVnr
p7607
aVnr
p7608
aVnr
p7609
aVnr
p7610
aV35
p7611
aVnr
p7612
aV47
p7613
aV21
p7614
aVnr
p7615
aV57
p7616
aVnr
p7617
aV43
p7618
aVnr
p7619
aVnr
p7620
aV23
p7621
aVnr
p7622
aVnr
p7623
aV59
p7624
aV44
p7625
aVnr
p7626
aV41
p7627
aV49
p7628
aV41
p7629
aV85
p7630
aa(lp7631
V05-11-2016
p7632
aV8
aVnr
p7633
aV26
p7634
aVnr
p7635
aV35
p7636
aVnr
p7637
aVnr
p7638
aV47
p7639
aV31
p7640
aVnr
p7641
aV32
p7642
aVnr
p7643
aV46
p7644
aV18
p7645
aV43
p7646
aV16
p7647
aVnr
p7648
aV52
p7649
aVnr
p7650
aV43
p7651
aVnr
p7652
aVnr
p7653
aVnr
p7654
aV80
p7655
aV39
p7656
aVnr
p7657
aV44
p7658
aV34
p7659
aVnr
p7660
aV29
p7661
aVnr
p7662
aV39
p7663
aVnr
p7664
aVnr
p7665
aV21
p7666
aVnr
p7667
aVnr
p7668
aV48
p7669
aV31
p7670
aVnr
p7671
aV31
p7672
aV59
p7673
aV21
p7674
aV33
p7675
aa(lp7676
V05-11-2016
p7677
aV9
aVnr
p7678
aV12
p7679
aVnr
p7680
aV21
p7681
aVnr
p7682
aVnr
p7683
aV37
p7684
aV19
p7685
aVnr
p7686
aV17
p7687
aVnr
p7688
aV35
p7689
aV31
p7690
aV33
p7691
aV9
aVnr
p7692
aV50
p7693
aVnr
p7694
aV36
p7695
aVnr
p7696
aVnr
p7697
aVnr
p7698
aV66
p7699
aV30
p7700
aVnr
p7701
aV30
p7702
aV23
p7703
aVnr
p7704
aV36
p7705
aVnr
p7706
aV29
p7707
aVnr
p7708
aVnr
p7709
aV30
p7710
aVnr
p7711
aVnr
p7712
aV51
p7713
aV41
p7714
aVnr
p7715
aV31
p7716
aV60
p7717
aV23
p7718
aV35
p7719
aa(lp7720
V07-11-2016
p7721
aV8
aV65
p7722
aV43
p7723
aVnr
p7724
aVnr
p7725
aVnr
p7726
aVnr
p7727
aV190
p7728
aV135
p7729
aVnr
p7730
aV197
p7731
aVnr
p7732
aV159
p7733
aV153
p7734
aV148
p7735
aV202
p7736
aVnr
p7737
aV168
p7738
aVnr
p7739
aV162
p7740
aVnr
p7741
aVnr
p7742
aVnr
p7743
aV201
p7744
aV205
p7745
aVnr
p7746
aV77
p7747
aV85
p7748
aVnr
p7749
aV141
p7750
aVnr
p7751
aV217
p7752
aVnr
p7753
aVnr
p7754
aV57
p7755
aVnr
p7756
aVnr
p7757
aV212
p7758
aV184
p7759
aVnr
p7760
aV118
p7761
aV88
p7762
aV94
p7763
aV297
p7764
aa(lp7765
V07-11-2016
p7766
aV9
aV68
p7767
aV53
p7768
aVnr
p7769
aVnr
p7770
aVnr
p7771
aVnr
p7772
aV135
p7773
aV130
p7774
aVnr
p7775
aV103
p7776
aVnr
p7777
aV122
p7778
aV78
p7779
aVnr
p7780
aV132
p7781
aVnr
p7782
aV156
p7783
aVnr
p7784
aV156
p7785
aVnr
p7786
aVnr
p7787
aVnr
p7788
aV209
p7789
aV174
p7790
aVnr
p7791
aV61
p7792
aV69
p7793
aVnr
p7794
aVnr
p7795
aVnr
p7796
aV176
p7797
aVnr
p7798
aVnr
p7799
aV80
p7800
aVnr
p7801
aVnr
p7802
aV142
p7803
aV118
p7804
aVnr
p7805
aV100
p7806
aV97
p7807
aV96
p7808
aV218
p7809
aa(lp7810
V07-11-2016
p7811
aV10
p7812
aV31
p7813
aV62
p7814
aVnr
p7815
aVnr
p7816
aVnr
p7817
aVnr
p7818
aVnr
p7819
aV83
p7820
aVnr
p7821
aV36
p7822
aVnr
p7823
aV89
p7824
aV49
p7825
aVnr
p7826
aV141
p7827
aVnr
p7828
aV113
p7829
aVnr
p7830
aV102
p7831
aVnr
p7832
aVnr
p7833
aVnr
p7834
aV115
p7835
aV111
p7836
aVnr
p7837
aVnr
p7838
aV71
p7839
aVnr
p7840
aVnr
p7841
aVnr
p7842
aV85
p7843
aVnr
p7844
aVnr
p7845
aV37
p7846
aVnr
p7847
aVnr
p7848
aV104
p7849
aV105
p7850
aVnr
p7851
aV58
p7852
aV73
p7853
aV68
p7854
aV155
p7855
aasS'rh'
p7856
(lp7857
(lp7858
V02-11-2016
p7859
aV21
p7860
aVnr
p7861
aV68
p7862
aV91
p7863
aVnr
p7864
aV69
p7865
aVnr
p7866
aVnr
p7867
aVnr
p7868
aV80
p7869
aV87
p7870
aVnr
p7871
aV81
p7872
aV69
p7873
aVnr
p7874
aVnr
p7875
aV68
p7876
aVnr
p7877
aVnr
p7878
aVnr
p7879
aVnr
p7880
aVnr
p7881
aV72
p7882
aV73
p7883
aVnr
p7884
aV66
p7885
aV68
p7886
aVnr
p7887
aV48
p7888
aV77
p7889
aVnr
p7890
aVnr
p7891
aVnr
p7892
aVnr
p7893
aV75
p7894
aVnr
p7895
aV72
p7896
aVnr
p7897
aVnr
p7898
aV73
p7899
aV66
p7900
aV63
p7901
aV62
p7902
aa(lp7903
V02-11-2016
p7904
aV21
p7905
aVnr
p7906
aV68
p7907
aV91
p7908
aVnr
p7909
aV69
p7910
aVnr
p7911
aVnr
p7912
aVnr
p7913
aV80
p7914
aV87
p7915
aVnr
p7916
aV81
p7917
aV69
p7918
aVnr
p7919
aVnr
p7920
aV68
p7921
aVnr
p7922
aVnr
p7923
aVnr
p7924
aVnr
p7925
aVnr
p7926
aV72
p7927
aV73
p7928
aVnr
p7929
aV66
p7930
aV68
p7931
aVnr
p7932
aV48
p7933
aV77
p7934
aVnr
p7935
aVnr
p7936
aVnr
p7937
aVnr
p7938
aV75
p7939
aVnr
p7940
aV72
p7941
aVnr
p7942
aVnr
p7943
aV73
p7944
aV66
p7945
aV63
p7946
aV62
p7947
aa(lp7948
V02-11-2016
p7949
aV21
p7950
aVnr
p7951
aV68
p7952
aV91
p7953
aVnr
p7954
aV69
p7955
aVnr
p7956
aVnr
p7957
aVnr
p7958
aV80
p7959
aV87
p7960
aVnr
p7961
aV81
p7962
aV69
p7963
aVnr
p7964
aVnr
p7965
aV68
p7966
aVnr
p7967
aVnr
p7968
aVnr
p7969
aVnr
p7970
aVnr
p7971
aV72
p7972
aV73
p7973
aVnr
p7974
aV66
p7975
aV68
p7976
aVnr
p7977
aV48
p7978
aV77
p7979
aVnr
p7980
aVnr
p7981
aVnr
p7982
aVnr
p7983
aV75
p7984
aVnr
p7985
aV72
p7986
aVnr
p7987
aVnr
p7988
aV73
p7989
aV66
p7990
aV63
p7991
aV62
p7992
aa(lp7993
V02-11-2016
p7994
aV21
p7995
aVnr
p7996
aV68
p7997
aV91
p7998
aVnr
p7999
aV69
p8000
aVnr
p8001
aVnr
p8002
aVnr
p8003
aV80
p8004
aV87
p8005
aVnr
p8006
aV81
p8007
aV69
p8008
aVnr
p8009
aVnr
p8010
aV68
p8011
aVnr
p8012
aVnr
p8013
aVnr
p8014
aVnr
p8015
aVnr
p8016
aV72
p8017
aV73
p8018
aVnr
p8019
aV66
p8020
aV68
p8021
aVnr
p8022
aV48
p8023
aV77
p8024
aVnr
p8025
aVnr
p8026
aVnr
p8027
aVnr
p8028
aV75
p8029
aVnr
p8030
aV72
p8031
aVnr
p8032
aVnr
p8033
aV73
p8034
aV66
p8035
aV63
p8036
aV62
p8037
aa(lp8038
V02-11-2016
p8039
aV21
p8040
aVnr
p8041
aV68
p8042
aV91
p8043
aVnr
p8044
aV69
p8045
aVnr
p8046
aVnr
p8047
aVnr
p8048
aV80
p8049
aV87
p8050
aVnr
p8051
aV81
p8052
aV69
p8053
aVnr
p8054
aVnr
p8055
aV68
p8056
aVnr
p8057
aVnr
p8058
aVnr
p8059
aVnr
p8060
aVnr
p8061
aV72
p8062
aV73
p8063
aVnr
p8064
aV66
p8065
aV68
p8066
aVnr
p8067
aV48
p8068
aV77
p8069
aVnr
p8070
aVnr
p8071
aVnr
p8072
aVnr
p8073
aV75
p8074
aVnr
p8075
aV72
p8076
aVnr
p8077
aVnr
p8078
aV73
p8079
aV66
p8080
aV63
p8081
aV62
p8082
aa(lp8083
V02-11-2016
p8084
aV21
p8085
aVnr
p8086
aV68
p8087
aV91
p8088
aVnr
p8089
aV69
p8090
aVnr
p8091
aVnr
p8092
aVnr
p8093
aV80
p8094
aV87
p8095
aVnr
p8096
aV81
p8097
aV69
p8098
aVnr
p8099
aVnr
p8100
aV68
p8101
aVnr
p8102
aVnr
p8103
aVnr
p8104
aVnr
p8105
aVnr
p8106
aV72
p8107
aV73
p8108
aVnr
p8109
aV66
p8110
aV68
p8111
aVnr
p8112
aV48
p8113
aV77
p8114
aVnr
p8115
aVnr
p8116
aVnr
p8117
aVnr
p8118
aV75
p8119
aVnr
p8120
aV72
p8121
aVnr
p8122
aVnr
p8123
aV73
p8124
aV66
p8125
aV63
p8126
aV62
p8127
aa(lp8128
V02-11-2016
p8129
aV21
p8130
aVnr
p8131
aV68
p8132
aV91
p8133
aVnr
p8134
aV69
p8135
aVnr
p8136
aVnr
p8137
aVnr
p8138
aV80
p8139
aV87
p8140
aVnr
p8141
aV81
p8142
aV69
p8143
aVnr
p8144
aVnr
p8145
aV68
p8146
aVnr
p8147
aVnr
p8148
aVnr
p8149
aVnr
p8150
aVnr
p8151
aV72
p8152
aV73
p8153
aVnr
p8154
aV66
p8155
aV68
p8156
aVnr
p8157
aV48
p8158
aV77
p8159
aVnr
p8160
aVnr
p8161
aVnr
p8162
aVnr
p8163
aV75
p8164
aVnr
p8165
aV72
p8166
aVnr
p8167
aVnr
p8168
aV73
p8169
aV66
p8170
aV63
p8171
aV62
p8172
aa(lp8173
V02-11-2016
p8174
aV21
p8175
aVnr
p8176
aV68
p8177
aV91
p8178
aVnr
p8179
aV69
p8180
aVnr
p8181
aVnr
p8182
aVnr
p8183
aV80
p8184
aV87
p8185
aVnr
p8186
aV81
p8187
aV69
p8188
aVnr
p8189
aVnr
p8190
aV68
p8191
aVnr
p8192
aVnr
p8193
aVnr
p8194
aVnr
p8195
aVnr
p8196
aV72
p8197
aV73
p8198
aVnr
p8199
aV66
p8200
aV68
p8201
aVnr
p8202
aV48
p8203
aV77
p8204
aVnr
p8205
aVnr
p8206
aVnr
p8207
aVnr
p8208
aV75
p8209
aVnr
p8210
aV72
p8211
aVnr
p8212
aVnr
p8213
aV73
p8214
aV66
p8215
aV63
p8216
aV62
p8217
aa(lp8218
V02-11-2016
p8219
aV22
p8220
aVnr
p8221
aV67
p8222
aV94
p8223
aVnr
p8224
aV73
p8225
aVnr
p8226
aVnr
p8227
aVnr
p8228
aV81
p8229
aV88
p8230
aVnr
p8231
aV79
p8232
aV75
p8233
aVnr
p8234
aVnr
p8235
aV66
p8236
aVnr
p8237
aVnr
p8238
aVnr
p8239
aVnr
p8240
aVnr
p8241
aV72
p8242
aVnr
p8243
aVnr
p8244
aV69
p8245
aV76
p8246
aVnr
p8247
aV55
p8248
aV76
p8249
aVnr
p8250
aVnr
p8251
aVnr
p8252
aVnr
p8253
aV78
p8254
aVnr
p8255
aV72
p8256
aVnr
p8257
aVnr
p8258
aV83
p8259
aV78
p8260
aV71
p8261
aV65
p8262
aa(lp8263
V02-11-2016
p8264
aV22
p8265
aVnr
p8266
aV67
p8267
aV94
p8268
aVnr
p8269
aV73
p8270
aVnr
p8271
aVnr
p8272
aVnr
p8273
aV81
p8274
aV88
p8275
aVnr
p8276
aV79
p8277
aV75
p8278
aVnr
p8279
aVnr
p8280
aV66
p8281
aVnr
p8282
aVnr
p8283
aVnr
p8284
aVnr
p8285
aVnr
p8286
aV72
p8287
aVnr
p8288
aVnr
p8289
aV69
p8290
aV76
p8291
aVnr
p8292
aV55
p8293
aV76
p8294
aVnr
p8295
aVnr
p8296
aVnr
p8297
aVnr
p8298
aV78
p8299
aVnr
p8300
aV72
p8301
aVnr
p8302
aVnr
p8303
aV83
p8304
aV78
p8305
aV71
p8306
aV65
p8307
aa(lp8308
V02-11-2016
p8309
aV22
p8310
aVnr
p8311
aV67
p8312
aV94
p8313
aVnr
p8314
aV73
p8315
aVnr
p8316
aVnr
p8317
aVnr
p8318
aV81
p8319
aV88
p8320
aVnr
p8321
aV79
p8322
aV75
p8323
aVnr
p8324
aVnr
p8325
aV66
p8326
aVnr
p8327
aVnr
p8328
aVnr
p8329
aVnr
p8330
aVnr
p8331
aV72
p8332
aVnr
p8333
aVnr
p8334
aV69
p8335
aV76
p8336
aVnr
p8337
aV55
p8338
aV76
p8339
aVnr
p8340
aVnr
p8341
aVnr
p8342
aVnr
p8343
aV78
p8344
aVnr
p8345
aV72
p8346
aVnr
p8347
aVnr
p8348
aV83
p8349
aV78
p8350
aV71
p8351
aV65
p8352
aa(lp8353
V02-11-2016
p8354
aV23
p8355
aVnr
p8356
aV67
p8357
aV92
p8358
aVnr
p8359
aV75
p8360
aVnr
p8361
aVnr
p8362
aVnr
p8363
aV81
p8364
aV88
p8365
aVnr
p8366
aV77
p8367
aV83
p8368
aVnr
p8369
aVnr
p8370
aV70
p8371
aVnr
p8372
aVnr
p8373
aVnr
p8374
aVnr
p8375
aVnr
p8376
aV76
p8377
aV70
p8378
aVnr
p8379
aV69
p8380
aV76
p8381
aVnr
p8382
aV59
p8383
aV76
p8384
aVnr
p8385
aVnr
p8386
aVnr
p8387
aVnr
p8388
aV79
p8389
aVnr
p8390
aV72
p8391
aVnr
p8392
aVnr
p8393
aV81
p8394
aV81
p8395
aV73
p8396
aV70
p8397
aa(lp8398
V02-11-2016
p8399
aV23
p8400
aVnr
p8401
aV67
p8402
aV92
p8403
aVnr
p8404
aV75
p8405
aVnr
p8406
aVnr
p8407
aVnr
p8408
aV81
p8409
aV88
p8410
aVnr
p8411
aV77
p8412
aV83
p8413
aVnr
p8414
aVnr
p8415
aV70
p8416
aVnr
p8417
aVnr
p8418
aVnr
p8419
aVnr
p8420
aVnr
p8421
aV76
p8422
aV70
p8423
aVnr
p8424
aV69
p8425
aV76
p8426
aVnr
p8427
aV59
p8428
aV76
p8429
aVnr
p8430
aVnr
p8431
aVnr
p8432
aVnr
p8433
aV79
p8434
aVnr
p8435
aV72
p8436
aVnr
p8437
aVnr
p8438
aV81
p8439
aV81
p8440
aV73
p8441
aV70
p8442
aa(lp8443
V02-11-2016
p8444
aV23
p8445
aVnr
p8446
aV67
p8447
aV92
p8448
aVnr
p8449
aV75
p8450
aVnr
p8451
aVnr
p8452
aVnr
p8453
aV81
p8454
aV88
p8455
aVnr
p8456
aV77
p8457
aV83
p8458
aVnr
p8459
aVnr
p8460
aV70
p8461
aVnr
p8462
aVnr
p8463
aVnr
p8464
aVnr
p8465
aVnr
p8466
aV76
p8467
aV70
p8468
aVnr
p8469
aV69
p8470
aV76
p8471
aVnr
p8472
aV59
p8473
aV76
p8474
aVnr
p8475
aVnr
p8476
aVnr
p8477
aVnr
p8478
aV79
p8479
aVnr
p8480
aV72
p8481
aVnr
p8482
aVnr
p8483
aV81
p8484
aV81
p8485
aV73
p8486
aV70
p8487
aa(lp8488
V02-11-2016
p8489
aV23
p8490
aVnr
p8491
aV67
p8492
aV92
p8493
aVnr
p8494
aV75
p8495
aVnr
p8496
aVnr
p8497
aVnr
p8498
aV81
p8499
aV88
p8500
aVnr
p8501
aV77
p8502
aV83
p8503
aVnr
p8504
aVnr
p8505
aV70
p8506
aVnr
p8507
aVnr
p8508
aVnr
p8509
aVnr
p8510
aVnr
p8511
aV76
p8512
aV70
p8513
aVnr
p8514
aV69
p8515
aV76
p8516
aVnr
p8517
aV59
p8518
aV76
p8519
aVnr
p8520
aVnr
p8521
aVnr
p8522
aVnr
p8523
aV79
p8524
aVnr
p8525
aV72
p8526
aVnr
p8527
aVnr
p8528
aV81
p8529
aV81
p8530
aV73
p8531
aV70
p8532
aa(lp8533
V02-11-2016
p8534
aV24
p8535
aVnr
p8536
aV72
p8537
aV96
p8538
aVnr
p8539
aV80
p8540
aVnr
p8541
aVnr
p8542
aVnr
p8543
aV84
p8544
aV88
p8545
aVnr
p8546
aV77
p8547
aV85
p8548
aVnr
p8549
aVnr
p8550
aV68
p8551
aVnr
p8552
aVnr
p8553
aVnr
p8554
aVnr
p8555
aVnr
p8556
aV71
p8557
aV78
p8558
aVnr
p8559
aV68
p8560
aV81
p8561
aVnr
p8562
aV63
p8563
aV78
p8564
aVnr
p8565
aVnr
p8566
aVnr
p8567
aVnr
p8568
aV85
p8569
aVnr
p8570
aV75
p8571
aVnr
p8572
aVnr
p8573
aV84
p8574
aV80
p8575
aV73
p8576
aV68
p8577
aa(lp8578
V05-11-2016
p8579
aV8
aVnr
p8580
aV79
p8581
aV98
p8582
aVnr
p8583
aV73
p8584
aVnr
p8585
aVnr
p8586
aVnr
p8587
aV86
p8588
aV79
p8589
aVnr
p8590
aV85
p8591
aV87
p8592
aV75
p8593
aVnr
p8594
aV68
p8595
aVnr
p8596
aVnr
p8597
aVnr
p8598
aVnr
p8599
aVnr
p8600
aV73
p8601
aV72
p8602
aVnr
p8603
aV69
p8604
aV74
p8605
aVnr
p8606
aV65
p8607
aV82
p8608
aVnr
p8609
aVnr
p8610
aVnr
p8611
aVnr
p8612
aV74
p8613
aVnr
p8614
aV70
p8615
aVnr
p8616
aVnr
p8617
aV70
p8618
aV74
p8619
aV80
p8620
aV66
p8621
aa(lp8622
V05-11-2016
p8623
aV9
aVnr
p8624
aV75
p8625
aV96
p8626
aVnr
p8627
aV70
p8628
aVnr
p8629
aVnr
p8630
aVnr
p8631
aV81
p8632
aV73
p8633
aVnr
p8634
aV84
p8635
aV79
p8636
aV70
p8637
aVnr
p8638
aV64
p8639
aVnr
p8640
aVnr
p8641
aVnr
p8642
aVnr
p8643
aVnr
p8644
aV70
p8645
aV68
p8646
aVnr
p8647
aV68
p8648
aV71
p8649
aVnr
p8650
aV62
p8651
aV79
p8652
aVnr
p8653
aVnr
p8654
aVnr
p8655
aVnr
p8656
aV72
p8657
aVnr
p8658
aV68
p8659
aVnr
p8660
aVnr
p8661
aV69
p8662
aV72
p8663
aV78
p8664
aV62
p8665
aa(lp8666
V07-11-2016
p8667
aV8
aVnr
p8668
aV75
p8669
aV98
p8670
aVnr
p8671
aV74
p8672
aVnr
p8673
aVnr
p8674
aVnr
p8675
aV88
p8676
aV87
p8677
aVnr
p8678
aV76
p8679
aV97
p8680
aV92
p8681
aVnr
p8682
aV64
p8683
aVnr
p8684
aVnr
p8685
aVnr
p8686
aVnr
p8687
aVnr
p8688
aV74
p8689
aV72
p8690
aVnr
p8691
aV74
p8692
aV76
p8693
aVnr
p8694
aV65
p8695
aV76
p8696
aVnr
p8697
aVnr
p8698
aVnr
p8699
aVnr
p8700
aV79
p8701
aVnr
p8702
aV70
p8703
aVnr
p8704
aVnr
p8705
aV76
p8706
aV76
p8707
aV81
p8708
aV71
p8709
aa(lp8710
V07-11-2016
p8711
aV9
aVnr
p8712
aV72
p8713
aV86
p8714
aVnr
p8715
aV67
p8716
aVnr
p8717
aVnr
p8718
aVnr
p8719
aV74
p8720
aV78
p8721
aVnr
p8722
aV67
p8723
aV81
p8724
aV77
p8725
aV73
p8726
aV57
p8727
aVnr
p8728
aVnr
p8729
aVnr
p8730
aVnr
p8731
aVnr
p8732
aV67
p8733
aV64
p8734
aVnr
p8735
aV68
p8736
aV72
p8737
aVnr
p8738
aVnr
p8739
aV72
p8740
aVnr
p8741
aVnr
p8742
aVnr
p8743
aVnr
p8744
aV74
p8745
aVnr
p8746
aV58
p8747
aVnr
p8748
aVnr
p8749
aV69
p8750
aV71
p8751
aV75
p8752
aV64
p8753
aa(lp8754
V07-11-2016
p8755
aV10
p8756
aVnr
p8757
aV68
p8758
aV70
p8759
aVnr
p8760
aV61
p8761
aVnr
p8762
aVnr
p8763
aVnr
p8764
aV61
p8765
aV69
p8766
aVnr
p8767
aV63
p8768
aV66
p8769
aV55
p8770
aVnr
p8771
aV52
p8772
aVnr
p8773
aVnr
p8774
aVnr
p8775
aVnr
p8776
aVnr
p8777
aV62
p8778
aV55
p8779
aVnr
p8780
aVnr
p8781
aV64
p8782
aVnr
p8783
aVnr
p8784
aV68
p8785
aVnr
p8786
aVnr
p8787
aVnr
p8788
aVnr
p8789
aV68
p8790
aVnr
p8791
aV54
p8792
aVnr
p8793
aVnr
p8794
aV62
p8795
aV63
p8796
aV64
p8797
aV54
p8798
aasS'no2'
p8799
(lp8800
(lp8801
V02-11-2016
p8802
aV21
p8803
aV14
p8804
aV5
aVnr
p8805
aV26
p8806
aVnr
p8807
aVnr
p8808
aVnr
p8809
aV14
p8810
aVnr
p8811
aV22
p8812
aVnr
p8813
aV26
p8814
aV14
p8815
aV13
p8816
aVnr
p8817
aVnr
p8818
aV21
p8819
aV26
p8820
aVnr
p8821
aVnr
p8822
aVnr
p8823
aVnr
p8824
aV14
p8825
aVnr
p8826
aV35
p8827
aV17
p8828
aVnr
p8829
aV27
p8830
aVnr
p8831
aV33
p8832
aVnr
p8833
aVnr
p8834
aV8
aVnr
p8835
aVnr
p8836
aV22
p8837
aV34
p8838
aVnr
p8839
aV26
p8840
aV28
p8841
aV17
p8842
aV36
p8843
aa(lp8844
V02-11-2016
p8845
aV21
p8846
aV14
p8847
aV5
aVnr
p8848
aV26
p8849
aVnr
p8850
aVnr
p8851
aVnr
p8852
aV14
p8853
aVnr
p8854
aV22
p8855
aVnr
p8856
aV26
p8857
aV14
p8858
aV13
p8859
aVnr
p8860
aVnr
p8861
aV21
p8862
aV26
p8863
aVnr
p8864
aVnr
p8865
aVnr
p8866
aVnr
p8867
aV14
p8868
aVnr
p8869
aV35
p8870
aV17
p8871
aVnr
p8872
aV27
p8873
aVnr
p8874
aV33
p8875
aVnr
p8876
aVnr
p8877
aV8
aVnr
p8878
aVnr
p8879
aV22
p8880
aV34
p8881
aVnr
p8882
aV26
p8883
aV28
p8884
aV17
p8885
aV36
p8886
aa(lp8887
V02-11-2016
p8888
aV21
p8889
aV14
p8890
aV5
aVnr
p8891
aV26
p8892
aVnr
p8893
aVnr
p8894
aVnr
p8895
aV14
p8896
aVnr
p8897
aV22
p8898
aVnr
p8899
aV26
p8900
aV14
p8901
aV13
p8902
aVnr
p8903
aVnr
p8904
aV21
p8905
aV26
p8906
aVnr
p8907
aVnr
p8908
aVnr
p8909
aVnr
p8910
aV14
p8911
aVnr
p8912
aV35
p8913
aV17
p8914
aVnr
p8915
aV27
p8916
aVnr
p8917
aV33
p8918
aVnr
p8919
aVnr
p8920
aV8
aVnr
p8921
aVnr
p8922
aV22
p8923
aV34
p8924
aVnr
p8925
aV26
p8926
aV28
p8927
aV17
p8928
aV36
p8929
aa(lp8930
V02-11-2016
p8931
aV21
p8932
aV14
p8933
aV5
aVnr
p8934
aV26
p8935
aVnr
p8936
aVnr
p8937
aVnr
p8938
aV14
p8939
aVnr
p8940
aV22
p8941
aVnr
p8942
aV26
p8943
aV14
p8944
aV13
p8945
aVnr
p8946
aVnr
p8947
aV21
p8948
aV26
p8949
aVnr
p8950
aVnr
p8951
aVnr
p8952
aVnr
p8953
aV14
p8954
aVnr
p8955
aV35
p8956
aV17
p8957
aVnr
p8958
aV27
p8959
aVnr
p8960
aV33
p8961
aVnr
p8962
aVnr
p8963
aV8
aVnr
p8964
aVnr
p8965
aV22
p8966
aV34
p8967
aVnr
p8968
aV26
p8969
aV28
p8970
aV17
p8971
aV36
p8972
aa(lp8973
V02-11-2016
p8974
aV21
p8975
aV14
p8976
aV5
aVnr
p8977
aV26
p8978
aVnr
p8979
aVnr
p8980
aVnr
p8981
aV14
p8982
aVnr
p8983
aV22
p8984
aVnr
p8985
aV26
p8986
aV14
p8987
aV13
p8988
aVnr
p8989
aVnr
p8990
aV21
p8991
aV26
p8992
aVnr
p8993
aVnr
p8994
aVnr
p8995
aVnr
p8996
aV14
p8997
aVnr
p8998
aV35
p8999
aV17
p9000
aVnr
p9001
aV27
p9002
aVnr
p9003
aV33
p9004
aVnr
p9005
aVnr
p9006
aV8
aVnr
p9007
aVnr
p9008
aV22
p9009
aV34
p9010
aVnr
p9011
aV26
p9012
aV28
p9013
aV17
p9014
aV36
p9015
aa(lp9016
V02-11-2016
p9017
aV21
p9018
aV14
p9019
aV5
aVnr
p9020
aV26
p9021
aVnr
p9022
aVnr
p9023
aVnr
p9024
aV14
p9025
aVnr
p9026
aV22
p9027
aVnr
p9028
aV26
p9029
aV14
p9030
aV13
p9031
aVnr
p9032
aVnr
p9033
aV21
p9034
aV26
p9035
aVnr
p9036
aVnr
p9037
aVnr
p9038
aVnr
p9039
aV14
p9040
aVnr
p9041
aV35
p9042
aV17
p9043
aVnr
p9044
aV27
p9045
aVnr
p9046
aV33
p9047
aVnr
p9048
aVnr
p9049
aV8
aVnr
p9050
aVnr
p9051
aV22
p9052
aV34
p9053
aVnr
p9054
aV26
p9055
aV28
p9056
aV17
p9057
aV36
p9058
aa(lp9059
V02-11-2016
p9060
aV21
p9061
aV14
p9062
aV5
aVnr
p9063
aV26
p9064
aVnr
p9065
aVnr
p9066
aVnr
p9067
aV14
p9068
aVnr
p9069
aV22
p9070
aVnr
p9071
aV26
p9072
aV14
p9073
aV13
p9074
aVnr
p9075
aVnr
p9076
aV21
p9077
aV26
p9078
aVnr
p9079
aVnr
p9080
aVnr
p9081
aVnr
p9082
aV14
p9083
aVnr
p9084
aV35
p9085
aV17
p9086
aVnr
p9087
aV27
p9088
aVnr
p9089
aV33
p9090
aVnr
p9091
aVnr
p9092
aV8
aVnr
p9093
aVnr
p9094
aV22
p9095
aV34
p9096
aVnr
p9097
aV26
p9098
aV28
p9099
aV17
p9100
aV36
p9101
aa(lp9102
V02-11-2016
p9103
aV21
p9104
aV14
p9105
aV5
aVnr
p9106
aV26
p9107
aVnr
p9108
aVnr
p9109
aVnr
p9110
aV14
p9111
aVnr
p9112
aV22
p9113
aVnr
p9114
aV26
p9115
aV14
p9116
aV13
p9117
aVnr
p9118
aVnr
p9119
aV21
p9120
aV26
p9121
aVnr
p9122
aVnr
p9123
aVnr
p9124
aVnr
p9125
aV14
p9126
aVnr
p9127
aV35
p9128
aV17
p9129
aVnr
p9130
aV27
p9131
aVnr
p9132
aV33
p9133
aVnr
p9134
aVnr
p9135
aV8
aVnr
p9136
aVnr
p9137
aV22
p9138
aV34
p9139
aVnr
p9140
aV26
p9141
aV28
p9142
aV17
p9143
aV36
p9144
aa(lp9145
V02-11-2016
p9146
aV22
p9147
aV21
p9148
aV8
aVnr
p9149
aV25
p9150
aVnr
p9151
aVnr
p9152
aVnr
p9153
aV20
p9154
aVnr
p9155
aV27
p9156
aVnr
p9157
aV26
p9158
aV20
p9159
aV9
aVnr
p9160
aVnr
p9161
aV27
p9162
aV27
p9163
aVnr
p9164
aVnr
p9165
aVnr
p9166
aVnr
p9167
aVnr
p9168
aVnr
p9169
aV31
p9170
aV20
p9171
aVnr
p9172
aV36
p9173
aVnr
p9174
aVnr
p9175
aVnr
p9176
aVnr
p9177
aV8
aVnr
p9178
aVnr
p9179
aV25
p9180
aV32
p9181
aVnr
p9182
aV16
p9183
aV25
p9184
aV21
p9185
aV36
p9186
aa(lp9187
V02-11-2016
p9188
aV22
p9189
aV21
p9190
aV8
aVnr
p9191
aV25
p9192
aVnr
p9193
aVnr
p9194
aVnr
p9195
aV20
p9196
aVnr
p9197
aV27
p9198
aVnr
p9199
aV26
p9200
aV20
p9201
aV9
aVnr
p9202
aVnr
p9203
aV27
p9204
aV27
p9205
aVnr
p9206
aVnr
p9207
aVnr
p9208
aVnr
p9209
aVnr
p9210
aVnr
p9211
aV31
p9212
aV20
p9213
aVnr
p9214
aV36
p9215
aVnr
p9216
aVnr
p9217
aVnr
p9218
aVnr
p9219
aV8
aVnr
p9220
aVnr
p9221
aV25
p9222
aV32
p9223
aVnr
p9224
aV16
p9225
aV25
p9226
aV21
p9227
aV36
p9228
aa(lp9229
V02-11-2016
p9230
aV22
p9231
aV21
p9232
aV8
aVnr
p9233
aV25
p9234
aVnr
p9235
aVnr
p9236
aVnr
p9237
aV20
p9238
aVnr
p9239
aV27
p9240
aVnr
p9241
aV26
p9242
aV20
p9243
aV9
aVnr
p9244
aVnr
p9245
aV27
p9246
aV27
p9247
aVnr
p9248
aVnr
p9249
aVnr
p9250
aVnr
p9251
aVnr
p9252
aVnr
p9253
aV31
p9254
aV20
p9255
aVnr
p9256
aV36
p9257
aVnr
p9258
aVnr
p9259
aVnr
p9260
aVnr
p9261
aV8
aVnr
p9262
aVnr
p9263
aV25
p9264
aV32
p9265
aVnr
p9266
aV16
p9267
aV25
p9268
aV21
p9269
aV36
p9270
aa(lp9271
V02-11-2016
p9272
aV23
p9273
aV26
p9274
aV6
aVnr
p9275
aV22
p9276
aVnr
p9277
aVnr
p9278
aVnr
p9279
aV17
p9280
aVnr
p9281
aV27
p9282
aVnr
p9283
aV25
p9284
aV25
p9285
aV7
aVnr
p9286
aVnr
p9287
aV29
p9288
aV29
p9289
aVnr
p9290
aVnr
p9291
aVnr
p9292
aVnr
p9293
aV23
p9294
aVnr
p9295
aV32
p9296
aV15
p9297
aVnr
p9298
aV35
p9299
aVnr
p9300
aV30
p9301
aVnr
p9302
aVnr
p9303
aV13
p9304
aVnr
p9305
aVnr
p9306
aV27
p9307
aV31
p9308
aVnr
p9309
aV24
p9310
aV28
p9311
aV22
p9312
aV33
p9313
aa(lp9314
V02-11-2016
p9315
aV23
p9316
aV26
p9317
aV6
aVnr
p9318
aV22
p9319
aVnr
p9320
aVnr
p9321
aVnr
p9322
aV17
p9323
aVnr
p9324
aV27
p9325
aVnr
p9326
aV25
p9327
aV25
p9328
aV7
aVnr
p9329
aVnr
p9330
aV29
p9331
aV29
p9332
aVnr
p9333
aVnr
p9334
aVnr
p9335
aVnr
p9336
aV23
p9337
aVnr
p9338
aV32
p9339
aV15
p9340
aVnr
p9341
aV35
p9342
aVnr
p9343
aV30
p9344
aVnr
p9345
aVnr
p9346
aV13
p9347
aVnr
p9348
aVnr
p9349
aV27
p9350
aV31
p9351
aVnr
p9352
aV24
p9353
aV28
p9354
aV22
p9355
aV33
p9356
aa(lp9357
V02-11-2016
p9358
aV23
p9359
aV26
p9360
aV6
aVnr
p9361
aV22
p9362
aVnr
p9363
aVnr
p9364
aVnr
p9365
aV17
p9366
aVnr
p9367
aV27
p9368
aVnr
p9369
aV25
p9370
aV25
p9371
aV7
aVnr
p9372
aVnr
p9373
aV29
p9374
aV29
p9375
aVnr
p9376
aVnr
p9377
aVnr
p9378
aVnr
p9379
aV23
p9380
aVnr
p9381
aV32
p9382
aV15
p9383
aVnr
p9384
aV35
p9385
aVnr
p9386
aV30
p9387
aVnr
p9388
aVnr
p9389
aV13
p9390
aVnr
p9391
aVnr
p9392
aV27
p9393
aV31
p9394
aVnr
p9395
aV24
p9396
aV28
p9397
aV22
p9398
aV33
p9399
aa(lp9400
V02-11-2016
p9401
aV23
p9402
aV26
p9403
aV6
aVnr
p9404
aV22
p9405
aVnr
p9406
aVnr
p9407
aVnr
p9408
aV17
p9409
aVnr
p9410
aV27
p9411
aVnr
p9412
aV25
p9413
aV25
p9414
aV7
aVnr
p9415
aVnr
p9416
aV29
p9417
aV29
p9418
aVnr
p9419
aVnr
p9420
aVnr
p9421
aVnr
p9422
aV23
p9423
aVnr
p9424
aV32
p9425
aV15
p9426
aVnr
p9427
aV35
p9428
aVnr
p9429
aV30
p9430
aVnr
p9431
aVnr
p9432
aV13
p9433
aVnr
p9434
aVnr
p9435
aV27
p9436
aV31
p9437
aVnr
p9438
aV24
p9439
aV28
p9440
aV22
p9441
aV33
p9442
aa(lp9443
V02-11-2016
p9444
aV24
p9445
aV27
p9446
aV16
p9447
aVnr
p9448
aV17
p9449
aVnr
p9450
aVnr
p9451
aVnr
p9452
aV17
p9453
aVnr
p9454
aV22
p9455
aVnr
p9456
aV25
p9457
aV21
p9458
aV13
p9459
aVnr
p9460
aVnr
p9461
aV27
p9462
aV30
p9463
aVnr
p9464
aVnr
p9465
aVnr
p9466
aVnr
p9467
aV23
p9468
aVnr
p9469
aV32
p9470
aV17
p9471
aVnr
p9472
aV31
p9473
aVnr
p9474
aV32
p9475
aVnr
p9476
aVnr
p9477
aV19
p9478
aVnr
p9479
aVnr
p9480
aV29
p9481
aV29
p9482
aVnr
p9483
aV24
p9484
aV29
p9485
aV27
p9486
aV29
p9487
aa(lp9488
V05-11-2016
p9489
aV8
aVnr
p9490
aV20
p9491
aVnr
p9492
aV20
p9493
aVnr
p9494
aVnr
p9495
aV25
p9496
aV23
p9497
aVnr
p9498
aV15
p9499
aVnr
p9500
aV25
p9501
aV15
p9502
aV20
p9503
aV12
p9504
aVnr
p9505
aV26
p9506
aV24
p9507
aVnr
p9508
aVnr
p9509
aVnr
p9510
aV31
p9511
aV20
p9512
aVnr
p9513
aV26
p9514
aV23
p9515
aVnr
p9516
aV18
p9517
aVnr
p9518
aV25
p9519
aVnr
p9520
aVnr
p9521
aV17
p9522
aVnr
p9523
aVnr
p9524
aV27
p9525
aV22
p9526
aVnr
p9527
aV23
p9528
aV28
p9529
aV16
p9530
aV14
p9531
aa(lp9532
V05-11-2016
p9533
aV9
aVnr
p9534
aV9
aVnr
p9535
aV14
p9536
aVnr
p9537
aVnr
p9538
aV20
p9539
aV16
p9540
aVnr
p9541
aV9
aVnr
p9542
aV22
p9543
aV18
p9544
aV17
p9545
aV6
aVnr
p9546
aV22
p9547
aV22
p9548
aVnr
p9549
aVnr
p9550
aVnr
p9551
aV30
p9552
aV16
p9553
aVnr
p9554
aV20
p9555
aV16
p9556
aVnr
p9557
aV17
p9558
aVnr
p9559
aV18
p9560
aVnr
p9561
aVnr
p9562
aV20
p9563
aVnr
p9564
aVnr
p9565
aV24
p9566
aV23
p9567
aVnr
p9568
aV22
p9569
aV29
p9570
aV14
p9571
aV11
p9572
aa(lp9573
V07-11-2016
p9574
aV8
aV15
p9575
aV23
p9576
aVnr
p9577
aVnr
p9578
aVnr
p9579
aVnr
p9580
aV29
p9581
aV17
p9582
aVnr
p9583
aV18
p9584
aVnr
p9585
aV29
p9586
aV32
p9587
aVnr
p9588
aV23
p9589
aVnr
p9590
aV32
p9591
aV32
p9592
aVnr
p9593
aVnr
p9594
aVnr
p9595
aV33
p9596
aV31
p9597
aVnr
p9598
aV22
p9599
aV23
p9600
aVnr
p9601
aV26
p9602
aVnr
p9603
aV27
p9604
aVnr
p9605
aVnr
p9606
aV22
p9607
aVnr
p9608
aVnr
p9609
aV30
p9610
aV26
p9611
aVnr
p9612
aV29
p9613
aV26
p9614
aV19
p9615
aV33
p9616
aa(lp9617
V07-11-2016
p9618
aV9
aV17
p9619
aV24
p9620
aVnr
p9621
aVnr
p9622
aVnr
p9623
aVnr
p9624
aV39
p9625
aV39
p9626
aVnr
p9627
aV24
p9628
aVnr
p9629
aV38
p9630
aV29
p9631
aVnr
p9632
aV33
p9633
aVnr
p9634
aV45
p9635
aV44
p9636
aVnr
p9637
aVnr
p9638
aVnr
p9639
aV53
p9640
aV47
p9641
aVnr
p9642
aV24
p9643
aV28
p9644
aVnr
p9645
aVnr
p9646
aVnr
p9647
aV37
p9648
aVnr
p9649
aVnr
p9650
aV26
p9651
aVnr
p9652
aVnr
p9653
aV36
p9654
aV32
p9655
aVnr
p9656
aV33
p9657
aV33
p9658
aV25
p9659
aV48
p9660
aa(lp9661
V07-11-2016
p9662
aV10
p9663
aV16
p9664
aV32
p9665
aVnr
p9666
aVnr
p9667
aVnr
p9668
aVnr
p9669
aVnr
p9670
aV44
p9671
aVnr
p9672
aV19
p9673
aVnr
p9674
aV41
p9675
aV24
p9676
aVnr
p9677
aV65
p9678
aVnr
p9679
aV52
p9680
aV47
p9681
aVnr
p9682
aVnr
p9683
aVnr
p9684
aV48
p9685
aV52
p9686
aVnr
p9687
aVnr
p9688
aV36
p9689
aVnr
p9690
aVnr
p9691
aVnr
p9692
aV36
p9693
aVnr
p9694
aVnr
p9695
aV21
p9696
aVnr
p9697
aVnr
p9698
aV45
p9699
aV44
p9700
aVnr
p9701
aV29
p9702
aV37
p9703
aV31
p9704
aV60
p9705
aas.