(dp1
S'tmp'
p2
(lp3
(lp4
V08-11-2016
p5
aV12
p6
aVnr
p7
aV16
p8
aV13
p9
aVnr
p10
aV19
p11
aVnr
p12
aVnr
p13
aVnr
p14
aV19
p15
aVnr
p16
aVnr
p17
aV15
p18
aV18
p19
aV22
p20
aVnr
p21
aV19
p22
aVnr
p23
aVnr
p24
aVnr
p25
aVnr
p26
aVnr
p27
aV19
p28
aV18
p29
aVnr
p30
aV17
p31
aV18
p32
aVnr
p33
aV20
p34
aV16
p35
aVnr
p36
aVnr
p37
aVnr
p38
aVnr
p39
aV19
p40
aVnr
p41
aV18
p42
aVnr
p43
aVnr
p44
aV19
p45
aV19
p46
aV18
p47
aV19
p48
aa(lp49
V08-11-2016
p50
aV12
p51
aVnr
p52
aV16
p53
aV13
p54
aVnr
p55
aV19
p56
aVnr
p57
aVnr
p58
aVnr
p59
aV19
p60
aVnr
p61
aVnr
p62
aV15
p63
aV18
p64
aV22
p65
aVnr
p66
aV19
p67
aVnr
p68
aVnr
p69
aVnr
p70
aVnr
p71
aVnr
p72
aV19
p73
aV18
p74
aVnr
p75
aV17
p76
aV18
p77
aVnr
p78
aV20
p79
aV16
p80
aVnr
p81
aVnr
p82
aVnr
p83
aVnr
p84
aV19
p85
aVnr
p86
aV18
p87
aVnr
p88
aVnr
p89
aV19
p90
aV19
p91
aV18
p92
aV19
p93
aa(lp94
V11-11-2016
p95
aV11
p96
aV13
p97
aVnr
p98
aV9
aVnr
p99
aV13
p100
aVnr
p101
aVnr
p102
aVnr
p103
aV14
p104
aVnr
p105
aVnr
p106
aVnr
p107
aV12
p108
aVnr
p109
aV13
p110
aVnr
p111
aVnr
p112
aVnr
p113
aVnr
p114
aVnr
p115
aVnr
p116
aV13
p117
aV13
p118
aV10
p119
aV13
p120
aV13
p121
aVnr
p122
aV14
p123
aV10
p124
aVnr
p125
aVnr
p126
aVnr
p127
aVnr
p128
aV14
p129
aVnr
p130
aVnr
p131
aVnr
p132
aVnr
p133
aV14
p134
aV14
p135
aVnr
p136
aVnr
p137
aasS'co'
p138
(lp139
(lp140
V08-11-2016
p141
aV12
p142
aV0.2
p143
aV0.9
p144
aVnr
p145
aVnr
p146
aV0.3
p147
aVnr
p148
aV1.1
p149
aV0.8
p150
aV1.4
p151
aVnr
p152
aV0.4
p153
aV0.8
p154
aVnr
p155
aV1.1
p156
aVnr
p157
aV0.8
p158
aVnr
p159
aV0.4
p160
aVnr
p161
aV0.3
p162
aV1.3
p163
aVnr
p164
aVnr
p165
aV1.0
p166
aV1.1
p167
aV1.2
p168
aV0.5
p169
aV0.4
p170
aV1.2
p171
aVnr
p172
aV1.1
p173
aVnr
p174
aV1.0
p175
aVnr
p176
aVnr
p177
aV0.6
p178
aVnr
p179
aVnr
p180
aV0.8
p181
aV0.3
p182
aVnr
p183
aV0.9
p184
aV0.7
p185
aVnr
p186
aV0.4
p187
aV1.4
p188
aa(lp189
V08-11-2016
p190
aV12
p191
aV0.2
p192
aV0.9
p193
aVnr
p194
aVnr
p195
aV0.3
p196
aVnr
p197
aV1.1
p198
aV0.8
p199
aV1.4
p200
aVnr
p201
aV0.4
p202
aV0.8
p203
aVnr
p204
aV1.1
p205
aVnr
p206
aV0.8
p207
aVnr
p208
aV0.4
p209
aVnr
p210
aV0.3
p211
aV1.3
p212
aVnr
p213
aVnr
p214
aV1.0
p215
aV1.1
p216
aV1.2
p217
aV0.5
p218
aV0.4
p219
aV1.2
p220
aVnr
p221
aV1.1
p222
aVnr
p223
aV1.0
p224
aVnr
p225
aVnr
p226
aV0.6
p227
aVnr
p228
aVnr
p229
aV0.8
p230
aV0.3
p231
aVnr
p232
aV0.9
p233
aV0.7
p234
aVnr
p235
aV0.4
p236
aV1.4
p237
aa(lp238
V11-11-2016
p239
aV11
p240
aV0.4
p241
aVnr
p242
aVnr
p243
aVnr
p244
aV0.6
p245
aVnr
p246
aV1.4
p247
aV1.2
p248
aV1.4
p249
aVnr
p250
aV0.6
p251
aV0.8
p252
aVnr
p253
aVnr
p254
aVnr
p255
aVnr
p256
aVnr
p257
aV0.4
p258
aVnr
p259
aVnr
p260
aV1.4
p261
aVnr
p262
aVnr
p263
aVnr
p264
aV1.3
p265
aV1.3
p266
aV0.9
p267
aV0.6
p268
aV1.2
p269
aVnr
p270
aV1.0
p271
aV0.9
p272
aV1.2
p273
aVnr
p274
aVnr
p275
aV0.8
p276
aVnr
p277
aVnr
p278
aV0.7
p279
aV0.3
p280
aVnr
p281
aV0.7
p282
aV0.6
p283
aVnr
p284
aV0.4
p285
aV1.2
p286
aasS'pm2'
p287
(lp288
(lp289
V08-11-2016
p290
aV12
p291
aVnr
p292
aV52
p293
aV36
p294
aVnr
p295
aV61
p296
aV51
p297
aV48
p298
aVnr
p299
aVnr
p300
aV67
p301
aVnr
p302
aVnr
p303
aVnr
p304
aVnr
p305
aV51
p306
aV10
p307
aVnr
p308
aVnr
p309
aVnr
p310
aV53
p311
aV44
p312
aV34
p313
aV35
p314
aVnr
p315
aV44
p316
aVnr
p317
aVnr
p318
aVnr
p319
aVnr
p320
aVnr
p321
aV41
p322
aVnr
p323
aVnr
p324
aV43
p325
aVnr
p326
aVnr
p327
aV61
p328
aa(lp329
V08-11-2016
p330
aV12
p331
aVnr
p332
aV52
p333
aV36
p334
aVnr
p335
aV61
p336
aV51
p337
aV48
p338
aVnr
p339
aVnr
p340
aV67
p341
aVnr
p342
aVnr
p343
aVnr
p344
aVnr
p345
aV51
p346
aV10
p347
aVnr
p348
aVnr
p349
aVnr
p350
aV53
p351
aV44
p352
aV34
p353
aV35
p354
aVnr
p355
aV44
p356
aVnr
p357
aVnr
p358
aVnr
p359
aVnr
p360
aVnr
p361
aV41
p362
aVnr
p363
aVnr
p364
aV43
p365
aVnr
p366
aVnr
p367
aV61
p368
aa(lp369
V11-11-2016
p370
aV11
p371
aVnr
p372
aVnr
p373
aV17
p374
aVnr
p375
aV54
p376
aV68
p377
aV36
p378
aVnr
p379
aVnr
p380
aV59
p381
aVnr
p382
aVnr
p383
aVnr
p384
aVnr
p385
aV58
p386
aVnr
p387
aVnr
p388
aVnr
p389
aVnr
p390
aV54
p391
aV47
p392
aV49
p393
aV21
p394
aVnr
p395
aV26
p396
aVnr
p397
aVnr
p398
aVnr
p399
aVnr
p400
aVnr
p401
aV54
p402
aVnr
p403
aVnr
p404
aV37
p405
aVnr
p406
aVnr
p407
aV56
p408
aasS'pm10'
p409
(lp410
(lp411
V08-11-2016
p412
aV12
p413
aV40
p414
aV70
p415
aVnr
p416
aV34
p417
aV89
p418
aV80
p419
aVnr
p420
aVnr
p421
aVnr
p422
aV74
p423
aVnr
p424
aV59
p425
aV55
p426
aV46
p427
aVnr
p428
aV77
p429
aV13
p430
aV70
p431
aVnr
p432
aVnr
p433
aVnr
p434
aV88
p435
aV64
p436
aV46
p437
aVnr
p438
aVnr
p439
aVnr
p440
aV80
p441
aVnr
p442
aVnr
p443
aVnr
p444
aV54
p445
aVnr
p446
aVnr
p447
aV76
p448
aV73
p449
aVnr
p450
aVnr
p451
aVnr
p452
aV75
p453
aV119
p454
aa(lp455
V08-11-2016
p456
aV12
p457
aV40
p458
aV70
p459
aVnr
p460
aV34
p461
aV89
p462
aV80
p463
aVnr
p464
aVnr
p465
aVnr
p466
aV74
p467
aVnr
p468
aV59
p469
aV55
p470
aV46
p471
aVnr
p472
aV77
p473
aV13
p474
aV70
p475
aVnr
p476
aVnr
p477
aVnr
p478
aV88
p479
aV64
p480
aV46
p481
aVnr
p482
aVnr
p483
aVnr
p484
aV80
p485
aVnr
p486
aVnr
p487
aVnr
p488
aV54
p489
aVnr
p490
aVnr
p491
aV76
p492
aV73
p493
aVnr
p494
aVnr
p495
aVnr
p496
aV75
p497
aV119
p498
aa(lp499
V11-11-2016
p500
aV11
p501
aV49
p502
aVnr
p503
aVnr
p504
aV52
p505
aV81
p506
aV106
p507
aVnr
p508
aVnr
p509
aVnr
p510
aV58
p511
aVnr
p512
aVnr
p513
aV43
p514
aVnr
p515
aVnr
p516
aV88
p517
aVnr
p518
aV42
p519
aVnr
p520
aVnr
p521
aVnr
p522
aV98
p523
aV67
p524
aV62
p525
aVnr
p526
aVnr
p527
aVnr
p528
aV51
p529
aVnr
p530
aVnr
p531
aVnr
p532
aV61
p533
aVnr
p534
aVnr
p535
aV98
p536
aV72
p537
aVnr
p538
aVnr
p539
aVnr
p540
aV33
p541
aV112
p542
aasS'no'
p543
(lp544
(lp545
V08-11-2016
p546
aV12
p547
aV8
aV19
p548
aVnr
p549
aV11
p550
aVnr
p551
aVnr
p552
aV18
p553
aV24
p554
aVnr
p555
aV7
aVnr
p556
aV31
p557
aV30
p558
aV11
p559
aV18
p560
aVnr
p561
aV24
p562
aVnr
p563
aV31
p564
aVnr
p565
aVnr
p566
aVnr
p567
aV36
p568
aV27
p569
aVnr
p570
aV12
p571
aV31
p572
aVnr
p573
aV16
p574
aVnr
p575
aV28
p576
aVnr
p577
aVnr
p578
aV9
aVnr
p579
aVnr
p580
aV29
p581
aV14
p582
aVnr
p583
aV22
p584
aV17
p585
aV9
aV32
p586
aa(lp587
V08-11-2016
p588
aV12
p589
aV8
aV19
p590
aVnr
p591
aV11
p592
aVnr
p593
aVnr
p594
aV18
p595
aV24
p596
aVnr
p597
aV7
aVnr
p598
aV31
p599
aV30
p600
aV11
p601
aV18
p602
aVnr
p603
aV24
p604
aVnr
p605
aV31
p606
aVnr
p607
aVnr
p608
aVnr
p609
aV36
p610
aV27
p611
aVnr
p612
aV12
p613
aV31
p614
aVnr
p615
aV16
p616
aVnr
p617
aV28
p618
aVnr
p619
aVnr
p620
aV9
aVnr
p621
aVnr
p622
aV29
p623
aV14
p624
aVnr
p625
aV22
p626
aV17
p627
aV9
aV32
p628
aa(lp629
V11-11-2016
p630
aV11
p631
aV12
p632
aVnr
p633
aVnr
p634
aV31
p635
aVnr
p636
aVnr
p637
aV63
p638
aVnr
p639
aVnr
p640
aV11
p641
aVnr
p642
aV90
p643
aVnr
p644
aV18
p645
aVnr
p646
aVnr
p647
aV82
p648
aVnr
p649
aV62
p650
aVnr
p651
aVnr
p652
aVnr
p653
aV64
p654
aV70
p655
aVnr
p656
aV21
p657
aV71
p658
aVnr
p659
aV33
p660
aV54
p661
aV32
p662
aVnr
p663
aVnr
p664
aV25
p665
aVnr
p666
aVnr
p667
aV41
p668
aV15
p669
aVnr
p670
aV28
p671
aV21
p672
aV11
p673
aV56
p674
aasS'o3'
p675
(lp676
(lp677
V08-11-2016
p678
aV12
p679
aV38
p680
aV45
p681
aV35
p682
aV32
p683
aVnr
p684
aV37
p685
aV35
p686
aV30
p687
aVnr
p688
aV38
p689
aV36
p690
aV38
p691
aV33
p692
aV33
p693
aV35
p694
aV38
p695
aV39
p696
aV38
p697
aV36
p698
aVnr
p699
aV33
p700
aV33
p701
aV32
p702
aV31
p703
aV40
p704
aV37
p705
aV37
p706
aVnr
p707
aV41
p708
aVnr
p709
aV35
p710
aVnr
p711
aVnr
p712
aV42
p713
aVnr
p714
aVnr
p715
aV33
p716
aV35
p717
aVnr
p718
aV42
p719
aV42
p720
aV38
p721
aV39
p722
aa(lp723
V08-11-2016
p724
aV12
p725
aV38
p726
aV45
p727
aV35
p728
aV32
p729
aVnr
p730
aV37
p731
aV35
p732
aV30
p733
aVnr
p734
aV38
p735
aV36
p736
aV38
p737
aV33
p738
aV33
p739
aV35
p740
aV38
p741
aV39
p742
aV38
p743
aV36
p744
aVnr
p745
aV33
p746
aV33
p747
aV32
p748
aV31
p749
aV40
p750
aV37
p751
aV37
p752
aVnr
p753
aV41
p754
aVnr
p755
aV35
p756
aVnr
p757
aVnr
p758
aV42
p759
aVnr
p760
aVnr
p761
aV33
p762
aV35
p763
aVnr
p764
aV42
p765
aV42
p766
aV38
p767
aV39
p768
aa(lp769
V11-11-2016
p770
aV11
p771
aV14
p772
aV4
aV11
p773
aV6
aVnr
p774
aV3
aV4
aV3
aVnr
p775
aV12
p776
aV10
p777
aV4
aVnr
p778
aV10
p779
aVnr
p780
aV6
aV5
aVnr
p781
aV3
aVnr
p782
aV6
aVnr
p783
aV2
aV3
aV8
aV9
aV3
aVnr
p784
aV5
aV2
aV5
aVnr
p785
aVnr
p786
aV10
p787
aVnr
p788
aVnr
p789
aV8
aV8
aVnr
p790
aV5
aV8
aV12
p791
aV7
aasS'wsp'
p792
(lp793
(lp794
V08-11-2016
p795
aV12
p796
aVnr
p797
aV5
aV4
aVnr
p798
aVnr
p799
aVnr
p800
aVnr
p801
aV4
aVnr
p802
aVnr
p803
aV6
aV4
aV2
aVnr
p804
aV2
aVnr
p805
aVnr
p806
aVnr
p807
aVnr
p808
aVnr
p809
aV4
aV4
aVnr
p810
aV4
aV4
aVnr
p811
aV2
aV5
aVnr
p812
aVnr
p813
aVnr
p814
aVnr
p815
aV4
aVnr
p816
aV2
aVnr
p817
aVnr
p818
aV4
aV4
aV3
aV2
aa(lp819
V08-11-2016
p820
aV12
p821
aVnr
p822
aV5
aV4
aVnr
p823
aVnr
p824
aVnr
p825
aVnr
p826
aV4
aVnr
p827
aVnr
p828
aV6
aV4
aV2
aVnr
p829
aV2
aVnr
p830
aVnr
p831
aVnr
p832
aVnr
p833
aVnr
p834
aV4
aV4
aVnr
p835
aV4
aV4
aVnr
p836
aV2
aV5
aVnr
p837
aVnr
p838
aVnr
p839
aVnr
p840
aV4
aVnr
p841
aV2
aVnr
p842
aVnr
p843
aV4
aV4
aV3
aV2
aa(lp844
V11-11-2016
p845
aV11
p846
aV3
aV4
aV4
aVnr
p847
aV4
aVnr
p848
aVnr
p849
aV5
aV1
aVnr
p850
aVnr
p851
aV3
aVnr
p852
aV5
aVnr
p853
aVnr
p854
aVnr
p855
aVnr
p856
aVnr
p857
aVnr
p858
aV3
aV4
aV4
aV6
aV4
aVnr
p859
aV5
aV5
aVnr
p860
aV4
aVnr
p861
aVnr
p862
aV5
aVnr
p863
aVnr
p864
aVnr
p865
aVnr
p866
aVnr
p867
aV6
aV2
aVnr
p868
aasS'wdr'
p869
(lp870
(lp871
V08-11-2016
p872
aV12
p873
aVnr
p874
aV29
p875
aV45
p876
aVnr
p877
aV178
p878
aVnr
p879
aVnr
p880
aVnr
p881
aV274
p882
aVnr
p883
aVnr
p884
aV99
p885
aV67
p886
aV33
p887
aVnr
p888
aV72
p889
aVnr
p890
aVnr
p891
aVnr
p892
aVnr
p893
aVnr
p894
aV93
p895
aV82
p896
aVnr
p897
aV106
p898
aV35
p899
aVnr
p900
aV339
p901
aV70
p902
aVnr
p903
aVnr
p904
aVnr
p905
aVnr
p906
aV68
p907
aVnr
p908
aV140
p909
aVnr
p910
aVnr
p911
aV346
p912
aV168
p913
aV335
p914
aV234
p915
aa(lp916
V08-11-2016
p917
aV12
p918
aVnr
p919
aV29
p920
aV45
p921
aVnr
p922
aV178
p923
aVnr
p924
aVnr
p925
aVnr
p926
aV274
p927
aVnr
p928
aVnr
p929
aV99
p930
aV67
p931
aV33
p932
aVnr
p933
aV72
p934
aVnr
p935
aVnr
p936
aVnr
p937
aVnr
p938
aVnr
p939
aV93
p940
aV82
p941
aVnr
p942
aV106
p943
aV35
p944
aVnr
p945
aV339
p946
aV70
p947
aVnr
p948
aVnr
p949
aVnr
p950
aVnr
p951
aV68
p952
aVnr
p953
aV140
p954
aVnr
p955
aVnr
p956
aV346
p957
aV168
p958
aV335
p959
aV234
p960
aa(lp961
V11-11-2016
p962
aV11
p963
aV351
p964
aV46
p965
aV17
p966
aVnr
p967
aV349
p968
aVnr
p969
aVnr
p970
aVnr
p971
aV357
p972
aV324
p973
aVnr
p974
aVnr
p975
aV356
p976
aVnr
p977
aV45
p978
aVnr
p979
aVnr
p980
aVnr
p981
aVnr
p982
aVnr
p983
aVnr
p984
aV10
p985
aV359
p986
aV356
p987
aV2
aV359
p988
aVnr
p989
aV9
aV22
p990
aVnr
p991
aV297
p992
aVnr
p993
aVnr
p994
aV289
p995
aVnr
p996
aVnr
p997
aVnr
p998
aVnr
p999
aV20
p1000
aV37
p1001
aV345
p1002
aVnr
p1003
aasS'so2'
p1004
(lp1005
(lp1006
V08-11-2016
p1007
aV12
p1008
aV32
p1009
aV8
aVnr
p1010
aVnr
p1011
aV9
aVnr
p1012
aV17
p1013
aV16
p1014
aV14
p1015
aVnr
p1016
aV16
p1017
aV13
p1018
aVnr
p1019
aV12
p1020
aV33
p1021
aV14
p1022
aVnr
p1023
aV15
p1024
aV5
aV20
p1025
aVnr
p1026
aV26
p1027
aV16
p1028
aVnr
p1029
aV20
p1030
aV16
p1031
aV6
aV28
p1032
aV15
p1033
aVnr
p1034
aV23
p1035
aVnr
p1036
aV19
p1037
aVnr
p1038
aVnr
p1039
aV11
p1040
aVnr
p1041
aVnr
p1042
aV16
p1043
aV16
p1044
aVnr
p1045
aV14
p1046
aV22
p1047
aVnr
p1048
aV50
p1049
aV22
p1050
aa(lp1051
V08-11-2016
p1052
aV12
p1053
aV32
p1054
aV8
aVnr
p1055
aVnr
p1056
aV9
aVnr
p1057
aV17
p1058
aV16
p1059
aV14
p1060
aVnr
p1061
aV16
p1062
aV13
p1063
aVnr
p1064
aV12
p1065
aV33
p1066
aV14
p1067
aVnr
p1068
aV15
p1069
aV5
aV20
p1070
aVnr
p1071
aV26
p1072
aV16
p1073
aVnr
p1074
aV20
p1075
aV16
p1076
aV6
aV28
p1077
aV15
p1078
aVnr
p1079
aV23
p1080
aVnr
p1081
aV19
p1082
aVnr
p1083
aVnr
p1084
aV11
p1085
aVnr
p1086
aVnr
p1087
aV16
p1088
aV16
p1089
aVnr
p1090
aV14
p1091
aV22
p1092
aVnr
p1093
aV50
p1094
aV22
p1095
aa(lp1096
V11-11-2016
p1097
aV11
p1098
aV2
aVnr
p1099
aVnr
p1100
aVnr
p1101
aV7
aVnr
p1102
aV17
p1103
aV23
p1104
aV13
p1105
aVnr
p1106
aV4
aV8
aVnr
p1107
aVnr
p1108
aV12
p1109
aVnr
p1110
aVnr
p1111
aV25
p1112
aVnr
p1113
aV7
aVnr
p1114
aV4
aVnr
p1115
aVnr
p1116
aV9
aV25
p1117
aV7
aV4
aV17
p1118
aVnr
p1119
aV6
aV10
p1120
aV7
aVnr
p1121
aVnr
p1122
aV8
aVnr
p1123
aVnr
p1124
aV15
p1125
aV7
aVnr
p1126
aVnr
p1127
aV7
aVnr
p1128
aV2
aV7
aasS'nox'
p1129
(lp1130
(lp1131
V08-11-2016
p1132
aV12
p1133
aV21
p1134
aV58
p1135
aVnr
p1136
aV30
p1137
aVnr
p1138
aVnr
p1139
aV54
p1140
aV86
p1141
aVnr
p1142
aV20
p1143
aVnr
p1144
aV85
p1145
aV75
p1146
aV24
p1147
aV47
p1148
aVnr
p1149
aV63
p1150
aVnr
p1151
aV81
p1152
aVnr
p1153
aVnr
p1154
aVnr
p1155
aV90
p1156
aV77
p1157
aVnr
p1158
aV37
p1159
aV84
p1160
aVnr
p1161
aV51
p1162
aVnr
p1163
aV71
p1164
aVnr
p1165
aVnr
p1166
aV32
p1167
aVnr
p1168
aVnr
p1169
aV64
p1170
aV37
p1171
aVnr
p1172
aV69
p1173
aV47
p1174
aV28
p1175
aV88
p1176
aa(lp1177
V08-11-2016
p1178
aV12
p1179
aV21
p1180
aV58
p1181
aVnr
p1182
aV30
p1183
aVnr
p1184
aVnr
p1185
aV54
p1186
aV86
p1187
aVnr
p1188
aV20
p1189
aVnr
p1190
aV85
p1191
aV75
p1192
aV24
p1193
aV47
p1194
aVnr
p1195
aV63
p1196
aVnr
p1197
aV81
p1198
aVnr
p1199
aVnr
p1200
aVnr
p1201
aV90
p1202
aV77
p1203
aVnr
p1204
aV37
p1205
aV84
p1206
aVnr
p1207
aV51
p1208
aVnr
p1209
aV71
p1210
aVnr
p1211
aVnr
p1212
aV32
p1213
aVnr
p1214
aVnr
p1215
aV64
p1216
aV37
p1217
aVnr
p1218
aV69
p1219
aV47
p1220
aV28
p1221
aV88
p1222
aa(lp1223
V11-11-2016
p1224
aV11
p1225
aV23
p1226
aVnr
p1227
aVnr
p1228
aV53
p1229
aVnr
p1230
aVnr
p1231
aV88
p1232
aVnr
p1233
aVnr
p1234
aV24
p1235
aVnr
p1236
aV122
p1237
aVnr
p1238
aV33
p1239
aVnr
p1240
aVnr
p1241
aV114
p1242
aVnr
p1243
aV90
p1244
aVnr
p1245
aVnr
p1246
aVnr
p1247
aV95
p1248
aV98
p1249
aVnr
p1250
aV38
p1251
aV100
p1252
aVnr
p1253
aV55
p1254
aV82
p1255
aV57
p1256
aVnr
p1257
aVnr
p1258
aV49
p1259
aVnr
p1260
aVnr
p1261
aV66
p1262
aV32
p1263
aVnr
p1264
aV51
p1265
aV41
p1266
aV25
p1267
aV79
p1268
aasS'rh'
p1269
(lp1270
(lp1271
V08-11-2016
p1272
aV12
p1273
aVnr
p1274
aV60
p1275
aV74
p1276
aVnr
p1277
aV53
p1278
aVnr
p1279
aVnr
p1280
aVnr
p1281
aV53
p1282
aVnr
p1283
aVnr
p1284
aV65
p1285
aV59
p1286
aV44
p1287
aVnr
p1288
aV45
p1289
aVnr
p1290
aVnr
p1291
aVnr
p1292
aVnr
p1293
aVnr
p1294
aV54
p1295
aV53
p1296
aVnr
p1297
aV55
p1298
aV57
p1299
aVnr
p1300
aV42
p1301
aV66
p1302
aVnr
p1303
aVnr
p1304
aVnr
p1305
aVnr
p1306
aV57
p1307
aVnr
p1308
aV47
p1309
aVnr
p1310
aVnr
p1311
aV55
p1312
aV56
p1313
aV53
p1314
aV48
p1315
aa(lp1316
V08-11-2016
p1317
aV12
p1318
aVnr
p1319
aV60
p1320
aV74
p1321
aVnr
p1322
aV53
p1323
aVnr
p1324
aVnr
p1325
aVnr
p1326
aV53
p1327
aVnr
p1328
aVnr
p1329
aV65
p1330
aV59
p1331
aV44
p1332
aVnr
p1333
aV45
p1334
aVnr
p1335
aVnr
p1336
aVnr
p1337
aVnr
p1338
aVnr
p1339
aV54
p1340
aV53
p1341
aVnr
p1342
aV55
p1343
aV57
p1344
aVnr
p1345
aV42
p1346
aV66
p1347
aVnr
p1348
aVnr
p1349
aVnr
p1350
aVnr
p1351
aV57
p1352
aVnr
p1353
aV47
p1354
aVnr
p1355
aVnr
p1356
aV55
p1357
aV56
p1358
aV53
p1359
aV48
p1360
aa(lp1361
V11-11-2016
p1362
aV11
p1363
aV81
p1364
aVnr
p1365
aV98
p1366
aVnr
p1367
aV82
p1368
aVnr
p1369
aVnr
p1370
aVnr
p1371
aV75
p1372
aVnr
p1373
aVnr
p1374
aVnr
p1375
aV84
p1376
aVnr
p1377
aV84
p1378
aVnr
p1379
aVnr
p1380
aVnr
p1381
aVnr
p1382
aVnr
p1383
aVnr
p1384
aV82
p1385
aV81
p1386
aV91
p1387
aV77
p1388
aV86
p1389
aVnr
p1390
aV70
p1391
aV96
p1392
aVnr
p1393
aVnr
p1394
aVnr
p1395
aVnr
p1396
aV76
p1397
aVnr
p1398
aVnr
p1399
aVnr
p1400
aVnr
p1401
aV79
p1402
aV82
p1403
aVnr
p1404
aVnr
p1405
aasS'no2'
p1406
(lp1407
(lp1408
V08-11-2016
p1409
aV12
p1410
aV12
p1411
aV39
p1412
aVnr
p1413
aV19
p1414
aVnr
p1415
aVnr
p1416
aV36
p1417
aV62
p1418
aVnr
p1419
aV13
p1420
aVnr
p1421
aV54
p1422
aV45
p1423
aV13
p1424
aV29
p1425
aVnr
p1426
aV39
p1427
aV50
p1428
aVnr
p1429
aVnr
p1430
aVnr
p1431
aV53
p1432
aV50
p1433
aVnr
p1434
aV25
p1435
aV53
p1436
aVnr
p1437
aV35
p1438
aVnr
p1439
aV43
p1440
aVnr
p1441
aVnr
p1442
aV23
p1443
aVnr
p1444
aVnr
p1445
aV36
p1446
aV23
p1447
aVnr
p1448
aV46
p1449
aV31
p1450
aV19
p1451
aV56
p1452
aa(lp1453
V08-11-2016
p1454
aV12
p1455
aV12
p1456
aV39
p1457
aVnr
p1458
aV19
p1459
aVnr
p1460
aVnr
p1461
aV36
p1462
aV62
p1463
aVnr
p1464
aV13
p1465
aVnr
p1466
aV54
p1467
aV45
p1468
aV13
p1469
aV29
p1470
aVnr
p1471
aV39
p1472
aV50
p1473
aVnr
p1474
aVnr
p1475
aVnr
p1476
aV53
p1477
aV50
p1478
aVnr
p1479
aV25
p1480
aV53
p1481
aVnr
p1482
aV35
p1483
aVnr
p1484
aV43
p1485
aVnr
p1486
aVnr
p1487
aV23
p1488
aVnr
p1489
aVnr
p1490
aV36
p1491
aV23
p1492
aVnr
p1493
aV46
p1494
aV31
p1495
aV19
p1496
aV56
p1497
aa(lp1498
V11-11-2016
p1499
aV11
p1500
aV11
p1501
aVnr
p1502
aVnr
p1503
aV21
p1504
aVnr
p1505
aVnr
p1506
aV25
p1507
aVnr
p1508
aVnr
p1509
aV13
p1510
aVnr
p1511
aV32
p1512
aVnr
p1513
aV16
p1514
aVnr
p1515
aVnr
p1516
aV31
p1517
aV28
p1518
aVnr
p1519
aVnr
p1520
aVnr
p1521
aV30
p1522
aV29
p1523
aVnr
p1524
aV17
p1525
aV29
p1526
aVnr
p1527
aV22
p1528
aV28
p1529
aV25
p1530
aVnr
p1531
aVnr
p1532
aV24
p1533
aVnr
p1534
aVnr
p1535
aV24
p1536
aV17
p1537
aVnr
p1538
aV23
p1539
aV19
p1540
aV14
p1541
aV22
p1542
aas.